 KepcoRdWrt

 Timestamp is 62687097 (Tue Apr 26 17:22:15 2022)

 Preferred load address is 00400000

 Start         Length     Name                   Class
 0001:00000000 00000160H .text$di                CODE
 0001:00000160 00071bf0H .text$mn                CODE
 0001:00071d50 0000376aH .text$x                 CODE
 0001:000754ba 0000006eH .text$yd                CODE
 0002:00000000 000001fcH .idata$5                DATA
 0002:000001fc 0000000cH .00cfg                  DATA
 0002:00000208 00000004H .CRT$XCA                DATA
 0002:0000020c 00000004H .CRT$XCAA               DATA
 0002:00000210 0000002cH .CRT$XCC                DATA
 0002:0000023c 00000008H .CRT$XCL                DATA
 0002:00000244 00000004H .CRT$XCZ                DATA
 0002:00000248 00000004H .CRT$XIA                DATA
 0002:0000024c 00000004H .CRT$XIAA               DATA
 0002:00000250 00000004H .CRT$XIAC               DATA
 0002:00000254 00000018H .CRT$XIC                DATA
 0002:0000026c 00000004H .CRT$XIZ                DATA
 0002:00000270 00000004H .CRT$XPA                DATA
 0002:00000274 00000008H .CRT$XPX                DATA
 0002:0000027c 00000004H .CRT$XPXA               DATA
 0002:00000280 00000004H .CRT$XPZ                DATA
 0002:00000284 00000004H .CRT$XTA                DATA
 0002:00000288 00000008H .CRT$XTZ                DATA
 0002:0000028c 00000000H .gfids$y                DATA
 0002:00000290 0000dd70H .rdata                  DATA
 0002:0000e000 00000040H .rdata$CastGuardVftablesA DATA
 0002:0000e040 00000040H .rdata$CastGuardVftablesC DATA
 0002:0000e080 00001b08H .rdata$r                DATA
 0002:0000fb88 00000418H .rdata$sxdata           DATA
 0002:0000ffa0 00000158H .rdata$voltmd           DATA
 0002:000100f8 00000400H .rdata$zzzdbg           DATA
 0002:000104f8 00000004H .rtc$IAA                DATA
 0002:000104fc 00000004H .rtc$IZZ                DATA
 0002:00010500 00000004H .rtc$TAA                DATA
 0002:00010504 00000004H .rtc$TZZ                DATA
 0002:00010508 00004564H .xdata$x                DATA
 0002:00014a6c 00000000H .edata                  DATA
 0002:00014a6c 00000028H .idata$2                DATA
 0002:00014a94 00000014H .idata$3                DATA
 0002:00014aa8 000001fcH .idata$4                DATA
 0002:00014ca4 00000990H .idata$6                DATA
 0003:00000000 00000aa0H .data                   DATA
 0003:00000aa0 00000210H .data$r                 DATA
 0003:00000cb0 00000cf0H .data$rs                DATA
 0003:000019a0 00001a60H .bss                    DATA
 0004:00000000 00000060H .rsrc$01                DATA
 0004:00000060 00000180H .rsrc$02                DATA

  Address         Publics by Value              Rva+Base       Lib:Object

 0000:00000000       ___arm64x_extra_rfe_table_size 00000000     <absolute>
 0000:00000000       ___x64_code_ranges_to_entry_points 00000000     <absolute>
 0000:00000000       ___x64_code_ranges_to_entry_points_count 00000000     <absolute>
 0000:00000000       ___arm64x_redirection_metadata 00000000     <absolute>
 0000:00000000       __except_list              00000000     <absolute>
 0000:00000000       ___hybrid_code_map_count   00000000     <absolute>
 0000:00000000       ___hybrid_auxiliary_iat_copy 00000000     <absolute>
 0000:00000000       ___guard_iat_table         00000000     <absolute>
 0000:00000000       ___guard_fids_table        00000000     <absolute>
 0000:00000000       ___guard_fids_count        00000000     <absolute>
 0000:00000000       ___enclave_config          00000000     <absolute>
 0000:00000000       ___arm64x_native_entrypoint 00000000     <absolute>
 0000:00000000       ___AbsoluteZero            00000000     <absolute>
 0000:00000000       ___guard_eh_cont_count     00000000     <absolute>
 0000:00000000       ___guard_iat_count         00000000     <absolute>
 0000:00000000       ___hybrid_auxiliary_iat    00000000     <absolute>
 0000:00000000       ___hybrid_code_map         00000000     <absolute>
 0000:00000000       ___guard_longjmp_table     00000000     <absolute>
 0000:00000000       ___guard_longjmp_count     00000000     <absolute>
 0000:00000000       ___arm64x_extra_rfe_table  00000000     <absolute>
 0000:00000000       ___dynamic_value_reloc_table 00000000     <absolute>
 0000:00000000       ___arm64x_redirection_metadata_count 00000000     <absolute>
 0000:00000000       ___guard_check_icall_a64n_fptr 00000000     <absolute>
 0000:00000000       ___guard_eh_cont_table     00000000     <absolute>
 0000:00000100       ___guard_flags             00000100     <absolute>
 0000:00000106       ___safe_se_handler_count   00000106     <absolute>
 0000:00000000       ___ImageBase               00400000     <linker-defined>
 0001:00000160       ??$?6U?$char_traits@D@std@@@std@@YAAAV?$basic_ostream@DU?$char_traits@D@std@@@0@AAV10@PBD@Z 00401160 f i KepcoRdWrt.obj
 0001:00000400       ??$?8DU?$char_traits@D@std@@@std@@YA_NABV?$istreambuf_iterator@DU?$char_traits@D@std@@@0@0@Z 00401400 f i KepcoRdWrt.obj
 0001:000004a0       ??$?9DU?$char_traits@D@std@@@std@@YA_NABV?$istreambuf_iterator@DU?$char_traits@D@std@@@0@0@Z 004014a0 f i KepcoRdWrt.obj
 0001:000004c0       ??$_Allocate_manually_vector_aligned@U_Default_allocate_traits@std@@@std@@YAPAXI@Z 004014c0 f i KepcoRdWrt.obj
 0001:000004f0       ??$_Common_extract_with_num_get@N@?$basic_istream@DU?$char_traits@D@std@@@std@@AAEAAV01@AAN@Z 004014f0 f i KepcoRdWrt.obj
 0001:000006a0       ??$_Find_elem@D$0BL@@std@@YAIAAY0BL@$$CBDD@Z 004016a0 f i KepcoRdWrt.obj
 0001:000006d0       ??$_Find_elem@D$0BN@@std@@YAIAAY0BN@$$CBDD@Z 004016d0 f i KepcoRdWrt.obj
 0001:00000700       ??$_Find_elem@D$0P@@std@@YAIAAY0P@$$CBDD@Z 00401700 f i KepcoRdWrt.obj
 0001:00000730       ??$_Getloctxt@V?$istreambuf_iterator@DU?$char_traits@D@std@@@std@@D@std@@YAHAAV?$istreambuf_iterator@DU?$char_traits@D@std@@@0@0IPBDW4_Case_sensitive@0@@Z 00401730 f i KepcoRdWrt.obj
 0001:00000a80       ??$_Immortalize_memcpy_image@V_Iostream_error_category2@std@@@std@@YAABV_Iostream_error_category2@0@XZ 00401a80 f i KepcoRdWrt.obj
 0001:00000a90       ??$_Maklocchr@D@std@@YADDPADABU_Cvtvec@@@Z 00401a90 f i KepcoRdWrt.obj
 0001:00000aa0       ??$_Maklocstr@D@std@@YAPADPBDPADABU_Cvtvec@@@Z 00401aa0 f i KepcoRdWrt.obj
 0001:00000af0       ??$use_facet@V?$ctype@D@std@@@std@@YAABV?$ctype@D@0@ABVlocale@0@@Z 00401af0 f i KepcoRdWrt.obj
 0001:00000c80       ??$use_facet@V?$num_get@DV?$istreambuf_iterator@DU?$char_traits@D@std@@@std@@@std@@@std@@YAABV?$num_get@DV?$istreambuf_iterator@DU?$char_traits@D@std@@@std@@@0@ABVlocale@0@@Z 00401c80 f i KepcoRdWrt.obj
 0001:00000df0       ??$use_facet@V?$numpunct@D@std@@@std@@YAABV?$numpunct@D@0@ABVlocale@0@@Z 00401df0 f i KepcoRdWrt.obj
 0001:00001010       ??0?$basic_string@DU?$char_traits@D@std@@V?$allocator@D@2@@std@@QAE@ID@Z 00402010 f i KepcoRdWrt.obj
 0001:000010f0       ??0_Locinfo@std@@QAE@PBD@Z 004020f0 f i KepcoRdWrt.obj
 0001:000011a0       ??0_System_error@std@@IAE@Verror_code@1@ABV?$basic_string@DU?$char_traits@D@std@@V?$allocator@D@2@@1@@Z 004021a0 f i KepcoRdWrt.obj
 0001:00001390       ??0_System_error@std@@QAE@ABV01@@Z 00402390 f i KepcoRdWrt.obj
 0001:000013e0       ??0bad_alloc@std@@QAE@ABV01@@Z 004023e0 f i KepcoRdWrt.obj
 0001:00001420       ??0bad_array_new_length@std@@QAE@ABV01@@Z 00402420 f i KepcoRdWrt.obj
 0001:00001460       ??0bad_array_new_length@std@@QAE@XZ 00402460 f i KepcoRdWrt.obj
 0001:00001480       ??0bad_cast@std@@QAE@ABV01@@Z 00402480 f i KepcoRdWrt.obj
 0001:000014c0       ??0exception@std@@QAE@ABV01@@Z 004024c0 f i KepcoRdWrt.obj
 0001:000014f0       ??0failure@ios_base@std@@QAE@ABV012@@Z 004024f0 f i KepcoRdWrt.obj
 0001:00001540       ??0failure@ios_base@std@@QAE@PBDABVerror_code@2@@Z 00402540 f i KepcoRdWrt.obj
 0001:00001630       ??0runtime_error@std@@QAE@ABV01@@Z 00402630 f i KepcoRdWrt.obj
 0001:00001670       ??0sentry@?$basic_ostream@DU?$char_traits@D@std@@@std@@QAE@AAV12@@Z 00402670 f i KepcoRdWrt.obj
 0001:00001710       ??0system_error@std@@QAE@ABV01@@Z 00402710 f i KepcoRdWrt.obj
 0001:00001760       ??1?$_Tidy_guard@V?$numpunct@D@std@@@std@@QAE@XZ 00402760 f i KepcoRdWrt.obj
 0001:00001790       ??1?$_Yarn@D@std@@QAE@XZ   00402790 f i KepcoRdWrt.obj
 0001:000017b0       ??1?$_Yarn@_W@std@@QAE@XZ  004027b0 f i KepcoRdWrt.obj
 0001:000017d0       ??1?$basic_string@DU?$char_traits@D@std@@V?$allocator@D@2@@std@@QAE@XZ 004027d0 f i KepcoRdWrt.obj
 0001:00001820       ??1?$ctype@D@std@@MAE@XZ   00402820 f i KepcoRdWrt.obj
 0001:00001860       ??1?$num_get@DV?$istreambuf_iterator@DU?$char_traits@D@std@@@std@@@std@@MAE@XZ 00402860 f i KepcoRdWrt.obj
 0001:00001870       ??1?$numpunct@D@std@@MAE@XZ 00402870 f i KepcoRdWrt.obj
 0001:000018a0       ??1?$unique_ptr@V_Facet_base@std@@U?$default_delete@V_Facet_base@std@@@2@@std@@QAE@XZ 004028a0 f i KepcoRdWrt.obj
 0001:000018b0       ??1_Facet_base@std@@UAE@XZ 004028b0 f i KepcoRdWrt.obj
 0001:000018c0       ??1_Locinfo@std@@QAE@XZ    004028c0 f i KepcoRdWrt.obj
 0001:000019a0       ??1_Sentry_base@?$basic_istream@DU?$char_traits@D@std@@@std@@QAE@XZ 004029a0 f i KepcoRdWrt.obj
 0001:000019f0       ??1_Sentry_base@?$basic_ostream@DU?$char_traits@D@std@@@std@@QAE@XZ 004029f0 f i KepcoRdWrt.obj
 0001:00001a40       ??1bad_array_new_length@std@@UAE@XZ 00402a40 f i KepcoRdWrt.obj
 0001:00001a60       ??1bad_cast@std@@UAE@XZ    00402a60 f i KepcoRdWrt.obj
 0001:00001a80       ??1ctype_base@std@@UAE@XZ  00402a80 f i KepcoRdWrt.obj
 0001:00001a90       ??1error_category@std@@UAE@XZ 00402a90 f i KepcoRdWrt.obj
 0001:00001aa0       ??1exception@std@@UAE@XZ   00402aa0 f i KepcoRdWrt.obj
 0001:00001ac0       ??1facet@locale@std@@MAE@XZ 00402ac0 f i KepcoRdWrt.obj
 0001:00001ad0       ??1failure@ios_base@std@@UAE@XZ 00402ad0 f i KepcoRdWrt.obj
 0001:00001af0       ??1locale@std@@QAE@XZ      00402af0 f i KepcoRdWrt.obj
 0001:00001b10       ??1sentry@?$basic_istream@DU?$char_traits@D@std@@@std@@QAE@XZ 00402b10 f i KepcoRdWrt.obj
 0001:00001b70       ??1sentry@?$basic_ostream@DU?$char_traits@D@std@@@std@@QAE@XZ 00402b70 f i KepcoRdWrt.obj
 0001:00001be0       ??1system_error@std@@UAE@XZ 00402be0 f i KepcoRdWrt.obj
 0001:00001c00       ??D?$istreambuf_iterator@DU?$char_traits@D@std@@@std@@QBEDXZ 00402c00 f i KepcoRdWrt.obj
 0001:00001c50       ??E?$istreambuf_iterator@DU?$char_traits@D@std@@@std@@QAEAAV01@XZ 00402c50 f i KepcoRdWrt.obj
 0001:00001ca0       ??_E?$ctype@D@std@@MAEPAXI@Z 00402ca0 f i KepcoRdWrt.obj
 0001:00001ca0       ??_G?$ctype@D@std@@MAEPAXI@Z 00402ca0 f i KepcoRdWrt.obj
 0001:00001d00       ??_G?$num_get@DV?$istreambuf_iterator@DU?$char_traits@D@std@@@std@@@std@@MAEPAXI@Z 00402d00 f i KepcoRdWrt.obj
 0001:00001d00       ??_E?$num_get@DV?$istreambuf_iterator@DU?$char_traits@D@std@@@std@@@std@@MAEPAXI@Z 00402d00 f i KepcoRdWrt.obj
 0001:00001d30       ??_E?$numpunct@D@std@@MAEPAXI@Z 00402d30 f i KepcoRdWrt.obj
 0001:00001d30       ??_G?$numpunct@D@std@@MAEPAXI@Z 00402d30 f i KepcoRdWrt.obj
 0001:00001d80       ??_E_Facet_base@std@@UAEPAXI@Z 00402d80 f i KepcoRdWrt.obj
 0001:00001d80       ??_G_Facet_base@std@@UAEPAXI@Z 00402d80 f i KepcoRdWrt.obj
 0001:00001db0       ??_G_Iostream_error_category2@std@@UAEPAXI@Z 00402db0 f i KepcoRdWrt.obj
 0001:00001db0       ??_E_Iostream_error_category2@std@@UAEPAXI@Z 00402db0 f i KepcoRdWrt.obj
 0001:00001dd0       ??_E_System_error@std@@UAEPAXI@Z 00402dd0 f i KepcoRdWrt.obj
 0001:00001dd0       ??_G_System_error@std@@UAEPAXI@Z 00402dd0 f i KepcoRdWrt.obj
 0001:00001e00       ??_Gbad_alloc@std@@UAEPAXI@Z 00402e00 f i KepcoRdWrt.obj
 0001:00001e00       ??_Ebad_alloc@std@@UAEPAXI@Z 00402e00 f i KepcoRdWrt.obj
 0001:00001e30       ??_Gbad_array_new_length@std@@UAEPAXI@Z 00402e30 f i KepcoRdWrt.obj
 0001:00001e30       ??_Ebad_array_new_length@std@@UAEPAXI@Z 00402e30 f i KepcoRdWrt.obj
 0001:00001e60       ??_Gbad_cast@std@@UAEPAXI@Z 00402e60 f i KepcoRdWrt.obj
 0001:00001e60       ??_Ebad_cast@std@@UAEPAXI@Z 00402e60 f i KepcoRdWrt.obj
 0001:00001e90       ??_Ectype_base@std@@UAEPAXI@Z 00402e90 f i KepcoRdWrt.obj
 0001:00001e90       ??_Gctype_base@std@@UAEPAXI@Z 00402e90 f i KepcoRdWrt.obj
 0001:00001ec0       ??_Gexception@std@@UAEPAXI@Z 00402ec0 f i KepcoRdWrt.obj
 0001:00001ec0       ??_Eexception@std@@UAEPAXI@Z 00402ec0 f i KepcoRdWrt.obj
 0001:00001ef0       ??_Gfacet@locale@std@@MAEPAXI@Z 00402ef0 f i KepcoRdWrt.obj
 0001:00001ef0       ??_Efacet@locale@std@@MAEPAXI@Z 00402ef0 f i KepcoRdWrt.obj
 0001:00001f20       ??_Efailure@ios_base@std@@UAEPAXI@Z 00402f20 f i KepcoRdWrt.obj
 0001:00001f20       ??_Gfailure@ios_base@std@@UAEPAXI@Z 00402f20 f i KepcoRdWrt.obj
 0001:00001f50       ??_Eruntime_error@std@@UAEPAXI@Z 00402f50 f i KepcoRdWrt.obj
 0001:00001f50       ??_Gruntime_error@std@@UAEPAXI@Z 00402f50 f i KepcoRdWrt.obj
 0001:00001f80       ??_Esystem_error@std@@UAEPAXI@Z 00402f80 f i KepcoRdWrt.obj
 0001:00001f80       ??_Gsystem_error@std@@UAEPAXI@Z 00402f80 f i KepcoRdWrt.obj
 0001:00001fb0       ?_Decref@facet@locale@std@@UAEPAV_Facet_base@3@XZ 00402fb0 f i KepcoRdWrt.obj
 0001:00001fd0       ?_Getffld@?$num_get@DV?$istreambuf_iterator@DU?$char_traits@D@std@@@std@@@std@@ABAHPADAAV?$istreambuf_iterator@DU?$char_traits@D@std@@@2@1AAVios_base@2@PAH@Z 00402fd0 f i KepcoRdWrt.obj
 0001:00002dd0       ?_Getffldx@?$num_get@DV?$istreambuf_iterator@DU?$char_traits@D@std@@@std@@@std@@ABAHPADAAV?$istreambuf_iterator@DU?$char_traits@D@std@@@2@1AAVios_base@2@PAH@Z 00403dd0 f i KepcoRdWrt.obj
 0001:00003e40       ?_Getifld@?$num_get@DV?$istreambuf_iterator@DU?$char_traits@D@std@@@std@@@std@@ABAHPADAAV?$istreambuf_iterator@DU?$char_traits@D@std@@@2@1HABVlocale@2@@Z 00404e40 f i KepcoRdWrt.obj
 0001:00004660       ?_Incref@facet@locale@std@@UAEXXZ 00405660 f i KepcoRdWrt.obj
 0001:00004670       ?_Ipfx@?$basic_istream@DU?$char_traits@D@std@@@std@@QAE_N_N@Z 00405670 f i KepcoRdWrt.obj
 0001:00004930       ?_Osfx@?$basic_ostream@DU?$char_traits@D@std@@@std@@QAEXXZ 00405930 f i KepcoRdWrt.obj
 0001:00004a10       ?_Throw_bad_array_new_length@std@@YAXXZ 00405a10 f i KepcoRdWrt.obj
 0001:00004a30       ?_Xlen_string@std@@YAXXZ   00405a30 f i KepcoRdWrt.obj
 0001:00004a40       ?append@?$basic_string@DU?$char_traits@D@std@@V?$allocator@D@2@@std@@QAEAAV12@QBDI@Z 00405a40 f i KepcoRdWrt.obj
 0001:00004bd0       ?assign@?$basic_string@DU?$char_traits@D@std@@V?$allocator@D@2@@std@@QAEAAV12@QBDI@Z 00405bd0 f i KepcoRdWrt.obj
 0001:00004d00       ?clear@ios_base@std@@QAEXH_N@Z 00405d00 f i KepcoRdWrt.obj
 0001:00004d80       ?default_error_condition@error_category@std@@UBE?AVerror_condition@2@H@Z 00405d80 f i KepcoRdWrt.obj
 0001:00004da0       ?do_decimal_point@?$numpunct@D@std@@MBEDXZ 00405da0 f i KepcoRdWrt.obj
 0001:00004db0       ?do_falsename@?$numpunct@D@std@@MBE?AV?$basic_string@DU?$char_traits@D@std@@V?$allocator@D@2@@2@XZ 00405db0 f i KepcoRdWrt.obj
 0001:00004e10       ?do_get@?$num_get@DV?$istreambuf_iterator@DU?$char_traits@D@std@@@std@@@std@@MBE?AV?$istreambuf_iterator@DU?$char_traits@D@std@@@2@V32@0AAVios_base@2@AAHAAG@Z 00405e10 f i KepcoRdWrt.obj
 0001:00004f60       ?do_get@?$num_get@DV?$istreambuf_iterator@DU?$char_traits@D@std@@@std@@@std@@MBE?AV?$istreambuf_iterator@DU?$char_traits@D@std@@@2@V32@0AAVios_base@2@AAHAAI@Z 00405f60 f i KepcoRdWrt.obj
 0001:00005090       ?do_get@?$num_get@DV?$istreambuf_iterator@DU?$char_traits@D@std@@@std@@@std@@MBE?AV?$istreambuf_iterator@DU?$char_traits@D@std@@@2@V32@0AAVios_base@2@AAHAAJ@Z 00406090 f i KepcoRdWrt.obj
 0001:000051b0       ?do_get@?$num_get@DV?$istreambuf_iterator@DU?$char_traits@D@std@@@std@@@std@@MBE?AV?$istreambuf_iterator@DU?$char_traits@D@std@@@2@V32@0AAVios_base@2@AAHAAK@Z 004061b0 f i KepcoRdWrt.obj
 0001:000052d0       ?do_get@?$num_get@DV?$istreambuf_iterator@DU?$char_traits@D@std@@@std@@@std@@MBE?AV?$istreambuf_iterator@DU?$char_traits@D@std@@@2@V32@0AAVios_base@2@AAHAAM@Z 004062d0 f i KepcoRdWrt.obj
 0001:00005450       ?do_get@?$num_get@DV?$istreambuf_iterator@DU?$char_traits@D@std@@@std@@@std@@MBE?AV?$istreambuf_iterator@DU?$char_traits@D@std@@@2@V32@0AAVios_base@2@AAHAAN@Z 00406450 f i KepcoRdWrt.obj
 0001:000055c0       ?do_get@?$num_get@DV?$istreambuf_iterator@DU?$char_traits@D@std@@@std@@@std@@MBE?AV?$istreambuf_iterator@DU?$char_traits@D@std@@@2@V32@0AAVios_base@2@AAHAAO@Z 004065c0 f i KepcoRdWrt.obj
 0001:00005780       ?do_get@?$num_get@DV?$istreambuf_iterator@DU?$char_traits@D@std@@@std@@@std@@MBE?AV?$istreambuf_iterator@DU?$char_traits@D@std@@@2@V32@0AAVios_base@2@AAHAAPAX@Z 00406780 f i KepcoRdWrt.obj
 0001:000058a0       ?do_get@?$num_get@DV?$istreambuf_iterator@DU?$char_traits@D@std@@@std@@@std@@MBE?AV?$istreambuf_iterator@DU?$char_traits@D@std@@@2@V32@0AAVios_base@2@AAHAA_J@Z 004068a0 f i KepcoRdWrt.obj
 0001:000059d0       ?do_get@?$num_get@DV?$istreambuf_iterator@DU?$char_traits@D@std@@@std@@@std@@MBE?AV?$istreambuf_iterator@DU?$char_traits@D@std@@@2@V32@0AAVios_base@2@AAHAA_K@Z 004069d0 f i KepcoRdWrt.obj
 0001:00005b00       ?do_get@?$num_get@DV?$istreambuf_iterator@DU?$char_traits@D@std@@@std@@@std@@MBE?AV?$istreambuf_iterator@DU?$char_traits@D@std@@@2@V32@0AAVios_base@2@AAHAA_N@Z 00406b00 f i KepcoRdWrt.obj
 0001:00005f10       ?do_grouping@?$numpunct@D@std@@MBE?AV?$basic_string@DU?$char_traits@D@std@@V?$allocator@D@2@@2@XZ 00406f10 f i KepcoRdWrt.obj
 0001:00005f70       ?do_narrow@?$ctype@D@std@@MBEDDD@Z 00406f70 f i KepcoRdWrt.obj
 0001:00005f80       ?do_narrow@?$ctype@D@std@@MBEPBDPBD0DPAD@Z 00406f80 f i KepcoRdWrt.obj
 0001:00005fa0       ?do_thousands_sep@?$numpunct@D@std@@MBEDXZ 00406fa0 f i KepcoRdWrt.obj
 0001:00005fb0       ?do_tolower@?$ctype@D@std@@MBEDD@Z 00406fb0 f i KepcoRdWrt.obj
 0001:00005fd0       ?do_tolower@?$ctype@D@std@@MBEPBDPADPBD@Z 00406fd0 f i KepcoRdWrt.obj
 0001:00006000       ?do_toupper@?$ctype@D@std@@MBEDD@Z 00407000 f i KepcoRdWrt.obj
 0001:00006020       ?do_toupper@?$ctype@D@std@@MBEPBDPADPBD@Z 00407020 f i KepcoRdWrt.obj
 0001:00006050       ?do_truename@?$numpunct@D@std@@MBE?AV?$basic_string@DU?$char_traits@D@std@@V?$allocator@D@2@@2@XZ 00407050 f i KepcoRdWrt.obj
 0001:000060b0       ?do_widen@?$ctype@D@std@@MBEDD@Z 004070b0 f i KepcoRdWrt.obj
 0001:000060c0       ?do_widen@?$ctype@D@std@@MBEPBDPBD0PAD@Z 004070c0 f i KepcoRdWrt.obj
 0001:000060e0       ?equivalent@error_category@std@@UBE_NABVerror_code@2@H@Z 004070e0 f i KepcoRdWrt.obj
 0001:00006110       ?equivalent@error_category@std@@UBE_NHABVerror_condition@2@@Z 00407110 f i KepcoRdWrt.obj
 0001:00006150       ?flush@?$basic_ostream@DU?$char_traits@D@std@@@std@@QAEAAV12@XZ 00407150 f i KepcoRdWrt.obj
 0001:000062a0       ?make_error_code@std@@YA?AVerror_code@1@W4io_errc@1@@Z 004072a0 f i KepcoRdWrt.obj
 0001:000062c0       ?message@_Iostream_error_category2@std@@UBE?AV?$basic_string@DU?$char_traits@D@std@@V?$allocator@D@2@@2@H@Z 004072c0 f i KepcoRdWrt.obj
 0001:00006370       ?name@_Iostream_error_category2@std@@UBEPBDXZ 00407370 f i KepcoRdWrt.obj
 0001:00006380       ?now@steady_clock@chrono@std@@SA?AV?$time_point@Usteady_clock@chrono@std@@V?$duration@_JU?$ratio@$00$0DLJKMKAA@@std@@@23@@23@XZ 00407380 f i KepcoRdWrt.obj
 0001:00006430       ?setstate@?$basic_ios@DU?$char_traits@D@std@@@std@@QAEXH_N@Z 00407430 f i KepcoRdWrt.obj
 0001:00006460       ?what@exception@std@@UBEPBDXZ 00407460 f i KepcoRdWrt.obj
 0001:00006470       ___local_stdio_printf_options 00407470 f i KepcoRdWrt.obj
 0001:00006480       __scprintf                 00407480 f i KepcoRdWrt.obj
 0001:000064b0       _main                      004074b0 f   KepcoRdWrt.obj
 0001:00006d10       _printf                    00407d10 f i KepcoRdWrt.obj
 0001:00006d40       _sprintf_s                 00407d40 f i KepcoRdWrt.obj
 0001:00006d6e       _viOpenDefaultRM@4         00407d6e f   visa32:VISA32.dll
 0001:00006d74       _viOpen@20                 00407d74 f   visa32:VISA32.dll
 0001:00006d7a       _viClose@4                 00407d7a f   visa32:VISA32.dll
 0001:00006d80       _viSetAttribute@12         00407d80 f   visa32:VISA32.dll
 0001:00006d86       _viWrite@16                00407d86 f   visa32:VISA32.dll
 0001:00006d8c       ??0_Init_locks@std@@QAE@XZ 00407d8c f   libcpmt:xlock.obj
 0001:00006db9       ??0_Lockit@std@@QAE@H@Z    00407db9 f   libcpmt:xlock.obj
 0001:00006dea       ??0_Lockit@std@@QAE@XZ     00407dea f   libcpmt:xlock.obj
 0001:00006df9       ??1_Init_locks@std@@QAE@XZ 00407df9 f   libcpmt:xlock.obj
 0001:00006e20       ??1_Lockit@std@@QAE@XZ     00407e20 f   libcpmt:xlock.obj
 0001:00006e3f       ?_Init_locks_ctor@_Init_locks@std@@CAXPAV12@@Z 00407e3f f   libcpmt:xlock.obj
 0001:00006e66       ?_Init_locks_dtor@_Init_locks@std@@CAXPAV12@@Z 00407e66 f   libcpmt:xlock.obj
 0001:00006e8d       ?_Lockit_ctor@_Lockit@std@@CAXPAV12@@Z 00407e8d f   libcpmt:xlock.obj
 0001:00006e99       ?_Lockit_ctor@_Lockit@std@@CAXPAV12@H@Z 00407e99 f   libcpmt:xlock.obj
 0001:00006ec2       ?_Lockit_ctor@_Lockit@std@@SAXH@Z 00407ec2 f   libcpmt:xlock.obj
 0001:00006ee6       ?_Lockit_dtor@_Lockit@std@@CAXPAV12@@Z 00407ee6 f   libcpmt:xlock.obj
 0001:00006efd       ?_Lockit_dtor@_Lockit@std@@SAXH@Z 00407efd f   libcpmt:xlock.obj
 0001:00006f21       __Lock_at_thread_exit_mutex 00407f21 f   libcpmt:xlock.obj
 0001:00006f2d       __Unlock_at_thread_exit_mutex 00407f2d f   libcpmt:xlock.obj
 0001:00006f39       ?uncaught_exception@std@@YA_NXZ 00407f39 f   libcpmt:uncaught_exception.obj
 0001:00006f3e       ??0bad_alloc@std@@QAE@XZ   00407f3e f i libcpmt:xthrow.obj
 0001:00006f56       ??0bad_function_call@std@@QAE@ABV01@@Z 00407f56 f i libcpmt:xthrow.obj
 0001:00006f71       ??0bad_function_call@std@@QAE@XZ 00407f71 f i libcpmt:xthrow.obj
 0001:00006f82       ??0exception@std@@QAE@QBD@Z 00407f82 f i libcpmt:xthrow.obj
 0001:00006fb7       ??0exception@std@@QAE@QBDH@Z 00407fb7 f i libcpmt:xthrow.obj
 0001:00006fd4       ??0exception@std@@QAE@XZ   00407fd4 f i libcpmt:xthrow.obj
 0001:00006fe5       ??0invalid_argument@std@@QAE@ABV01@@Z 00407fe5 f i libcpmt:xthrow.obj
 0001:00007000       ??0invalid_argument@std@@QAE@PBD@Z 00408000 f i libcpmt:xthrow.obj
 0001:0000701f       ??0length_error@std@@QAE@ABV01@@Z 0040801f f i libcpmt:xthrow.obj
 0001:0000703a       ??0length_error@std@@QAE@PBD@Z 0040803a f i libcpmt:xthrow.obj
 0001:00007059       ??0logic_error@std@@QAE@ABV01@@Z 00408059 f i libcpmt:xthrow.obj
 0001:00007074       ??0logic_error@std@@QAE@PBD@Z 00408074 f i libcpmt:xthrow.obj
 0001:00007093       ??0out_of_range@std@@QAE@ABV01@@Z 00408093 f i libcpmt:xthrow.obj
 0001:000070ae       ??0out_of_range@std@@QAE@PBD@Z 004080ae f i libcpmt:xthrow.obj
 0001:000070cd       ??0overflow_error@std@@QAE@ABV01@@Z 004080cd f i libcpmt:xthrow.obj
 0001:000070e8       ??0overflow_error@std@@QAE@PBD@Z 004080e8 f i libcpmt:xthrow.obj
 0001:00007107       ??0regex_error@std@@QAE@ABV01@@Z 00408107 f i libcpmt:xthrow.obj
 0001:0000712b       ??0regex_error@std@@QAE@W4error_type@regex_constants@1@@Z 0040812b f i libcpmt:xthrow.obj
 0001:00007159       ??0runtime_error@std@@QAE@PBD@Z 00408159 f i libcpmt:xthrow.obj
 0001:00007178       ??1bad_alloc@std@@UAE@XZ   00408178 f i libcpmt:xthrow.obj
 0001:00007189       ??1bad_function_call@std@@UAE@XZ 00408189 f i libcpmt:xthrow.obj
 0001:0000719a       ??1invalid_argument@std@@UAE@XZ 0040819a f i libcpmt:xthrow.obj
 0001:000071ab       ??1length_error@std@@UAE@XZ 004081ab f i libcpmt:xthrow.obj
 0001:000071bc       ??1logic_error@std@@UAE@XZ 004081bc f i libcpmt:xthrow.obj
 0001:000071cd       ??1out_of_range@std@@UAE@XZ 004081cd f i libcpmt:xthrow.obj
 0001:000071de       ??1overflow_error@std@@UAE@XZ 004081de f i libcpmt:xthrow.obj
 0001:000071ef       ??1regex_error@std@@UAE@XZ 004081ef f i libcpmt:xthrow.obj
 0001:00007200       ??1runtime_error@std@@UAE@XZ 00408200 f i libcpmt:xthrow.obj
 0001:00007211       ??_Ebad_function_call@std@@UAEPAXI@Z 00408211 f i libcpmt:xthrow.obj
 0001:00007211       ??_Gbad_function_call@std@@UAEPAXI@Z 00408211 f i libcpmt:xthrow.obj
 0001:0000723e       ??_Ginvalid_argument@std@@UAEPAXI@Z 0040823e f i libcpmt:xthrow.obj
 0001:0000723e       ??_Einvalid_argument@std@@UAEPAXI@Z 0040823e f i libcpmt:xthrow.obj
 0001:0000726b       ??_Glength_error@std@@UAEPAXI@Z 0040826b f i libcpmt:xthrow.obj
 0001:0000726b       ??_Elength_error@std@@UAEPAXI@Z 0040826b f i libcpmt:xthrow.obj
 0001:00007298       ??_Elogic_error@std@@UAEPAXI@Z 00408298 f i libcpmt:xthrow.obj
 0001:00007298       ??_Glogic_error@std@@UAEPAXI@Z 00408298 f i libcpmt:xthrow.obj
 0001:000072c5       ??_Eout_of_range@std@@UAEPAXI@Z 004082c5 f i libcpmt:xthrow.obj
 0001:000072c5       ??_Gout_of_range@std@@UAEPAXI@Z 004082c5 f i libcpmt:xthrow.obj
 0001:000072f2       ??_Eoverflow_error@std@@UAEPAXI@Z 004082f2 f i libcpmt:xthrow.obj
 0001:000072f2       ??_Goverflow_error@std@@UAEPAXI@Z 004082f2 f i libcpmt:xthrow.obj
 0001:0000731f       ??_Eregex_error@std@@UAEPAXI@Z 0040831f f i libcpmt:xthrow.obj
 0001:0000731f       ??_Gregex_error@std@@UAEPAXI@Z 0040831f f i libcpmt:xthrow.obj
 0001:0000734c       ?_Stringify@regex_error@std@@CAPBDW4error_type@regex_constants@2@@Z 0040834c f i libcpmt:xthrow.obj
 0001:0000740c       ?_Xbad_alloc@std@@YAXXZ    0040840c f   libcpmt:xthrow.obj
 0001:00007429       ?_Xbad_function_call@std@@YAXXZ 00408429 f   libcpmt:xthrow.obj
 0001:00007446       ?_Xinvalid_argument@std@@YAXPBD@Z 00408446 f   libcpmt:xthrow.obj
 0001:00007466       ?_Xlength_error@std@@YAXPBD@Z 00408466 f   libcpmt:xthrow.obj
 0001:00007486       ?_Xout_of_range@std@@YAXPBD@Z 00408486 f   libcpmt:xthrow.obj
 0001:000074a6       ?_Xoverflow_error@std@@YAXPBD@Z 004084a6 f   libcpmt:xthrow.obj
 0001:000074c6       ?_Xregex_error@std@@YAXW4error_type@regex_constants@1@@Z 004084c6 f   libcpmt:xthrow.obj
 0001:000074e6       ?_Xruntime_error@std@@YAXPBD@Z 004084e6 f   libcpmt:xthrow.obj
 0001:00007506       ?what@bad_function_call@std@@UBEPBDXZ 00408506 f i libcpmt:xthrow.obj
 0001:0000750c       ??$_Atomic_address_as@_JU?$_Atomic_padded@_J@std@@@std@@YAPC_JAAU?$_Atomic_padded@_J@0@@Z 0040850c f i libcpmt:xtime.obj
 0001:00007514       ??$_Atomic_address_as@_JU?$_Atomic_padded@_J@std@@@std@@YAPD_JABU?$_Atomic_padded@_J@0@@Z 00408514 f i libcpmt:xtime.obj
 0001:0000751c       ??$_Atomic_reinterpret_as@_J_J@std@@YA_JAB_J@Z 0040851c f i libcpmt:xtime.obj
 0001:00007529       ?_Check_load_memory_order@std@@YAXW4memory_order@1@@Z 00408529 f i libcpmt:xtime.obj
 0001:0000752c       ?_Load_barrier@std@@YAXW4memory_order@1@@Z 0040852c f i libcpmt:xtime.obj
 0001:00007538       ?load@?$_Atomic_storage@_J$07@std@@QBE_JW4memory_order@2@@Z 00408538 f i libcpmt:xtime.obj
 0001:00007553       ?store@?$_Atomic_storage@_J$07@std@@QAEX_J@Z 00408553 f i libcpmt:xtime.obj
 0001:00007574       ?store@?$_Atomic_storage@_J$07@std@@QAEX_JW4memory_order@2@@Z 00408574 f i libcpmt:xtime.obj
 0001:000076b1       __Query_perf_counter       004086b1 f   libcpmt:xtime.obj
 0001:000076c8       __Query_perf_frequency     004086c8 f   libcpmt:xtime.obj
 0001:00007705       __Xtime_diff_to_millis     00408705 f   libcpmt:xtime.obj
 0001:0000773e       __Xtime_diff_to_millis2    0040873e f   libcpmt:xtime.obj
 0001:0000777e       __Xtime_get_ticks          0040877e f   libcpmt:xtime.obj
 0001:000077a5       _atomic_thread_fence       004087a5 f i libcpmt:xtime.obj
 0001:000077fb       _xtime_get                 004087fb f   libcpmt:xtime.obj
 0001:00007850       ?_Syserror_map@std@@YAPBDH@Z 00408850 f   libcpmt:syserror.obj
 0001:00007875       ?_Winerror_map@std@@YAHH@Z 00408875 f   libcpmt:syserror.obj
 0001:00007897       ?_Winerror_message@std@@YAKKPADK@Z 00408897 f   libcpmt:syserror.obj
 0001:000078be       ??0?$_Yarn@D@std@@QAE@PBD@Z 004088be f i libcpmt:locale0.obj
 0001:000078da       ??0_Fac_node@std@@QAE@PAU01@PAV_Facet_base@1@@Z 004088da f i libcpmt:locale0.obj
 0001:000078ee       ??0_Facet_base@std@@QAE@XZ 004088ee f i libcpmt:locale0.obj
 0001:000078f7       ??0_Locimp@locale@std@@AAE@ABV012@@Z 004088f7 f i libcpmt:locale0.obj
 0001:00007961       ??0_Locimp@locale@std@@AAE@_N@Z 00408961 f i libcpmt:locale0.obj
 0001:000079a2       ??0facet@locale@std@@IAE@I@Z 004089a2 f i libcpmt:locale0.obj
 0001:000079bb       ??0id@locale@std@@QAE@I@Z  004089bb f i libcpmt:locale0.obj
 0001:000079c9       ??0locale@std@@AAE@PAV_Locimp@01@@Z 004089c9 f i libcpmt:locale0.obj
 0001:000079d8       ??0locale@std@@QAE@W4_Uninitialized@1@@Z 004089d8 f i libcpmt:locale0.obj
 0001:000079dd       ??1_Fac_node@std@@QAE@XZ   004089dd f i libcpmt:locale0.obj
 0001:00007a0e       ??1_Fac_tidy_reg_t@std@@QAE@XZ 00408a0e f i libcpmt:locale0.obj
 0001:00007a35       ??1_Locimp@locale@std@@MAE@XZ 00408a35 f i libcpmt:locale0.obj
 0001:00007a60       ??2@YAPAXIPAX@Z            00408a60 f i libcpmt:locale0.obj
 0001:00007a68       ??4?$_Yarn@D@std@@QAEAAV01@PBD@Z 00408a68 f i libcpmt:locale0.obj
 0001:00007abc       ??_G_Fac_node@std@@QAEPAXI@Z 00408abc f i libcpmt:locale0.obj
 0001:00007ade       ??_G_Locimp@locale@std@@MAEPAXI@Z 00408ade f i libcpmt:locale0.obj
 0001:00007ade       ??_E_Locimp@locale@std@@MAEPAXI@Z 00408ade f i libcpmt:locale0.obj
 0001:00007b00       ?_C_str@?$_Yarn@D@std@@QBEPBDXZ 00408b00 f i libcpmt:locale0.obj
 0001:00007b0a       ?_Empty@?$_Yarn@D@std@@QBE_NXZ 00408b0a f i libcpmt:locale0.obj
 0001:00007b11       ?_Facet_Register@std@@YAXPAV_Facet_base@1@@Z 00408b11 f   libcpmt:locale0.obj
 0001:00007b3d       ?_Getgloballocale@locale@std@@CAPAV_Locimp@12@XZ 00408b3d f   libcpmt:locale0.obj
 0001:00007b43       ?_Init@locale@std@@CAPAV_Locimp@12@_N@Z 00408b43 f   libcpmt:locale0.obj
 0001:00007bd3       ?_Locimp_dtor@_Locimp@locale@std@@CAXPAV123@@Z 00408bd3 f   libcpmt:locale0.obj
 0001:00007c43       ?_Locinfo_ctor@_Locinfo@std@@SAXPAV12@PBD@Z 00408c43 f   libcpmt:locale0.obj
 0001:00007c8e       ?_Locinfo_dtor@_Locinfo@std@@SAXPAV12@@Z 00408c8e f   libcpmt:locale0.obj
 0001:00007ca8       ?_New_Locimp@_Locimp@locale@std@@CAPAV123@ABV123@@Z 00408ca8 f   libcpmt:locale0.obj
 0001:00007cd8       ?_New_Locimp@_Locimp@locale@std@@CAPAV123@_N@Z 00408cd8 f   libcpmt:locale0.obj
 0001:00007cfb       ?_Setgloballocale@locale@std@@CAXPAX@Z 00408cfb f   libcpmt:locale0.obj
 0001:00007d23       ?_Tidy@?$_Yarn@D@std@@AAEXXZ 00408d23 f i libcpmt:locale0.obj
 0001:00007d38       ?c_str@?$_Yarn@D@std@@QBEPBDXZ 00408d38 f i libcpmt:locale0.obj
 0001:00007d42       ?classic@locale@std@@SAABV12@XZ 00408d42 f   libcpmt:locale0.obj
 0001:00007d50       ?empty@locale@std@@SA?AV12@XZ 00408d50 f   libcpmt:locale0.obj
 0001:00007d6e       __Deletegloballocale       00408d6e f   libcpmt:locale0.obj
 0001:00007dd3       __Getctype                 00408dd3 f   libcpmt:_tolower.obj
 0001:00007e3e       __Tolower                  00408e3e f   libcpmt:_tolower.obj
 0001:00007f4a       __Getcvt                   00408f4a f   libcpmt:xwctomb.obj
 0001:00007fbd       __Wcrtomb                  00408fbd f   libcpmt:xwctomb.obj
 0001:00008019       ___Wcrtomb_lk              00409019 f   libcpmt:xwctomb.obj
 0001:00008022       __Toupper                  00409022 f   libcpmt:_toupper.obj
 0001:0000812e       __Stolx                    0040912e f   libcpmt:xstol.obj
 0001:000081d2       __Stoul                    004091d2 f   libcpmt:xstoul.obj
 0001:000081ea       __Stoulx                   004091ea f   libcpmt:xstoul.obj
 0001:0000835c       __Stoll                    0040935c f   libcpmt:xstoll.obj
 0001:00008374       __Stollx                   00409374 f   libcpmt:xstoll.obj
 0001:0000843f       __Stoull                   0040943f f   libcpmt:xstoull.obj
 0001:00008457       __Stoullx                  00409457 f   libcpmt:xstoull.obj
 0001:0000861a       ??$?0$$V@?$_Compressed_pair@V?$allocator@D@std@@V?$_String_val@U?$_Simple_types@D@std@@@2@$00@std@@QAE@U_Zero_then_variadic_args_t@1@@Z 0040961a f i libcpmt:cin.obj
 0001:00008629       ??$?0AAPAV_Facet_base@std@@@?$_Compressed_pair@U?$default_delete@V_Facet_base@std@@@std@@PAV_Facet_base@2@$00@std@@QAE@U_Zero_then_variadic_args_t@1@AAPAV_Facet_base@1@@Z 00409629 f i libcpmt:cin.obj
 0001:00008639       ??$?0U?$default_delete@V_Facet_base@std@@@std@@$0A@@?$unique_ptr@V_Facet_base@std@@U?$default_delete@V_Facet_base@std@@@2@@std@@QAE@PAV_Facet_base@1@@Z 00409639 f i libcpmt:cin.obj
 0001:00008647       ??$?0V?$allocator@D@std@@$$V@?$_Compressed_pair@V?$allocator@D@std@@V?$_String_val@U?$_Simple_types@D@std@@@2@$00@std@@QAE@U_One_then_variadic_args_t@1@$$QAV?$allocator@D@1@@Z 00409647 f i libcpmt:cin.obj
 0001:00008656       ??$_Adl_verify_range@PADPBD@std@@YAXABQADABQBD@Z 00409656 f i libcpmt:cin.obj
 0001:00008659       ??$_Adl_verify_range@PBDPBD@std@@YAXABQBD0@Z 00409659 f i libcpmt:cin.obj
 0001:0000865c       ??$_Allocate@$07U_Default_allocate_traits@std@@$0A@@std@@YAPAXI@Z 0040965c f i libcpmt:cin.obj
 0001:00008682       ??$_Construct_in_place@PADAAPAD@std@@YAXAAPAD0@Z 00409682 f i libcpmt:cin.obj
 0001:00008691       ??$_Construct_in_place@PADABQAD@std@@YAXAAPADABQAD@Z 00409691 f i libcpmt:cin.obj
 0001:000086a0       ??$_Convert_size@I@std@@YAII@Z 004096a0 f i libcpmt:cin.obj
 0001:000086a8       ??$_Deallocate@$07$0A@@std@@YAXPAXI@Z 004096a8 f i libcpmt:cin.obj
 0001:000086d4       ??$_Destroy_in_place@PAD@std@@YAXAAPAD@Z 004096d4 f i libcpmt:cin.obj
 0001:000086d7       ??$_Fgetc@D@std@@YA_NAADPAU_iobuf@@@Z 004096d7 f i libcpmt:cin.obj
 0001:000086f7       ??$_Fputc@D@std@@YA_NDPAU_iobuf@@@Z 004096f7 f i libcpmt:cin.obj
 0001:00008711       ??$_Get_size_of_n@$00@std@@YAII@Z 00409711 f i libcpmt:cin.obj
 0001:00008719       ??$_Reallocate_for@V<lambda_1>@?1??assign@?$basic_string@DU?$char_traits@D@std@@V?$allocator@D@2@@std@@QAEAAV34@QBDI@Z@PBD@?$basic_string@DU?$char_traits@D@std@@V?$allocator@D@2@@std@@AAEAAV01@IV<lambda_1>@?1??assign@01@QAEAAV01@QBDI@Z@PBD@Z 00409719 f i libcpmt:cin.obj
 0001:00008789       ??$_Reallocate_grow_by@V<lambda_1>@?1??append@?$basic_string@DU?$char_traits@D@std@@V?$allocator@D@2@@std@@QAEAAV34@QBDI@Z@PBDI@?$basic_string@DU?$char_traits@D@std@@V?$allocator@D@2@@std@@AAEAAV01@IV<lambda_1>@?1??append@01@QAEAAV01@QBDI@Z@PBDI@Z 00409789 f i libcpmt:cin.obj
 0001:0000884a       ??$_Reallocate_grow_by@V<lambda_1>@?1??push_back@?$basic_string@DU?$char_traits@D@std@@V?$allocator@D@2@@std@@QAEXD@Z@D@?$basic_string@DU?$char_traits@D@std@@V?$allocator@D@2@@std@@AAEAAV01@IV<lambda_1>@?1??push_back@01@QAEXD@Z@D@Z 0040984a f i libcpmt:cin.obj
 0001:000088eb       ??$_Unfancy@D@std@@YAPADPAD@Z 004098eb f i libcpmt:cin.obj
 0001:000088f3       ??$_Ungetc@D@std@@YA_NABDPAU_iobuf@@@Z 004098f3 f i libcpmt:cin.obj
 0001:0000890f       ??$_Voidify_iter@PAD@std@@YAPAXPAD@Z 0040990f f i libcpmt:cin.obj
 0001:00008917       ??$_Voidify_iter@PAPAD@std@@YAPAXPAPAD@Z 00409917 f i libcpmt:cin.obj
 0001:0000891f       ??$addressof@$$CBV?$_String_val@U?$_Simple_types@D@std@@@std@@@std@@YAPBV?$_String_val@U?$_Simple_types@D@std@@@0@ABV10@@Z 0040991f f i libcpmt:cin.obj
 0001:00008927       ??$addressof@$$CBV?$codecvt@DDU_Mbstatet@@@std@@@std@@YAPBV?$codecvt@DDU_Mbstatet@@@0@ABV10@@Z 00409927 f i libcpmt:cin.obj
 0001:0000892f       ??$addressof@PAD@std@@YAPAPADAAPAD@Z 0040992f f i libcpmt:cin.obj
 0001:00008937       ??$addressof@V?$_String_val@U?$_Simple_types@D@std@@@std@@@std@@YAPAV?$_String_val@U?$_Simple_types@D@std@@@0@AAV10@@Z 00409937 f i libcpmt:cin.obj
 0001:0000893f       ??$construct_at@DABDX@std@@YAPADQADABD@Z 0040993f f i libcpmt:cin.obj
 0001:0000894e       ??$construct_at@PADAAPADX@std@@YAPAPADQAPADAAPAD@Z 0040994e f i libcpmt:cin.obj
 0001:0000895d       ??$construct_at@PADABQADX@std@@YAPAPADQAPADABQAD@Z 0040995d f i libcpmt:cin.obj
 0001:0000896c       ??$exchange@PAV_Facet_base@std@@$$T@std@@YAPAV_Facet_base@0@AAPAV10@$$QA$$T@Z 0040996c f i libcpmt:cin.obj
 0001:0000897d       ??$forward@AAPAD@std@@YAAAPADAAPAD@Z 0040997d f i libcpmt:cin.obj
 0001:00008985       ??$forward@AAPAV_Facet_base@std@@@std@@YAAAPAV_Facet_base@0@AAPAV10@@Z 00409985 f i libcpmt:cin.obj
 0001:0000898d       ??$forward@ABD@std@@YAABDABD@Z 0040998d f i libcpmt:cin.obj
 0001:00008995       ??$forward@ABQAD@std@@YAABQADABQAD@Z 00409995 f i libcpmt:cin.obj
 0001:0000899d       ??$forward@V?$allocator@D@std@@@std@@YA$$QAV?$allocator@D@0@AAV10@@Z 0040999d f i libcpmt:cin.obj
 0001:000089a5       ??$max@I@std@@YAABIABI0@Z  004099a5 f i libcpmt:cin.obj
 0001:000089ba       ??$min@H@std@@YAABHABH0@Z  004099ba f i libcpmt:cin.obj
 0001:000089cf       ??$min@I@std@@YAABIABI0@Z  004099cf f i libcpmt:cin.obj
 0001:000089e4       ??$move@AAV?$allocator@D@std@@@std@@YA$$QAV?$allocator@D@0@AAV10@@Z 004099e4 f i libcpmt:cin.obj
 0001:000089ec       ??$use_facet@V?$codecvt@DDU_Mbstatet@@@std@@@std@@YAABV?$codecvt@DDU_Mbstatet@@@0@ABVlocale@0@@Z 004099ec f i libcpmt:cin.obj
 0001:00008a81       ??0?$_String_val@U?$_Simple_types@D@std@@@std@@QAE@XZ 00409a81 f i libcpmt:cin.obj
 0001:00008a8e       ??0?$_Yarn@D@std@@QAE@XZ   00409a8e f i libcpmt:cin.obj
 0001:00008a98       ??0?$_Yarn@_W@std@@QAE@XZ  00409a98 f i libcpmt:cin.obj
 0001:00008aa4       ??0?$allocator@D@std@@QAE@XZ 00409aa4 f i libcpmt:cin.obj
 0001:00008aa7       ??0?$basic_filebuf@DU?$char_traits@D@std@@@std@@QAE@QAU_iobuf@@@Z 00409aa7 f i libcpmt:cin.obj
 0001:00008acf       ??0?$basic_ios@DU?$char_traits@D@std@@@std@@IAE@XZ 00409acf f i libcpmt:cin.obj
 0001:00008aee       ??0?$basic_istream@DU?$char_traits@D@std@@@std@@QAE@PAV?$basic_streambuf@DU?$char_traits@D@std@@@1@_N@Z 00409aee f i libcpmt:cin.obj
 0001:00008b66       ??0?$basic_streambuf@DU?$char_traits@D@std@@@std@@IAE@XZ 00409b66 f i libcpmt:cin.obj
 0001:00008bb2       ??0?$basic_string@DU?$char_traits@D@std@@V?$allocator@D@2@@std@@QAE@$$QAV01@@Z 00409bb2 f i libcpmt:cin.obj
 0001:00008c14       ??0?$basic_string@DU?$char_traits@D@std@@V?$allocator@D@2@@std@@QAE@ABV01@@Z 00409c14 f i libcpmt:cin.obj
 0001:00008c33       ??0?$basic_string@DU?$char_traits@D@std@@V?$allocator@D@2@@std@@QAE@QBD@Z 00409c33 f i libcpmt:cin.obj
 0001:00008c6a       ??0?$basic_string@DU?$char_traits@D@std@@V?$allocator@D@2@@std@@QAE@QBDI@Z 00409c6a f i libcpmt:cin.obj
 0001:00008ca4       ??0?$basic_string@DU?$char_traits@D@std@@V?$allocator@D@2@@std@@QAE@XZ 00409ca4 f i libcpmt:cin.obj
 0001:00008ce8       ??0?$codecvt@DDU_Mbstatet@@@std@@QAE@ABV_Locinfo@1@I@Z 00409ce8 f i libcpmt:cin.obj
 0001:00008d01       ??0?$ctype@D@std@@QAE@ABV_Locinfo@1@I@Z 00409d01 f i libcpmt:cin.obj
 0001:00008d37       ??0?$fpos@U_Mbstatet@@@std@@QAE@U_Mbstatet@@_J@Z 00409d37 f i libcpmt:cin.obj
 0001:00008d63       ??0?$fpos@U_Mbstatet@@@std@@QAE@_J@Z 00409d63 f i libcpmt:cin.obj
 0001:00008d85       ??0_Bxty@?$_String_val@U?$_Simple_types@D@std@@@std@@QAE@XZ 00409d85 f i libcpmt:cin.obj
 0001:00008d8b       ??0_Fake_proxy_ptr_impl@std@@QAE@ABU_Fake_allocator@1@ABU_Container_base0@1@@Z 00409d8b f i libcpmt:cin.obj
 0001:00008d90       ??0_Init_cin@std@@QAE@XZ   00409d90 f i libcpmt:cin.obj
 0001:00008db0       ??0bad_alloc@std@@AAE@QBD@Z 00409db0 f i libcpmt:cin.obj
 0001:00008dcd       ??0bad_cast@std@@QAE@XZ    00409dcd f i libcpmt:cin.obj
 0001:00008de5       ??0codecvt_base@std@@QAE@I@Z 00409de5 f i libcpmt:cin.obj
 0001:00008dfe       ??0ctype_base@std@@QAE@I@Z 00409dfe f i libcpmt:cin.obj
 0001:00008e17       ??0error_code@std@@QAE@HABVerror_category@1@@Z 00409e17 f i libcpmt:cin.obj
 0001:00008e2b       ??0error_condition@std@@QAE@HABVerror_category@1@@Z 00409e2b f i libcpmt:cin.obj
 0001:00008e3f       ??0ios_base@std@@IAE@XZ    00409e3f f i libcpmt:cin.obj
 0001:00008e56       ??0locale@std@@QAE@ABV01@@Z 00409e56 f i libcpmt:cin.obj
 0001:00008e81       ??0locale@std@@QAE@XZ      00409e81 f i libcpmt:cin.obj
 0001:00008ec6       ??0runtime_error@std@@QAE@ABV?$basic_string@DU?$char_traits@D@std@@V?$allocator@D@2@@1@@Z 00409ec6 f i libcpmt:cin.obj
 0001:00008eee       ??0system_error@std@@QAE@Verror_code@1@PBD@Z 00409eee f i libcpmt:cin.obj
 0001:00008f3b       ??1?$_Compressed_pair@V?$allocator@D@std@@V?$_String_val@U?$_Simple_types@D@std@@@2@$00@std@@QAE@XZ 00409f3b f i libcpmt:cin.obj
 0001:00008f3e       ??1?$_String_val@U?$_Simple_types@D@std@@@std@@QAE@XZ 00409f3e f i libcpmt:cin.obj
 0001:00008f41       ??1?$basic_filebuf@DU?$char_traits@D@std@@@std@@UAE@XZ 00409f41 f i libcpmt:cin.obj
 0001:00008f9e       ??1?$basic_ios@DU?$char_traits@D@std@@@std@@UAE@XZ 00409f9e f i libcpmt:cin.obj
 0001:00008fe3       ??1?$basic_istream@DU?$char_traits@D@std@@@std@@UAE@XZ 00409fe3 f i libcpmt:cin.obj
 0001:00008fff       ??1?$basic_streambuf@DU?$char_traits@D@std@@@std@@UAE@XZ 00409fff f i libcpmt:cin.obj
 0001:00009020       ??1?$codecvt@DDU_Mbstatet@@@std@@MAE@XZ 0040a020 f i libcpmt:cin.obj
 0001:00009027       ??1_Bxty@?$_String_val@U?$_Simple_types@D@std@@@std@@QAE@XZ 0040a027 f i libcpmt:cin.obj
 0001:0000902a       ??1_Iostream_error_category2@std@@UAE@XZ 0040a02a f i libcpmt:cin.obj
 0001:0000902d       ??1_System_error@std@@UAE@XZ 0040a02d f i libcpmt:cin.obj
 0001:0000903e       ??1codecvt_base@std@@UAE@XZ 0040a03e f i libcpmt:cin.obj
 0001:00009045       ??1ios_base@std@@UAE@XZ    0040a045 f i libcpmt:cin.obj
 0001:00009086       ??8error_category@std@@QBE_NABV01@@Z 0040a086 f i libcpmt:cin.obj
 0001:00009099       ??8std@@YA_NABVerror_condition@0@0@Z 0040a099 f i libcpmt:cin.obj
 0001:000090c0       ??B?$fpos@U_Mbstatet@@@std@@QBE_JXZ 0040a0c0 f i libcpmt:cin.obj
 0001:000090cc       ??Bid@locale@std@@QAEIXZ   0040a0cc f i libcpmt:cin.obj
 0001:00009101       ??R<lambda_1>@?1??append@?$basic_string@DU?$char_traits@D@std@@V?$allocator@D@2@@std@@QAEAAV23@QBDI@Z@QBE@QAD0I0I@Z 0040a101 f i libcpmt:cin.obj
 0001:00009132       ??R<lambda_1>@?1??assign@?$basic_string@DU?$char_traits@D@std@@V?$allocator@D@2@@std@@QAEAAV23@QBDI@Z@QBE@QADI0@Z 0040a132 f i libcpmt:cin.obj
 0001:00009154       ??R<lambda_1>@?1??push_back@?$basic_string@DU?$char_traits@D@std@@V?$allocator@D@2@@std@@QAEXD@Z@QBE@QADQBDID@Z 0040a154 f i libcpmt:cin.obj
 0001:0000917d       ??R?$default_delete@V_Facet_base@std@@@std@@QBEXPAV_Facet_base@1@@Z 0040a17d f i libcpmt:cin.obj
 0001:000091a1       ??_D?$basic_istream@DU?$char_traits@D@std@@@std@@QAEXXZ 0040a1a1 f i libcpmt:cin.obj
 0001:00009202       ??_E?$basic_istream@DU?$char_traits@D@std@@@std@@$4PPPPPPPM@A@AEPAXI@Z 0040a202 f i libcpmt:cin.obj
 0001:0000920a       ??_G?$basic_filebuf@DU?$char_traits@D@std@@@std@@UAEPAXI@Z 0040a20a f i libcpmt:cin.obj
 0001:0000920a       ??_E?$basic_filebuf@DU?$char_traits@D@std@@@std@@UAEPAXI@Z 0040a20a f i libcpmt:cin.obj
 0001:0000922c       ??_G?$basic_ios@DU?$char_traits@D@std@@@std@@UAEPAXI@Z 0040a22c f i libcpmt:cin.obj
 0001:0000922c       ??_E?$basic_ios@DU?$char_traits@D@std@@@std@@UAEPAXI@Z 0040a22c f i libcpmt:cin.obj
 0001:00009289       ??_E?$basic_istream@DU?$char_traits@D@std@@@std@@UAEPAXI@Z 0040a289 f i libcpmt:cin.obj
 0001:00009289       ??_G?$basic_istream@DU?$char_traits@D@std@@@std@@UAEPAXI@Z 0040a289 f i libcpmt:cin.obj
 0001:000092ae       ??_E?$basic_streambuf@DU?$char_traits@D@std@@@std@@UAEPAXI@Z 0040a2ae f i libcpmt:cin.obj
 0001:000092ae       ??_G?$basic_streambuf@DU?$char_traits@D@std@@@std@@UAEPAXI@Z 0040a2ae f i libcpmt:cin.obj
 0001:000092d0       ??_E?$codecvt@DDU_Mbstatet@@@std@@MAEPAXI@Z 0040a2d0 f i libcpmt:cin.obj
 0001:000092d0       ??_G?$codecvt@DDU_Mbstatet@@@std@@MAEPAXI@Z 0040a2d0 f i libcpmt:cin.obj
 0001:000092f3       ??_Gcodecvt_base@std@@UAEPAXI@Z 0040a2f3 f i libcpmt:cin.obj
 0001:000092f3       ??_Ecodecvt_base@std@@UAEPAXI@Z 0040a2f3 f i libcpmt:cin.obj
 0001:00009316       ??_Eios_base@std@@UAEPAXI@Z 0040a316 f i libcpmt:cin.obj
 0001:00009316       ??_Gios_base@std@@UAEPAXI@Z 0040a316 f i libcpmt:cin.obj
 0001:00009373       ??_Glocale@std@@QAEPAXI@Z  0040a373 f i libcpmt:cin.obj
 0001:00009395       ?_Adjust_manually_vector_aligned@std@@YAXAAPAXAAI@Z 0040a395 f i libcpmt:cin.obj
 0001:000093b9       ?_Alloc_proxy@_Container_base0@std@@QAEXABU_Fake_allocator@2@@Z 0040a3b9 f i libcpmt:cin.obj
 0001:000093bc       ?_Allocate@_Default_allocate_traits@std@@SAPAXI@Z 0040a3bc f i libcpmt:cin.obj
 0001:000093c5       ?_Calculate_growth@?$basic_string@DU?$char_traits@D@std@@V?$allocator@D@2@@std@@ABEII@Z 0040a3c5 f i libcpmt:cin.obj
 0001:000093df       ?_Calculate_growth@?$basic_string@DU?$char_traits@D@std@@V?$allocator@D@2@@std@@CAIIII@Z 0040a3df f i libcpmt:cin.obj
 0001:0000940f       ?_Check_offset@?$_String_val@U?$_Simple_types@D@std@@@std@@QBEXI@Z 0040a40f f i libcpmt:cin.obj
 0001:00009424       ?_Clamp_suffix_size@?$_String_val@U?$_Simple_types@D@std@@@std@@QBEIII@Z 0040a424 f i libcpmt:cin.obj
 0001:00009439       ?_Construct_lv_contents@?$basic_string@DU?$char_traits@D@std@@V?$allocator@D@2@@std@@AAEXABV12@@Z 0040a439 f i libcpmt:cin.obj
 0001:000094a1       ?_Endwrite@?$basic_filebuf@DU?$char_traits@D@std@@@std@@IAE_NXZ 0040a4a1 f i libcpmt:cin.obj
 0001:00009550       ?_Erase_noexcept@?$basic_string@DU?$char_traits@D@std@@V?$allocator@D@2@@std@@AAEAAV12@II@Z 0040a550 f i libcpmt:cin.obj
 0001:00009590       ?_Get_first@?$_Compressed_pair@U?$default_delete@V_Facet_base@std@@@std@@PAV_Facet_base@2@$00@std@@QAEAAU?$default_delete@V_Facet_base@std@@@2@XZ 0040a590 f i libcpmt:cin.obj
 0001:00009593       ?_Get_first@?$_Compressed_pair@V?$allocator@D@std@@V?$_String_val@U?$_Simple_types@D@std@@@2@$00@std@@QAEAAV?$allocator@D@2@XZ 0040a593 f i libcpmt:cin.obj
 0001:00009596       ?_Get_first@?$_Compressed_pair@V?$allocator@D@std@@V?$_String_val@U?$_Simple_types@D@std@@@2@$00@std@@QBEABV?$allocator@D@2@XZ 0040a596 f i libcpmt:cin.obj
 0001:00009599       ?_Getal@?$basic_string@DU?$char_traits@D@std@@V?$allocator@D@2@@std@@AAEAAV?$allocator@D@2@XZ 0040a599 f i libcpmt:cin.obj
 0001:0000959c       ?_Getal@?$basic_string@DU?$char_traits@D@std@@V?$allocator@D@2@@std@@ABEABV?$allocator@D@2@XZ 0040a59c f i libcpmt:cin.obj
 0001:0000959f       ?_Getcat@?$codecvt@DDU_Mbstatet@@@std@@SAIPAPBVfacet@locale@2@PBV42@@Z 0040a59f f i libcpmt:cin.obj
 0001:00009607       ?_Getcat@?$ctype@D@std@@SAIPAPBVfacet@locale@2@PBV42@@Z 0040a607 f i libcpmt:cin.obj
 0001:0000966d       ?_Getctype@_Locinfo@std@@QBE?AU_Ctypevec@@XZ 0040a66d f i libcpmt:cin.obj
 0001:00009690       ?_Getfacet@locale@std@@QBEPBVfacet@12@I@Z 0040a690 f i libcpmt:cin.obj
 0001:000096d1       ?_Gnavail@?$basic_streambuf@DU?$char_traits@D@std@@@std@@IBE_JXZ 0040a6d1 f i libcpmt:cin.obj
 0001:000096e3       ?_Gndec@?$basic_streambuf@DU?$char_traits@D@std@@@std@@IAEPADXZ 0040a6e3 f i libcpmt:cin.obj
 0001:000096f1       ?_Gninc@?$basic_streambuf@DU?$char_traits@D@std@@@std@@IAEPADXZ 0040a6f1 f i libcpmt:cin.obj
 0001:00009701       ?_Init@?$basic_filebuf@DU?$char_traits@D@std@@@std@@IAEXPAU_iobuf@@W4_Initfl@12@@Z 0040a701 f i libcpmt:cin.obj
 0001:0000977e       ?_Init@?$basic_streambuf@DU?$char_traits@D@std@@@std@@IAEXPAPAD0PAH001@Z 0040a77e f i libcpmt:cin.obj
 0001:000097a9       ?_Init@?$basic_streambuf@DU?$char_traits@D@std@@@std@@IAEXXZ 0040a7a9 f i libcpmt:cin.obj
 0001:000097e6       ?_Init@?$codecvt@DDU_Mbstatet@@@std@@IAEXABV_Locinfo@2@@Z 0040a7e6 f i libcpmt:cin.obj
 0001:000097e9       ?_Init@?$ctype@D@std@@IAEXABV_Locinfo@2@@Z 0040a7e9 f i libcpmt:cin.obj
 0001:0000980c       ?_Init@ios_base@std@@IAEXXZ 0040a80c f i libcpmt:cin.obj
 0001:00009877       ?_Initcvt@?$basic_filebuf@DU?$char_traits@D@std@@@std@@IAEXABV?$codecvt@DDU_Mbstatet@@@2@@Z 0040a877 f i libcpmt:cin.obj
 0001:000098a2       ?_Large_string_engaged@?$_String_val@U?$_Simple_types@D@std@@@std@@QBE_NXZ 0040a8a2 f i libcpmt:cin.obj
 0001:000098ab       ?_Lock@?$basic_filebuf@DU?$char_traits@D@std@@@std@@UAEXXZ 0040a8ab f i libcpmt:cin.obj
 0001:000098bb       ?_Lock@?$basic_streambuf@DU?$char_traits@D@std@@@std@@UAEXXZ 0040a8bb f i libcpmt:cin.obj
 0001:000098be       ?_Makestr@_System_error@std@@CA?AV?$basic_string@DU?$char_traits@D@std@@V?$allocator@D@2@@2@Verror_code@2@V32@@Z 0040a8be f i libcpmt:cin.obj
 0001:00009931       ?_Memcpy_val_from@?$basic_string@DU?$char_traits@D@std@@V?$allocator@D@2@@std@@AAEXABV12@@Z 0040a931 f i libcpmt:cin.obj
 0001:00009946       ?_Myptr@?$_String_val@U?$_Simple_types@D@std@@@std@@QAEPADXZ 0040a946 f i libcpmt:cin.obj
 0001:00009951       ?_Myptr@?$_String_val@U?$_Simple_types@D@std@@@std@@QBEPBDXZ 0040a951 f i libcpmt:cin.obj
 0001:0000995c       ?_Orphan_all@_Container_base0@std@@QAEXXZ 0040a95c f i libcpmt:cin.obj
 0001:0000995f       ?_Pnavail@?$basic_streambuf@DU?$char_traits@D@std@@@std@@IBE_JXZ 0040a95f f i libcpmt:cin.obj
 0001:00009971       ?_Pninc@?$basic_streambuf@DU?$char_traits@D@std@@@std@@IAEPADXZ 0040a971 f i libcpmt:cin.obj
 0001:00009981       ?_Release@_Fake_proxy_ptr_impl@std@@QAEXXZ 0040a981 f i libcpmt:cin.obj
 0001:00009984       ?_Reset_back@?$basic_filebuf@DU?$char_traits@D@std@@@std@@AAEXXZ 0040a984 f i libcpmt:cin.obj
 0001:000099a7       ?_Set_back@?$basic_filebuf@DU?$char_traits@D@std@@@std@@AAEXXZ 0040a9a7 f i libcpmt:cin.obj
 0001:000099e4       ?_Swap_proxy_and_iterators@?$basic_string@DU?$char_traits@D@std@@V?$allocator@D@2@@std@@AAEXAAV12@@Z 0040a9e4 f i libcpmt:cin.obj
 0001:000099e7       ?_Swap_proxy_and_iterators@_Container_base0@std@@QAEXAAU12@@Z 0040a9e7 f i libcpmt:cin.obj
 0001:000099ea       ?_Take_contents@?$basic_string@DU?$char_traits@D@std@@V?$allocator@D@2@@std@@AAEXAAV12@@Z 0040a9ea f i libcpmt:cin.obj
 0001:00009a3e       ?_Throw_bad_cast@std@@YAXXZ 0040aa3e f i libcpmt:cin.obj
 0001:00009a5b       ?_Tidy@?$_Yarn@_W@std@@AAEXXZ 0040aa5b f i libcpmt:cin.obj
 0001:00009a70       ?_Tidy@?$ctype@D@std@@IAEXXZ 0040aa70 f i libcpmt:cin.obj
 0001:00009a9a       ?_Tidy_deallocate@?$basic_string@DU?$char_traits@D@std@@V?$allocator@D@2@@std@@AAEXXZ 0040aa9a f i libcpmt:cin.obj
 0001:00009ac0       ?_Tidy_init@?$basic_string@DU?$char_traits@D@std@@V?$allocator@D@2@@std@@AAEXXZ 0040aac0 f i libcpmt:cin.obj
 0001:00009b02       ?_Unlock@?$basic_filebuf@DU?$char_traits@D@std@@@std@@UAEXXZ 0040ab02 f i libcpmt:cin.obj
 0001:00009b12       ?_Unlock@?$basic_streambuf@DU?$char_traits@D@std@@@std@@UAEXXZ 0040ab12 f i libcpmt:cin.obj
 0001:00009b15       ?_Xran@?$_String_val@U?$_Simple_types@D@std@@@std@@SAXXZ 0040ab15 f i libcpmt:cin.obj
 0001:00009b20       ?allocate@?$allocator@D@std@@QAEPADI@Z 0040ab20 f i libcpmt:cin.obj
 0001:00009b30       ?always_noconv@codecvt_base@std@@QBE_NXZ 0040ab30 f i libcpmt:cin.obj
 0001:00009b48       ?append@?$basic_string@DU?$char_traits@D@std@@V?$allocator@D@2@@std@@QAEAAV12@ABV12@@Z 0040ab48 f i libcpmt:cin.obj
 0001:00009b64       ?append@?$basic_string@DU?$char_traits@D@std@@V?$allocator@D@2@@std@@QAEAAV12@QBD@Z 0040ab64 f i libcpmt:cin.obj
 0001:00009b85       ?assign@?$_Char_traits@DH@std@@SAPADQADID@Z 0040ab85 f i libcpmt:cin.obj
 0001:00009ba4       ?assign@?$_Narrow_char_traits@DH@std@@SAPADQADID@Z 0040aba4 f i libcpmt:cin.obj
 0001:00009bbc       ?assign@?$_Narrow_char_traits@DH@std@@SAXAADABD@Z 0040abbc f i libcpmt:cin.obj
 0001:00009bcb       ?assign@?$basic_string@DU?$char_traits@D@std@@V?$allocator@D@2@@std@@QAEAAV12@QBD@Z 0040abcb f i libcpmt:cin.obj
 0001:00009bec       ?c_str@?$basic_string@DU?$char_traits@D@std@@V?$allocator@D@2@@std@@QBEPBDXZ 0040abec f i libcpmt:cin.obj
 0001:00009bf7       ?c_str@locale@std@@QBEPBDXZ 0040abf7 f i libcpmt:cin.obj
 0001:00009c0f       ?category@error_code@std@@QBEABVerror_category@2@XZ 0040ac0f f i libcpmt:cin.obj
 0001:00009c13       ?category@error_condition@std@@QBEABVerror_category@2@XZ 0040ac13 f i libcpmt:cin.obj
 0001:00009c17       ?clear@?$basic_ios@DU?$char_traits@D@std@@@std@@QAEXH_N@Z 0040ac17 f i libcpmt:cin.obj
 0001:00009c37       ?clear@ios_base@std@@QAEXH@Z 0040ac37 f i libcpmt:cin.obj
 0001:00009c48       ?close@?$basic_filebuf@DU?$char_traits@D@std@@@std@@QAEPAV12@XZ 0040ac48 f i libcpmt:cin.obj
 0001:00009ca3       ?copy@?$_Char_traits@DH@std@@SAPADQADQBDI@Z 0040aca3 f i libcpmt:cin.obj
 0001:00009cbc       ?data@?$basic_string@DU?$char_traits@D@std@@V?$allocator@D@2@@std@@QAEPADXZ 0040acbc f i libcpmt:cin.obj
 0001:00009cc7       ?deallocate@?$allocator@D@std@@QAEXQADI@Z 0040acc7 f i libcpmt:cin.obj
 0001:00009cdb       ?do_always_noconv@?$codecvt@DDU_Mbstatet@@@std@@MBE_NXZ 0040acdb f i libcpmt:cin.obj
 0001:00009cde       ?do_always_noconv@codecvt_base@std@@MBE_NXZ 0040acde f i libcpmt:cin.obj
 0001:00009ce1       ?do_encoding@codecvt_base@std@@MBEHXZ 0040ace1 f i libcpmt:cin.obj
 0001:00009ce5       ?do_in@?$codecvt@DDU_Mbstatet@@@std@@MBEHAAU_Mbstatet@@PBD1AAPBDPAD3AAPAD@Z 0040ace5 f i libcpmt:cin.obj
 0001:00009cff       ?do_length@?$codecvt@DDU_Mbstatet@@@std@@MBEHAAU_Mbstatet@@PBD1I@Z 0040acff f i libcpmt:cin.obj
 0001:00009d14       ?do_max_length@codecvt_base@std@@MBEHXZ 0040ad14 f i libcpmt:cin.obj
 0001:00009d18       ?do_out@?$codecvt@DDU_Mbstatet@@@std@@MBEHAAU_Mbstatet@@PBD1AAPBDPAD3AAPAD@Z 0040ad18 f i libcpmt:cin.obj
 0001:00009d32       ?do_unshift@?$codecvt@DDU_Mbstatet@@@std@@MBEHAAU_Mbstatet@@PAD1AAPAD@Z 0040ad32 f i libcpmt:cin.obj
 0001:00009d44       ?eback@?$basic_streambuf@DU?$char_traits@D@std@@@std@@IBEPADXZ 0040ad44 f i libcpmt:cin.obj
 0001:00009d4a       ?egptr@?$basic_streambuf@DU?$char_traits@D@std@@@std@@IBEPADXZ 0040ad4a f i libcpmt:cin.obj
 0001:00009d55       ?empty@?$basic_string@DU?$char_traits@D@std@@V?$allocator@D@2@@std@@QBE_NXZ 0040ad55 f i libcpmt:cin.obj
 0001:00009d5d       ?eof@?$_Narrow_char_traits@DH@std@@SAHXZ 0040ad5d f i libcpmt:cin.obj
 0001:00009d61       ?epptr@?$basic_streambuf@DU?$char_traits@D@std@@@std@@IBEPADXZ 0040ad61 f i libcpmt:cin.obj
 0001:00009d6c       ?eq_int_type@?$_Narrow_char_traits@DH@std@@SA_NABH0@Z 0040ad6c f i libcpmt:cin.obj
 0001:00009d7e       ?erase@?$basic_string@DU?$char_traits@D@std@@V?$allocator@D@2@@std@@QAEAAV12@II@Z 0040ad7e f i libcpmt:cin.obj
 0001:00009d9c       ?front@?$basic_string@DU?$char_traits@D@std@@V?$allocator@D@2@@std@@QAEAADXZ 0040ad9c f i libcpmt:cin.obj
 0001:00009da7       ?gbump@?$basic_streambuf@DU?$char_traits@D@std@@@std@@IAEXH@Z 0040ada7 f i libcpmt:cin.obj
 0001:00009dbb       ?getloc@ios_base@std@@QBE?AVlocale@2@XZ 0040adbb f i libcpmt:cin.obj
 0001:00009dd1       ?gptr@?$basic_streambuf@DU?$char_traits@D@std@@@std@@IBEPADXZ 0040add1 f i libcpmt:cin.obj
 0001:00009dd7       ?imbue@?$basic_filebuf@DU?$char_traits@D@std@@@std@@MAEXABVlocale@2@@Z 0040add7 f i libcpmt:cin.obj
 0001:00009df3       ?imbue@?$basic_streambuf@DU?$char_traits@D@std@@@std@@MAEXABVlocale@2@@Z 0040adf3 f i libcpmt:cin.obj
 0001:00009df6       ?in@?$codecvt@DDU_Mbstatet@@@std@@QBEHAAU_Mbstatet@@PBD1AAPBDPAD3AAPAD@Z 0040adf6 f i libcpmt:cin.obj
 0001:00009e29       ?init@?$basic_ios@DU?$char_traits@D@std@@@std@@IAEXPAV?$basic_streambuf@DU?$char_traits@D@std@@@2@_N@Z 0040ae29 f i libcpmt:cin.obj
 0001:00009e72       ?iostream_category@std@@YAABVerror_category@1@XZ 0040ae72 f i libcpmt:cin.obj
 0001:00009e78       ?is_constant_evaluated@std@@YA_NXZ 0040ae78 f i libcpmt:cin.obj
 0001:00009e7b       ?length@?$_Narrow_char_traits@DH@std@@SAIQBD@Z 0040ae7b f i libcpmt:cin.obj
 0001:00009e8f       ?max@?$numeric_limits@H@std@@SAHXZ 0040ae8f f i libcpmt:cin.obj
 0001:00009e95       ?max_size@?$_Default_allocator_traits@V?$allocator@D@std@@@std@@SAIABV?$allocator@D@2@@Z 0040ae95 f i libcpmt:cin.obj
 0001:00009e99       ?max_size@?$basic_string@DU?$char_traits@D@std@@V?$allocator@D@2@@std@@QBEIXZ 0040ae99 f i libcpmt:cin.obj
 0001:00009e9f       ?message@error_code@std@@QBE?AV?$basic_string@DU?$char_traits@D@std@@V?$allocator@D@2@@2@XZ 0040ae9f f i libcpmt:cin.obj
 0001:00009ec7       ?move@?$_Char_traits@DH@std@@SAPADQADQBDI@Z 0040aec7 f i libcpmt:cin.obj
 0001:00009ee0       ?not_eof@?$_Narrow_char_traits@DH@std@@SAHABH@Z 0040aee0 f i libcpmt:cin.obj
 0001:00009ef3       ?out@?$codecvt@DDU_Mbstatet@@@std@@QBEHAAU_Mbstatet@@PBD1AAPBDPAD3AAPAD@Z 0040aef3 f i libcpmt:cin.obj
 0001:00009f26       ?overflow@?$basic_filebuf@DU?$char_traits@D@std@@@std@@MAEHH@Z 0040af26 f i libcpmt:cin.obj
 0001:0000a030       ?overflow@?$basic_streambuf@DU?$char_traits@D@std@@@std@@MAEHH@Z 0040b030 f i libcpmt:cin.obj
 0001:0000a036       ?pbackfail@?$basic_filebuf@DU?$char_traits@D@std@@@std@@MAEHH@Z 0040b036 f i libcpmt:cin.obj
 0001:0000a0b8       ?pbackfail@?$basic_streambuf@DU?$char_traits@D@std@@@std@@MAEHH@Z 0040b0b8 f i libcpmt:cin.obj
 0001:0000a0be       ?pbump@?$basic_streambuf@DU?$char_traits@D@std@@@std@@IAEXH@Z 0040b0be f i libcpmt:cin.obj
 0001:0000a0d2       ?pptr@?$basic_streambuf@DU?$char_traits@D@std@@@std@@IBEPADXZ 0040b0d2 f i libcpmt:cin.obj
 0001:0000a0d8       ?push_back@?$basic_string@DU?$char_traits@D@std@@V?$allocator@D@2@@std@@QAEXD@Z 0040b0d8 f i libcpmt:cin.obj
 0001:0000a110       ?rdstate@ios_base@std@@QBEHXZ 0040b110 f i libcpmt:cin.obj
 0001:0000a114       ?release@?$unique_ptr@V_Facet_base@std@@U?$default_delete@V_Facet_base@std@@@2@@std@@QAEPAV_Facet_base@2@XZ 0040b114 f i libcpmt:cin.obj
 0001:0000a11a       ?seekoff@?$basic_filebuf@DU?$char_traits@D@std@@@std@@MAE?AV?$fpos@U_Mbstatet@@@2@_JHH@Z 0040b11a f i libcpmt:cin.obj
 0001:0000a1db       ?seekoff@?$basic_streambuf@DU?$char_traits@D@std@@@std@@MAE?AV?$fpos@U_Mbstatet@@@2@_JHH@Z 0040b1db f i libcpmt:cin.obj
 0001:0000a1fa       ?seekpos@?$basic_filebuf@DU?$char_traits@D@std@@@std@@MAE?AV?$fpos@U_Mbstatet@@@2@V32@H@Z 0040b1fa f i libcpmt:cin.obj
 0001:0000a28a       ?seekpos@?$basic_streambuf@DU?$char_traits@D@std@@@std@@MAE?AV?$fpos@U_Mbstatet@@@2@V32@H@Z 0040b28a f i libcpmt:cin.obj
 0001:0000a2a9       ?select_on_container_copy_construction@?$_Default_allocator_traits@V?$allocator@D@std@@@std@@SA?AV?$allocator@D@2@ABV32@@Z 0040b2a9 f i libcpmt:cin.obj
 0001:0000a2b1       ?setbuf@?$basic_filebuf@DU?$char_traits@D@std@@@std@@MAEPAV?$basic_streambuf@DU?$char_traits@D@std@@@2@PAD_J@Z 0040b2b1 f i libcpmt:cin.obj
 0001:0000a2ff       ?setbuf@?$basic_streambuf@DU?$char_traits@D@std@@@std@@MAEPAV12@PAD_J@Z 0040b2ff f i libcpmt:cin.obj
 0001:0000a304       ?setg@?$basic_streambuf@DU?$char_traits@D@std@@@std@@IAEXPAD00@Z 0040b304 f i libcpmt:cin.obj
 0001:0000a327       ?setp@?$basic_streambuf@DU?$char_traits@D@std@@@std@@IAEXPAD0@Z 0040b327 f i libcpmt:cin.obj
 0001:0000a347       ?showmanyc@?$basic_streambuf@DU?$char_traits@D@std@@@std@@MAE_JXZ 0040b347 f i libcpmt:cin.obj
 0001:0000a34c       ?size@?$basic_string@DU?$char_traits@D@std@@V?$allocator@D@2@@std@@QBEIXZ 0040b34c f i libcpmt:cin.obj
 0001:0000a350       ?state@?$fpos@U_Mbstatet@@@std@@QBE?AU_Mbstatet@@XZ 0040b350 f i libcpmt:cin.obj
 0001:0000a365       ?sync@?$basic_filebuf@DU?$char_traits@D@std@@@std@@MAEHXZ 0040b365 f i libcpmt:cin.obj
 0001:0000a3a1       ?sync@?$basic_streambuf@DU?$char_traits@D@std@@@std@@MAEHXZ 0040b3a1 f i libcpmt:cin.obj
 0001:0000a3a4       ?tie@?$basic_ios@DU?$char_traits@D@std@@@std@@QAEPAV?$basic_ostream@DU?$char_traits@D@std@@@2@PAV32@@Z 0040b3a4 f i libcpmt:cin.obj
 0001:0000a3b4       ?to_char_type@?$_Narrow_char_traits@DH@std@@SADABH@Z 0040b3b4 f i libcpmt:cin.obj
 0001:0000a3be       ?to_int_type@?$_Narrow_char_traits@DH@std@@SAHABD@Z 0040b3be f i libcpmt:cin.obj
 0001:0000a3c9       ?uflow@?$basic_filebuf@DU?$char_traits@D@std@@@std@@MAEHXZ 0040b3c9 f i libcpmt:cin.obj
 0001:0000a579       ?uflow@?$basic_streambuf@DU?$char_traits@D@std@@@std@@MAEHXZ 0040b579 f i libcpmt:cin.obj
 0001:0000a5ac       ?underflow@?$basic_filebuf@DU?$char_traits@D@std@@@std@@MAEHXZ 0040b5ac f i libcpmt:cin.obj
 0001:0000a5fc       ?underflow@?$basic_streambuf@DU?$char_traits@D@std@@@std@@MAEHXZ 0040b5fc f i libcpmt:cin.obj
 0001:0000a600       ?unshift@?$codecvt@DDU_Mbstatet@@@std@@QBEHAAU_Mbstatet@@PAD1AAPAD@Z 0040b600 f i libcpmt:cin.obj
 0001:0000a62a       ?value@error_code@std@@QBEHXZ 0040b62a f i libcpmt:cin.obj
 0001:0000a62d       ?value@error_condition@std@@QBEHXZ 0040b62d f i libcpmt:cin.obj
 0001:0000a630       ?widen@?$basic_ios@DU?$char_traits@D@std@@@std@@QBEDD@Z 0040b630 f i libcpmt:cin.obj
 0001:0000a67f       ?widen@?$ctype@D@std@@QBEDD@Z 0040b67f f i libcpmt:cin.obj
 0001:0000a6a0       ?xsgetn@?$basic_filebuf@DU?$char_traits@D@std@@@std@@MAE_JPAD_J@Z 0040b6a0 f i libcpmt:cin.obj
 0001:0000a788       ?xsgetn@?$basic_streambuf@DU?$char_traits@D@std@@@std@@MAE_JPAD_J@Z 0040b788 f i libcpmt:cin.obj
 0001:0000a877       ?xsputn@?$basic_filebuf@DU?$char_traits@D@std@@@std@@MAE_JPBD_J@Z 0040b877 f i libcpmt:cin.obj
 0001:0000a95c       ?xsputn@?$basic_streambuf@DU?$char_traits@D@std@@@std@@MAE_JPBD_J@Z 0040b95c f i libcpmt:cin.obj
 0001:0000aa47       ??0?$basic_ostream@DU?$char_traits@D@std@@@std@@QAE@PAV?$basic_streambuf@DU?$char_traits@D@std@@@1@_N@Z 0040ba47 f i libcpmt:cout.obj
 0001:0000aab9       ??0_Init_cout@std@@QAE@XZ  0040bab9 f i libcpmt:cout.obj
 0001:0000aaf9       ??1?$basic_ostream@DU?$char_traits@D@std@@@std@@UAE@XZ 0040baf9 f i libcpmt:cout.obj
 0001:0000ab15       ??_D?$basic_ostream@DU?$char_traits@D@std@@@std@@QAEXXZ 0040bb15 f i libcpmt:cout.obj
 0001:0000ab76       ??_E?$basic_ostream@DU?$char_traits@D@std@@@std@@$4PPPPPPPM@A@AEPAXI@Z 0040bb76 f i libcpmt:cout.obj
 0001:0000ab7e       ??_E?$basic_ostream@DU?$char_traits@D@std@@@std@@UAEPAXI@Z 0040bb7e f i libcpmt:cout.obj
 0001:0000ab7e       ??_G?$basic_ostream@DU?$char_traits@D@std@@@std@@UAEPAXI@Z 0040bb7e f i libcpmt:cout.obj
 0001:0000aba3       __Mtxdst                   0040bba3 f   libcpmt:xmtx.obj
 0001:0000abb1       __Mtxinit                  0040bbb1 f   libcpmt:xmtx.obj
 0001:0000abc6       __Mtxlock                  0040bbc6 f   libcpmt:xmtx.obj
 0001:0000abd4       __Mtxunlock                0040bbd4 f   libcpmt:xmtx.obj
 0001:0000ae9c       ___crtAcquireSRWLockExclusive 0040be9c f   libcpmt:winapisupp.obj
 0001:0000aeaa       ___crtCloseThreadpoolTimer 0040beaa f   libcpmt:winapisupp.obj
 0001:0000aeb8       ___crtCloseThreadpoolWait  0040beb8 f   libcpmt:winapisupp.obj
 0001:0000aec6       ___crtCloseThreadpoolWork  0040bec6 f   libcpmt:winapisupp.obj
 0001:0000aed4       ___crtCreateEventExW       0040bed4 f   libcpmt:winapisupp.obj
 0001:0000aeeb       ___crtCreateSemaphoreExW   0040beeb f   libcpmt:winapisupp.obj
 0001:0000af08       ___crtCreateSymbolicLinkW  0040bf08 f   libcpmt:winapisupp.obj
 0001:0000af1c       ___crtCreateThreadpoolTimer 0040bf1c f   libcpmt:winapisupp.obj
 0001:0000af30       ___crtCreateThreadpoolWait 0040bf30 f   libcpmt:winapisupp.obj
 0001:0000af44       ___crtCreateThreadpoolWork 0040bf44 f   libcpmt:winapisupp.obj
 0001:0000af58       ___crtFlsAlloc             0040bf58 f   libcpmt:winapisupp.obj
 0001:0000af66       ___crtFlsFree              0040bf66 f   libcpmt:winapisupp.obj
 0001:0000af74       ___crtFlsGetValue          0040bf74 f   libcpmt:winapisupp.obj
 0001:0000af82       ___crtFlsSetValue          0040bf82 f   libcpmt:winapisupp.obj
 0001:0000af93       ___crtFlushProcessWriteBuffers 0040bf93 f   libcpmt:winapisupp.obj
 0001:0000af99       ___crtFreeLibraryWhenCallbackReturns 0040bf99 f   libcpmt:winapisupp.obj
 0001:0000afaa       ___crtGetCurrentProcessorNumber 0040bfaa f   libcpmt:winapisupp.obj
 0001:0000afb0       ___crtGetFileInformationByHandleEx 0040bfb0 f   libcpmt:winapisupp.obj
 0001:0000afc7       ___crtGetSystemTimePreciseAsFileTime 0040bfc7 f   libcpmt:winapisupp.obj
 0001:0000afed       ___crtGetTickCount64       0040bfed f   libcpmt:winapisupp.obj
 0001:0000aff3       ___crtInitOnceExecuteOnce  0040bff3 f   libcpmt:winapisupp.obj
 0001:0000b00a       ___crtInitializeConditionVariable 0040c00a f   libcpmt:winapisupp.obj
 0001:0000b018       ___crtInitializeCriticalSectionEx 0040c018 f   libcpmt:winapisupp.obj
 0001:0000b02c       ___crtInitializeSRWLock    0040c02c f   libcpmt:winapisupp.obj
 0001:0000b03a       ___crtIsPackagedApp        0040c03a f   libcpmt:winapisupp.obj
 0001:0000b059       ___crtReleaseSRWLockExclusive 0040c059 f   libcpmt:winapisupp.obj
 0001:0000b067       ___crtSetFileInformationByHandle 0040c067 f   libcpmt:winapisupp.obj
 0001:0000b07e       ___crtSetThreadpoolTimer   0040c07e f   libcpmt:winapisupp.obj
 0001:0000b095       ___crtSetThreadpoolWait    0040c095 f   libcpmt:winapisupp.obj
 0001:0000b0a9       ___crtSleepConditionVariableCS 0040c0a9 f   libcpmt:winapisupp.obj
 0001:0000b0bd       ___crtSleepConditionVariableSRW 0040c0bd f   libcpmt:winapisupp.obj
 0001:0000b0d4       ___crtSubmitThreadpoolWork 0040c0d4 f   libcpmt:winapisupp.obj
 0001:0000b0e2       ___crtTryAcquireSRWLockExclusive 0040c0e2 f   libcpmt:winapisupp.obj
 0001:0000b0fc       ___crtWaitForThreadpoolTimerCallbacks 0040c0fc f   libcpmt:winapisupp.obj
 0001:0000b10d       ___crtWakeAllConditionVariable 0040c10d f   libcpmt:winapisupp.obj
 0001:0000b11b       ___crtWakeConditionVariable 0040c11b f   libcpmt:winapisupp.obj
 0001:0000b129       ___crt_IsPackagedAppHelper 0040c129 f   libcpmt:winapisupp.obj
 0001:0000b16b       ___std_get_string_size_without_trailing_whitespace@8 0040c16b f   libcpmt:syserror_import_lib.obj
 0001:0000b18f       ___std_system_error_allocate_message@8 0040c18f f   libcpmt:syserror_import_lib.obj
 0001:0000b1b8       ___std_system_error_deallocate_message@4 0040c1b8 f   libcpmt:syserror_import_lib.obj
 0001:0000b1be       ??$?0U?$integral_constant@_N$00@std@@@_Unused_parameter@std@@QAE@$$QAU?$integral_constant@_N$00@1@@Z 0040c1be f i libcpmt:locale.obj
 0001:0000b1c3       ??$_Adl_verify_range@V?$istreambuf_iterator@DU?$char_traits@D@std@@@std@@V12@@std@@YAXABV?$istreambuf_iterator@DU?$char_traits@D@std@@@0@0@Z 0040c1c3 f i libcpmt:locale.obj
 0001:0000b1c6       ??$_Find_unchecked1@PBDD@std@@YAPBDPBDQBDABDU?$integral_constant@_N$00@0@@Z 0040c1c6 f i libcpmt:locale.obj
 0001:0000b1eb       ??$_Find_unchecked1@PBDD@std@@YAPBDPBDQBDABDU?$integral_constant@_N$0A@@0@@Z 0040c1eb f i libcpmt:locale.obj
 0001:0000b209       ??$_Find_unchecked@PBDD@std@@YAPBDQBD0ABD@Z 0040c209 f i libcpmt:locale.obj
 0001:0000b227       ??$_Float_put_desired_precision@N@std@@YAH_JH@Z 0040c227 f i libcpmt:locale.obj
 0001:0000b258       ??$_Float_put_desired_precision@O@std@@YAH_JH@Z 0040c258 f i libcpmt:locale.obj
 0001:0000b289       ??$_Getvals@D@?$numpunct@D@std@@IAEXDPBUlconv@@U_Cvtvec@@@Z 0040c289 f i libcpmt:locale.obj
 0001:0000b2a2       ??$_Pocma@V?$allocator@D@std@@@std@@YAXAAV?$allocator@D@0@0@Z 0040c2a2 f i libcpmt:locale.obj
 0001:0000b2a5       ??$_Reallocate_for@V<lambda_1>@?1??assign@?$basic_string@DU?$char_traits@D@std@@V?$allocator@D@2@@std@@QAEAAV34@ID@Z@D@?$basic_string@DU?$char_traits@D@std@@V?$allocator@D@2@@std@@AAEAAV01@IV<lambda_1>@?1??assign@01@QAEAAV01@ID@Z@D@Z 0040c2a5 f i libcpmt:locale.obj
 0001:0000b317       ??$_Reallocate_grow_by@V<lambda_1>@?1??append@?$basic_string@DU?$char_traits@D@std@@V?$allocator@D@2@@std@@QAEAAV34@ID@Z@ID@?$basic_string@DU?$char_traits@D@std@@V?$allocator@D@2@@std@@AAEAAV01@IV<lambda_1>@?1??append@01@QAEAAV01@ID@Z@ID@Z 0040c317 f i libcpmt:locale.obj
 0001:0000b3df       ??$_Reallocate_grow_by@V<lambda_1>@?1??insert@?$basic_string@DU?$char_traits@D@std@@V?$allocator@D@2@@std@@QAEAAV34@IID@Z@IID@?$basic_string@DU?$char_traits@D@std@@V?$allocator@D@2@@std@@AAEAAV01@IV<lambda_1>@?1??insert@01@QAEAAV01@IID@Z@IID@Z 0040c3df f i libcpmt:locale.obj
 0001:0000b471       ??$_To_address@PBD@std@@YA?A_PABQBD@Z 0040c471 f i libcpmt:locale.obj
 0001:0000b47b       ??$_Within_limits@D@std@@YA_NABDU?$integral_constant@_N$00@0@1U_Unused_parameter@0@U?$integral_constant@_N$0A@@0@@Z 0040c47b f i libcpmt:locale.obj
 0001:0000b47e       ??$_Within_limits@PBDD@std@@YA_NABQBDABD@Z 0040c47e f i libcpmt:locale.obj
 0001:0000b481       ??$addressof@V?$basic_string@DU?$char_traits@D@std@@V?$allocator@D@2@@std@@@std@@YAPAV?$basic_string@DU?$char_traits@D@std@@V?$allocator@D@2@@0@AAV10@@Z 0040c481 f i libcpmt:locale.obj
 0001:0000b489       ??$begin@$$CBD$0BL@@std@@YAPBDAAY0BL@$$CBD@Z 0040c489 f i libcpmt:locale.obj
 0001:0000b491       ??$begin@$$CBD$0BN@@std@@YAPBDAAY0BN@$$CBD@Z 0040c491 f i libcpmt:locale.obj
 0001:0000b499       ??$begin@$$CBD$0P@@std@@YAPBDAAY0P@$$CBD@Z 0040c499 f i libcpmt:locale.obj
 0001:0000b4a1       ??$end@$$CBD$0BL@@std@@YAPBDAAY0BL@$$CBD@Z 0040c4a1 f i libcpmt:locale.obj
 0001:0000b4ac       ??$end@$$CBD$0BN@@std@@YAPBDAAY0BN@$$CBD@Z 0040c4ac f i libcpmt:locale.obj
 0001:0000b4b7       ??$end@$$CBD$0P@@std@@YAPBDAAY0P@$$CBD@Z 0040c4b7 f i libcpmt:locale.obj
 0001:0000b4c2       ??$move@AAV?$basic_string@DU?$char_traits@D@std@@V?$allocator@D@2@@std@@@std@@YA$$QAV?$basic_string@DU?$char_traits@D@std@@V?$allocator@D@2@@0@AAV10@@Z 0040c4c2 f i libcpmt:locale.obj
 0001:0000b4ca       ??$to_address@$$CBD@std@@YAPBDQBD@Z 0040c4ca f i libcpmt:locale.obj
 0001:0000b4d2       ??$use_facet@V?$num_put@DV?$ostreambuf_iterator@DU?$char_traits@D@std@@@std@@@std@@@std@@YAABV?$num_put@DV?$ostreambuf_iterator@DU?$char_traits@D@std@@@std@@@0@ABVlocale@0@@Z 0040c4d2 f i libcpmt:locale.obj
 0001:0000b567       ??0?$num_get@DV?$istreambuf_iterator@DU?$char_traits@D@std@@@std@@@std@@QAE@ABV_Locinfo@1@I@Z 0040c567 f i libcpmt:locale.obj
 0001:0000b580       ??0?$num_put@DV?$ostreambuf_iterator@DU?$char_traits@D@std@@@std@@@std@@QAE@ABV_Locinfo@1@I@Z 0040c580 f i libcpmt:locale.obj
 0001:0000b599       ??0?$numpunct@D@std@@QAE@ABV_Locinfo@1@I_N@Z 0040c599 f i libcpmt:locale.obj
 0001:0000b5cf       ??1?$num_put@DV?$ostreambuf_iterator@DU?$char_traits@D@std@@@std@@@std@@MAE@XZ 0040c5cf f i libcpmt:locale.obj
 0001:0000b5d6       ??4?$basic_string@DU?$char_traits@D@std@@V?$allocator@D@2@@std@@QAEAAV01@$$QAV01@@Z 0040c5d6 f i libcpmt:locale.obj
 0001:0000b63a       ??4?$ostreambuf_iterator@DU?$char_traits@D@std@@@std@@QAEAAV01@D@Z 0040c63a f i libcpmt:locale.obj
 0001:0000b65e       ??A?$basic_string@DU?$char_traits@D@std@@V?$allocator@D@2@@std@@QAEAADI@Z 0040c65e f i libcpmt:locale.obj
 0001:0000b672       ??A?$basic_string@DU?$char_traits@D@std@@V?$allocator@D@2@@std@@QBEABDI@Z 0040c672 f i libcpmt:locale.obj
 0001:0000b686       ??D?$ostreambuf_iterator@DU?$char_traits@D@std@@@std@@QAEAAV01@XZ 0040c686 f i libcpmt:locale.obj
 0001:0000b689       ??E?$ostreambuf_iterator@DU?$char_traits@D@std@@@std@@QAEAAV01@XZ 0040c689 f i libcpmt:locale.obj
 0001:0000b68c       ??R<lambda_1>@?1??append@?$basic_string@DU?$char_traits@D@std@@V?$allocator@D@2@@std@@QAEAAV23@ID@Z@QBE@QADQBDIID@Z 0040c68c f i libcpmt:locale.obj
 0001:0000b6bf       ??R<lambda_1>@?1??assign@?$basic_string@DU?$char_traits@D@std@@V?$allocator@D@2@@std@@QAEAAV23@ID@Z@QBE@QADID@Z 0040c6bf f i libcpmt:locale.obj
 0001:0000b6e3       ??R<lambda_1>@?1??insert@?$basic_string@DU?$char_traits@D@std@@V?$allocator@D@2@@std@@QAEAAV23@IID@Z@QBE@QADQBDIIID@Z 0040c6e3 f i libcpmt:locale.obj
 0001:0000b72c       ??Y?$basic_string@DU?$char_traits@D@std@@V?$allocator@D@2@@std@@QAEAAV01@ABV01@@Z 0040c72c f i libcpmt:locale.obj
 0001:0000b735       ??_G?$num_put@DV?$ostreambuf_iterator@DU?$char_traits@D@std@@@std@@@std@@MAEPAXI@Z 0040c735 f i libcpmt:locale.obj
 0001:0000b735       ??_E?$num_put@DV?$ostreambuf_iterator@DU?$char_traits@D@std@@@std@@@std@@MAEPAXI@Z 0040c735 f i libcpmt:locale.obj
 0001:0000b758       ?_Addfac@_Locimp@locale@std@@AAEXPAVfacet@23@I@Z 0040c758 f i libcpmt:locale.obj
 0001:0000b76e       ?_Eos@?$basic_string@DU?$char_traits@D@std@@V?$allocator@D@2@@std@@AAEXI@Z 0040c76e f i libcpmt:locale.obj
 0001:0000b789       ?_Ffmt@?$num_put@DV?$ostreambuf_iterator@DU?$char_traits@D@std@@@std@@@std@@ABAPADPADDH@Z 0040c789 f i libcpmt:locale.obj
 0001:0000b81e       ?_Fput@?$num_put@DV?$ostreambuf_iterator@DU?$char_traits@D@std@@@std@@@std@@ABA?AV?$ostreambuf_iterator@DU?$char_traits@D@std@@@2@V32@AAVios_base@2@DPBDI@Z 0040c81e f i libcpmt:locale.obj
 0001:0000bb1b       ?_Getcat@?$num_get@DV?$istreambuf_iterator@DU?$char_traits@D@std@@@std@@@std@@SAIPAPBVfacet@locale@2@PBV42@@Z 0040cb1b f i libcpmt:locale.obj
 0001:0000bb83       ?_Getcat@?$num_put@DV?$ostreambuf_iterator@DU?$char_traits@D@std@@@std@@@std@@SAIPAPBVfacet@locale@2@PBV42@@Z 0040cb83 f i libcpmt:locale.obj
 0001:0000bbeb       ?_Getcat@?$numpunct@D@std@@SAIPAPBVfacet@locale@2@PBV42@@Z 0040cbeb f i libcpmt:locale.obj
 0001:0000bc66       ?_Getcvt@_Locinfo@std@@QBE?AU_Cvtvec@@XZ 0040cc66 f i libcpmt:locale.obj
 0001:0000bc8a       ?_Getfalse@_Locinfo@std@@QBEPBDXZ 0040cc8a f i libcpmt:locale.obj
 0001:0000bc90       ?_Getlconv@_Locinfo@std@@QBEPBUlconv@@XZ 0040cc90 f i libcpmt:locale.obj
 0001:0000bc95       ?_Getname@_Locinfo@std@@QBEPBDXZ 0040cc95 f i libcpmt:locale.obj
 0001:0000bca0       ?_Gettrue@_Locinfo@std@@QBEPBDXZ 0040cca0 f i libcpmt:locale.obj
 0001:0000bca6       ?_Ifmt@?$num_put@DV?$ostreambuf_iterator@DU?$char_traits@D@std@@@std@@@std@@ABAPADPADPBDH@Z 0040cca6 f i libcpmt:locale.obj
 0001:0000bd1b       ?_Inc@?$istreambuf_iterator@DU?$char_traits@D@std@@@std@@AAEXXZ 0040cd1b f i libcpmt:locale.obj
 0001:0000bd3c       ?_Init@?$num_get@DV?$istreambuf_iterator@DU?$char_traits@D@std@@@std@@@std@@IAEXABV_Locinfo@2@@Z 0040cd3c f i libcpmt:locale.obj
 0001:0000bd3f       ?_Init@?$num_put@DV?$ostreambuf_iterator@DU?$char_traits@D@std@@@std@@@std@@IAEXABV_Locinfo@2@@Z 0040cd3f f i libcpmt:locale.obj
 0001:0000bd42       ?_Init@?$numpunct@D@std@@IAEXABV_Locinfo@2@_N@Z 0040cd42 f i libcpmt:locale.obj
 0001:0000bde6       ?_Iput@?$num_put@DV?$ostreambuf_iterator@DU?$char_traits@D@std@@@std@@@std@@ABA?AV?$ostreambuf_iterator@DU?$char_traits@D@std@@@2@V32@AAVios_base@2@DPADI@Z 0040cde6 f i libcpmt:locale.obj
 0001:0000c083       ?_Locimp_Addfac@_Locimp@locale@std@@CAXPAV123@PAVfacet@23@I@Z 0040d083 f   libcpmt:locale.obj
 0001:0000c14c       ?_Locimp_ctor@_Locimp@locale@std@@CAXPAV123@ABV123@@Z 0040d14c f   libcpmt:locale.obj
 0001:0000c203       ?_Locinfo_Addcats@_Locinfo@std@@SAAAV12@PAV12@HPBD@Z 0040d203 f   libcpmt:locale.obj
 0001:0000c2a8       ?_Locinfo_ctor@_Locinfo@std@@SAXPAV12@HPBD@Z 0040d2a8 f   libcpmt:locale.obj
 0001:0000c2de       ?_Makeloc@_Locimp@locale@std@@CAPAV123@ABV_Locinfo@3@HPAV123@PBV23@@Z 0040d2de f   libcpmt:locale.obj
 0001:0000c4da       ?_Peek@?$istreambuf_iterator@DU?$char_traits@D@std@@@std@@ABEDXZ 0040d4da f i libcpmt:locale.obj
 0001:0000c4fe       ?_Put@?$num_put@DV?$ostreambuf_iterator@DU?$char_traits@D@std@@@std@@@std@@ABA?AV?$ostreambuf_iterator@DU?$char_traits@D@std@@@2@V32@PBDI@Z 0040d4fe f i libcpmt:locale.obj
 0001:0000c531       ?_Rep@?$num_put@DV?$ostreambuf_iterator@DU?$char_traits@D@std@@@std@@@std@@ABA?AV?$ostreambuf_iterator@DU?$char_traits@D@std@@@2@V32@DI@Z 0040d531 f i libcpmt:locale.obj
 0001:0000c55d       ?_Stodx_v2@std@@YANPBDPAPADHPAH@Z 0040d55d f i libcpmt:locale.obj
 0001:0000c5ae       ?_Stofx_v2@std@@YAMPBDPAPADHPAH@Z 0040d5ae f i libcpmt:locale.obj
 0001:0000c607       ?_Tidy@?$numpunct@D@std@@AAEXXZ 0040d607 f i libcpmt:locale.obj
 0001:0000c627       ?append@?$basic_string@DU?$char_traits@D@std@@V?$allocator@D@2@@std@@QAEAAV12@ID@Z 0040d627 f i libcpmt:locale.obj
 0001:0000c67f       ?assign@?$basic_string@DU?$char_traits@D@std@@V?$allocator@D@2@@std@@QAEAAV12@$$QAV12@@Z 0040d67f f i libcpmt:locale.obj
 0001:0000c694       ?assign@?$basic_string@DU?$char_traits@D@std@@V?$allocator@D@2@@std@@QAEAAV12@ID@Z 0040d694 f i libcpmt:locale.obj
 0001:0000c6dc       ?decimal_point@?$numpunct@D@std@@QBEDXZ 0040d6dc f i libcpmt:locale.obj
 0001:0000c6f4       ?do_put@?$num_put@DV?$ostreambuf_iterator@DU?$char_traits@D@std@@@std@@@std@@MBE?AV?$ostreambuf_iterator@DU?$char_traits@D@std@@@2@V32@AAVios_base@2@DJ@Z 0040d6f4 f i libcpmt:locale.obj
 0001:0000c75f       ?do_put@?$num_put@DV?$ostreambuf_iterator@DU?$char_traits@D@std@@@std@@@std@@MBE?AV?$ostreambuf_iterator@DU?$char_traits@D@std@@@2@V32@AAVios_base@2@DK@Z 0040d75f f i libcpmt:locale.obj
 0001:0000c7ca       ?do_put@?$num_put@DV?$ostreambuf_iterator@DU?$char_traits@D@std@@@std@@@std@@MBE?AV?$ostreambuf_iterator@DU?$char_traits@D@std@@@2@V32@AAVios_base@2@DN@Z 0040d7ca f i libcpmt:locale.obj
 0001:0000c920       ?do_put@?$num_put@DV?$ostreambuf_iterator@DU?$char_traits@D@std@@@std@@@std@@MBE?AV?$ostreambuf_iterator@DU?$char_traits@D@std@@@2@V32@AAVios_base@2@DO@Z 0040d920 f i libcpmt:locale.obj
 0001:0000ca76       ?do_put@?$num_put@DV?$ostreambuf_iterator@DU?$char_traits@D@std@@@std@@@std@@MBE?AV?$ostreambuf_iterator@DU?$char_traits@D@std@@@2@V32@AAVios_base@2@DPBX@Z 0040da76 f i libcpmt:locale.obj
 0001:0000cad1       ?do_put@?$num_put@DV?$ostreambuf_iterator@DU?$char_traits@D@std@@@std@@@std@@MBE?AV?$ostreambuf_iterator@DU?$char_traits@D@std@@@2@V32@AAVios_base@2@D_J@Z 0040dad1 f i libcpmt:locale.obj
 0001:0000cb3f       ?do_put@?$num_put@DV?$ostreambuf_iterator@DU?$char_traits@D@std@@@std@@@std@@MBE?AV?$ostreambuf_iterator@DU?$char_traits@D@std@@@2@V32@AAVios_base@2@D_K@Z 0040db3f f i libcpmt:locale.obj
 0001:0000cbad       ?do_put@?$num_put@DV?$ostreambuf_iterator@DU?$char_traits@D@std@@@std@@@std@@MBE?AV?$ostreambuf_iterator@DU?$char_traits@D@std@@@2@V32@AAVios_base@2@D_N@Z 0040dbad f i libcpmt:locale.obj
 0001:0000cd5f       ?equal@?$istreambuf_iterator@DU?$char_traits@D@std@@@std@@QBE_NABV12@@Z 0040dd5f f i libcpmt:locale.obj
 0001:0000cd99       ?falsename@?$numpunct@D@std@@QBE?AV?$basic_string@DU?$char_traits@D@std@@V?$allocator@D@2@@2@XZ 0040dd99 f i libcpmt:locale.obj
 0001:0000cdbe       ?flags@ios_base@std@@QBEHXZ 0040ddbe f i libcpmt:locale.obj
 0001:0000cdc2       ?global@locale@std@@SA?AV12@ABV12@@Z 0040ddc2 f   libcpmt:locale.obj
 0001:0000ceaa       ?grouping@?$numpunct@D@std@@QBE?AV?$basic_string@DU?$char_traits@D@std@@V?$allocator@D@2@@2@XZ 0040deaa f i libcpmt:locale.obj
 0001:0000cecf       ?insert@?$basic_string@DU?$char_traits@D@std@@V?$allocator@D@2@@std@@QAEAAV12@IID@Z 0040decf f i libcpmt:locale.obj
 0001:0000cf40       ?precision@ios_base@std@@QBE_JXZ 0040df40 f i libcpmt:locale.obj
 0001:0000cf47       ?resize@?$basic_string@DU?$char_traits@D@std@@V?$allocator@D@2@@std@@QAEXID@Z 0040df47 f i libcpmt:locale.obj
 0001:0000cf73       ?sbumpc@?$basic_streambuf@DU?$char_traits@D@std@@@std@@QAEHXZ 0040df73 f i libcpmt:locale.obj
 0001:0000cfac       ?sgetc@?$basic_streambuf@DU?$char_traits@D@std@@@std@@QAEHXZ 0040dfac f i libcpmt:locale.obj
 0001:0000cfda       ?sputc@?$basic_streambuf@DU?$char_traits@D@std@@@std@@QAEHD@Z 0040dfda f i libcpmt:locale.obj
 0001:0000d02b       ?thousands_sep@?$numpunct@D@std@@QBEDXZ 0040e02b f i libcpmt:locale.obj
 0001:0000d043       ?tolower@?$ctype@D@std@@QBEDD@Z 0040e043 f i libcpmt:locale.obj
 0001:0000d064       ?truename@?$numpunct@D@std@@QBE?AV?$basic_string@DU?$char_traits@D@std@@V?$allocator@D@2@@2@XZ 0040e064 f i libcpmt:locale.obj
 0001:0000d089       ?widen@?$ctype@D@std@@QBEPBDPBD0PAD@Z 0040e089 f i libcpmt:locale.obj
 0001:0000d0b0       ?width@ios_base@std@@QAE_J_J@Z 0040e0b0 f i libcpmt:locale.obj
 0001:0000d0cd       ?width@ios_base@std@@QBE_JXZ 0040e0cd f i libcpmt:locale.obj
 0001:0000d0d4       __vsprintf_s_l             0040e0d4 f i libcpmt:locale.obj
 0001:0000d101       _fabsl                     0040e101 f i libcpmt:locale.obj
 0001:0000d10b       _frexpl                    0040e10b f i libcpmt:locale.obj
 0001:0000d123       _ldexpf                    0040e123 f i libcpmt:locale.obj
 0001:0000d142       _powf                      0040e142 f i libcpmt:locale.obj
 0001:0000d159       ??1_Init_atexit@@QAE@XZ    0040e159 f i libcpmt:iosptrs.obj
 0001:0000d1c1       ?_Atexit@@YAXP6AXXZ@Z      0040e1c1 f   libcpmt:iosptrs.obj
 0001:0000d1f0       ??0?$__crt_scoped_stack_ptr@_W@@QAE@U?$__crt_scoped_stack_ptr_tag@_W@@@Z 0040e1f0 f i libcpmt:StlLCMapStringA.obj
 0001:0000d1fe       ??0?$__crt_scoped_stack_ptr_tag@_W@@QAE@QA_W@Z 0040e1fe f i libcpmt:StlLCMapStringA.obj
 0001:0000d20c       ??1?$__crt_scoped_stack_ptr@_W@@QAE@XZ 0040e20c f i libcpmt:StlLCMapStringA.obj
 0001:0000d225       ??B?$__crt_scoped_stack_ptr@_W@@QBE_NXZ 0040e225 f i libcpmt:StlLCMapStringA.obj
 0001:0000d22c       ?get@?$__crt_scoped_stack_ptr@_W@@QBEPA_WXZ 0040e22c f i libcpmt:StlLCMapStringA.obj
 0001:0000d22f       __MallocaComputeSize       0040e22f f i libcpmt:StlLCMapStringA.obj
 0001:0000d240       __MarkAllocaS              0040e240 f i libcpmt:StlLCMapStringA.obj
 0001:0000d254       ___crtLCMapStringA         0040e254 f   libcpmt:StlLCMapStringA.obj
 0001:0000d420       __freea_crt                0040e420 f i libcpmt:StlLCMapStringA.obj
 0001:0000d43e       ?_Addstd@ios_base@std@@SAXPAV12@@Z 0040e43e f   libcpmt:ios.obj
 0001:0000d490       ?_Callfns@ios_base@std@@AAEXW4event@12@@Z 0040e490 f i libcpmt:ios.obj
 0001:0000d4c3       ?_Ios_base_dtor@ios_base@std@@CAXPAV12@@Z 0040e4c3 f   libcpmt:ios.obj
 0001:0000d503       ?_Tidy@ios_base@std@@AAEXXZ 0040e503 f i libcpmt:ios.obj
 0001:0000d57e       ??$?0$$V@?$_Compressed_pair@V?$allocator@G@std@@V?$_String_val@U?$_Simple_types@G@std@@@2@$00@std@@QAE@U_Zero_then_variadic_args_t@1@@Z 0040e57e f i libcpmt:wlocale.obj
 0001:0000d58d       ??$?0$$V@?$_Compressed_pair@V?$allocator@_W@std@@V?$_String_val@U?$_Simple_types@_W@std@@@2@$00@std@@QAE@U_Zero_then_variadic_args_t@1@@Z 0040e58d f i libcpmt:wlocale.obj
 0001:0000d59c       ??$?0V?$allocator@G@std@@$$V@?$_Compressed_pair@V?$allocator@G@std@@V?$_String_val@U?$_Simple_types@G@std@@@2@$00@std@@QAE@U_One_then_variadic_args_t@1@$$QAV?$allocator@G@1@@Z 0040e59c f i libcpmt:wlocale.obj
 0001:0000d5ab       ??$?0V?$allocator@_W@std@@$$V@?$_Compressed_pair@V?$allocator@_W@std@@V?$_String_val@U?$_Simple_types@_W@std@@@2@$00@std@@QAE@U_One_then_variadic_args_t@1@$$QAV?$allocator@_W@1@@Z 0040e5ab f i libcpmt:wlocale.obj
 0001:0000d5ba       ??$?8GU?$char_traits@G@std@@@std@@YA_NABV?$istreambuf_iterator@GU?$char_traits@G@std@@@0@0@Z 0040e5ba f i libcpmt:wlocale.obj
 0001:0000d5ca       ??$?8_WU?$char_traits@_W@std@@@std@@YA_NABV?$istreambuf_iterator@_WU?$char_traits@_W@std@@@0@0@Z 0040e5ca f i libcpmt:wlocale.obj
 0001:0000d5da       ??$_Adl_verify_range@PADPAD@std@@YAXABQAD0@Z 0040e5da f i libcpmt:wlocale.obj
 0001:0000d5dd       ??$_Adl_verify_range@PAGPAG@std@@YAXABQAG0@Z 0040e5dd f i libcpmt:wlocale.obj
 0001:0000d5e0       ??$_Adl_verify_range@PAGPBG@std@@YAXABQAGABQBG@Z 0040e5e0 f i libcpmt:wlocale.obj
 0001:0000d5e3       ??$_Adl_verify_range@PA_WPA_W@std@@YAXABQA_W0@Z 0040e5e3 f i libcpmt:wlocale.obj
 0001:0000d5e6       ??$_Adl_verify_range@PA_WPB_W@std@@YAXABQA_WABQB_W@Z 0040e5e6 f i libcpmt:wlocale.obj
 0001:0000d5e9       ??$_Adl_verify_range@PBGPBG@std@@YAXABQBG0@Z 0040e5e9 f i libcpmt:wlocale.obj
 0001:0000d5ec       ??$_Adl_verify_range@PB_WPB_W@std@@YAXABQB_W0@Z 0040e5ec f i libcpmt:wlocale.obj
 0001:0000d5ef       ??$_Adl_verify_range@V?$istreambuf_iterator@GU?$char_traits@G@std@@@std@@V12@@std@@YAXABV?$istreambuf_iterator@GU?$char_traits@G@std@@@0@0@Z 0040e5ef f i libcpmt:wlocale.obj
 0001:0000d5f2       ??$_Adl_verify_range@V?$istreambuf_iterator@_WU?$char_traits@_W@std@@@std@@V12@@std@@YAXABV?$istreambuf_iterator@_WU?$char_traits@_W@std@@@0@0@Z 0040e5f2 f i libcpmt:wlocale.obj
 0001:0000d5f5       ??$_Construct_in_place@PAGAAPAG@std@@YAXAAPAG0@Z 0040e5f5 f i libcpmt:wlocale.obj
 0001:0000d604       ??$_Construct_in_place@PAGABQAG@std@@YAXAAPAGABQAG@Z 0040e604 f i libcpmt:wlocale.obj
 0001:0000d613       ??$_Construct_in_place@PA_WAAPA_W@std@@YAXAAPA_W0@Z 0040e613 f i libcpmt:wlocale.obj
 0001:0000d622       ??$_Construct_in_place@PA_WABQA_W@std@@YAXAAPA_WABQA_W@Z 0040e622 f i libcpmt:wlocale.obj
 0001:0000d631       ??$_Copy_unchecked@PA_WV?$ostreambuf_iterator@GU?$char_traits@G@std@@@std@@@std@@YA?AV?$ostreambuf_iterator@GU?$char_traits@G@std@@@0@PA_W0V10@@Z 0040e631 f i libcpmt:wlocale.obj
 0001:0000d65f       ??$_Copy_unchecked@PA_WV?$ostreambuf_iterator@_WU?$char_traits@_W@std@@@std@@@std@@YA?AV?$ostreambuf_iterator@_WU?$char_traits@_W@std@@@0@PA_W0V10@@Z 0040e65f f i libcpmt:wlocale.obj
 0001:0000d68d       ??$_Destroy_in_place@PAG@std@@YAXAAPAG@Z 0040e68d f i libcpmt:wlocale.obj
 0001:0000d690       ??$_Destroy_in_place@PA_W@std@@YAXAAPA_W@Z 0040e690 f i libcpmt:wlocale.obj
 0001:0000d693       ??$_Find_elem@G$0BL@@std@@YAIAAY0BL@$$CBGG@Z 0040e693 f i libcpmt:wlocale.obj
 0001:0000d6ba       ??$_Find_elem@G$0BN@@std@@YAIAAY0BN@$$CBGG@Z 0040e6ba f i libcpmt:wlocale.obj
 0001:0000d6e1       ??$_Find_elem@G$0M@@std@@YAIAAY0M@$$CBGG@Z 0040e6e1 f i libcpmt:wlocale.obj
 0001:0000d708       ??$_Find_elem@G$0P@@std@@YAIAAY0P@$$CBGG@Z 0040e708 f i libcpmt:wlocale.obj
 0001:0000d72f       ??$_Find_elem@_W$0BL@@std@@YAIAAY0BL@$$CB_W_W@Z 0040e72f f i libcpmt:wlocale.obj
 0001:0000d756       ??$_Find_elem@_W$0BN@@std@@YAIAAY0BN@$$CB_W_W@Z 0040e756 f i libcpmt:wlocale.obj
 0001:0000d77d       ??$_Find_elem@_W$0M@@std@@YAIAAY0M@$$CB_W_W@Z 0040e77d f i libcpmt:wlocale.obj
 0001:0000d7a4       ??$_Find_elem@_W$0P@@std@@YAIAAY0P@$$CB_W_W@Z 0040e7a4 f i libcpmt:wlocale.obj
 0001:0000d7cb       ??$_Find_unchecked1@PBGG@std@@YAPBGPBGQBGABGU?$integral_constant@_N$0A@@0@@Z 0040e7cb f i libcpmt:wlocale.obj
 0001:0000d7ed       ??$_Find_unchecked1@PB_W_W@std@@YAPB_WPB_WQB_WAB_WU?$integral_constant@_N$0A@@0@@Z 0040e7ed f i libcpmt:wlocale.obj
 0001:0000d80f       ??$_Find_unchecked@PBGG@std@@YAPBGQBG0ABG@Z 0040e80f f i libcpmt:wlocale.obj
 0001:0000d82d       ??$_Find_unchecked@PB_W_W@std@@YAPB_WQB_W0AB_W@Z 0040e82d f i libcpmt:wlocale.obj
 0001:0000d84b       ??$_Get_size_of_n@$01@std@@YAII@Z 0040e84b f i libcpmt:wlocale.obj
 0001:0000d860       ??$_Get_unwrapped@AAPA_W@std@@YA?A_TAAPA_W@Z 0040e860 f i libcpmt:wlocale.obj
 0001:0000d86a       ??$_Get_unwrapped_n@AAV?$ostreambuf_iterator@GU?$char_traits@G@std@@@std@@H@std@@YA?A_TAAV?$ostreambuf_iterator@GU?$char_traits@G@std@@@0@H@Z 0040e86a f i libcpmt:wlocale.obj
 0001:0000d872       ??$_Get_unwrapped_n@AAV?$ostreambuf_iterator@_WU?$char_traits@_W@std@@@std@@H@std@@YA?A_TAAV?$ostreambuf_iterator@_WU?$char_traits@_W@std@@@0@H@Z 0040e872 f i libcpmt:wlocale.obj
 0001:0000d87a       ??$_Getloctxt@V?$istreambuf_iterator@GU?$char_traits@G@std@@@std@@D@std@@YAHAAV?$istreambuf_iterator@GU?$char_traits@G@std@@@0@0IPBDW4_Case_sensitive@0@@Z 0040e87a f i libcpmt:wlocale.obj
 0001:0000da8e       ??$_Getloctxt@V?$istreambuf_iterator@GU?$char_traits@G@std@@@std@@G@std@@YAHAAV?$istreambuf_iterator@GU?$char_traits@G@std@@@0@0IPBGW4_Case_sensitive@0@@Z 0040ea8e f i libcpmt:wlocale.obj
 0001:0000dcb2       ??$_Getloctxt@V?$istreambuf_iterator@_WU?$char_traits@_W@std@@@std@@D@std@@YAHAAV?$istreambuf_iterator@_WU?$char_traits@_W@std@@@0@0IPBDW4_Case_sensitive@0@@Z 0040ecb2 f i libcpmt:wlocale.obj
 0001:0000dec6       ??$_Getloctxt@V?$istreambuf_iterator@_WU?$char_traits@_W@std@@@std@@_W@std@@YAHAAV?$istreambuf_iterator@_WU?$char_traits@_W@std@@@0@0IPB_WW4_Case_sensitive@0@@Z 0040eec6 f i libcpmt:wlocale.obj
 0001:0000e0ea       ??$_Getvals@G@?$_Mpunct@G@std@@IAEXGPBUlconv@@@Z 0040f0ea f i libcpmt:wlocale.obj
 0001:0000e17c       ??$_Getvals@G@?$numpunct@G@std@@IAEXGPBUlconv@@U_Cvtvec@@@Z 0040f17c f i libcpmt:wlocale.obj
 0001:0000e1de       ??$_Getvals@G@?$time_get@GV?$istreambuf_iterator@GU?$char_traits@G@std@@@std@@@std@@IAEXGABV_Locinfo@1@@Z 0040f1de f i libcpmt:wlocale.obj
 0001:0000e249       ??$_Getvals@_W@?$time_get@_WV?$istreambuf_iterator@_WU?$char_traits@_W@std@@@std@@@std@@IAEX_WABV_Locinfo@1@@Z 0040f249 f i libcpmt:wlocale.obj
 0001:0000e2a2       ??$_Hash_array_representation@G@std@@YAIQBGI@Z 0040f2a2 f i libcpmt:wlocale.obj
 0001:0000e2bd       ??$_Hash_array_representation@_W@std@@YAIQB_WI@Z 0040f2bd f i libcpmt:wlocale.obj
 0001:0000e2d8       ??$_Idl_distance@PA_WPA_W@std@@YA?A_PABQA_W0@Z 0040f2d8 f i libcpmt:wlocale.obj
 0001:0000e2e9       ??$_LStrcoll@G@std@@YAHPBG000PBU_Collvec@@@Z 0040f2e9 f i libcpmt:wlocale.obj
 0001:0000e333       ??$_LStrcoll@_W@std@@YAHPB_W000PBU_Collvec@@@Z 0040f333 f i libcpmt:wlocale.obj
 0001:0000e33c       ??$_LStrxfrm@G@std@@YAIPAG0PBG1PBU_Collvec@@@Z 0040f33c f i libcpmt:wlocale.obj
 0001:0000e36b       ??$_LStrxfrm@_W@std@@YAIPA_W0PB_W1PBU_Collvec@@@Z 0040f36b f i libcpmt:wlocale.obj
 0001:0000e374       ??$_Maklocchr@G@std@@YAGDPAGABU_Cvtvec@@@Z 0040f374 f i libcpmt:wlocale.obj
 0001:0000e3a5       ??$_Maklocchr@_W@std@@YA_WDPA_WABU_Cvtvec@@@Z 0040f3a5 f i libcpmt:wlocale.obj
 0001:0000e3d6       ??$_Maklocstr@G@std@@YAPAGPBDPAGABU_Cvtvec@@@Z 0040f3d6 f i libcpmt:wlocale.obj
 0001:0000e47e       ??$_Maklocstr@_W@std@@YAPA_WPBDPA_WABU_Cvtvec@@@Z 0040f47e f i libcpmt:wlocale.obj
 0001:0000e526       ??$_Pocma@V?$allocator@G@std@@@std@@YAXAAV?$allocator@G@0@0@Z 0040f526 f i libcpmt:wlocale.obj
 0001:0000e529       ??$_Pocma@V?$allocator@_W@std@@@std@@YAXAAV?$allocator@_W@0@0@Z 0040f529 f i libcpmt:wlocale.obj
 0001:0000e52c       ??$_Reallocate_for@V<lambda_1>@?1??assign@?$basic_string@GU?$char_traits@G@std@@V?$allocator@G@2@@std@@QAEAAV34@IG@Z@G@?$basic_string@GU?$char_traits@G@std@@V?$allocator@G@2@@std@@AAEAAV01@IV<lambda_1>@?1??assign@01@QAEAAV01@IG@Z@G@Z 0040f52c f i libcpmt:wlocale.obj
 0001:0000e5a9       ??$_Reallocate_for@V<lambda_1>@?1??assign@?$basic_string@GU?$char_traits@G@std@@V?$allocator@G@2@@std@@QAEAAV34@QBGI@Z@PBG@?$basic_string@GU?$char_traits@G@std@@V?$allocator@G@2@@std@@AAEAAV01@IV<lambda_1>@?1??assign@01@QAEAAV01@QBGI@Z@PBG@Z 0040f5a9 f i libcpmt:wlocale.obj
 0001:0000e629       ??$_Reallocate_for@V<lambda_1>@?1??assign@?$basic_string@_WU?$char_traits@_W@std@@V?$allocator@_W@2@@std@@QAEAAV34@I_W@Z@_W@?$basic_string@_WU?$char_traits@_W@std@@V?$allocator@_W@2@@std@@AAEAAV01@IV<lambda_1>@?1??assign@01@QAEAAV01@I_W@Z@_W@Z 0040f629 f i libcpmt:wlocale.obj
 0001:0000e6a6       ??$_Reallocate_for@V<lambda_1>@?1??assign@?$basic_string@_WU?$char_traits@_W@std@@V?$allocator@_W@2@@std@@QAEAAV34@QB_WI@Z@PB_W@?$basic_string@_WU?$char_traits@_W@std@@V?$allocator@_W@2@@std@@AAEAAV01@IV<lambda_1>@?1??assign@01@QAEAAV01@QB_WI@Z@PB_W@Z 0040f6a6 f i libcpmt:wlocale.obj
 0001:0000e726       ??$_Reallocate_grow_by@V<lambda_1>@?1??append@?$basic_string@GU?$char_traits@G@std@@V?$allocator@G@2@@std@@QAEAAV34@IG@Z@IG@?$basic_string@GU?$char_traits@G@std@@V?$allocator@G@2@@std@@AAEAAV01@IV<lambda_1>@?1??append@01@QAEAAV01@IG@Z@IG@Z 0040f726 f i libcpmt:wlocale.obj
 0001:0000e7bb       ??$_Reallocate_grow_by@V<lambda_1>@?1??append@?$basic_string@GU?$char_traits@G@std@@V?$allocator@G@2@@std@@QAEAAV34@QBGI@Z@PBGI@?$basic_string@GU?$char_traits@G@std@@V?$allocator@G@2@@std@@AAEAAV01@IV<lambda_1>@?1??append@01@QAEAAV01@QBGI@Z@PBGI@Z 0040f7bb f i libcpmt:wlocale.obj
 0001:0000e850       ??$_Reallocate_grow_by@V<lambda_1>@?1??append@?$basic_string@_WU?$char_traits@_W@std@@V?$allocator@_W@2@@std@@QAEAAV34@I_W@Z@I_W@?$basic_string@_WU?$char_traits@_W@std@@V?$allocator@_W@2@@std@@AAEAAV01@IV<lambda_1>@?1??append@01@QAEAAV01@I_W@Z@I_W@Z 0040f850 f i libcpmt:wlocale.obj
 0001:0000e8e5       ??$_Reallocate_grow_by@V<lambda_1>@?1??append@?$basic_string@_WU?$char_traits@_W@std@@V?$allocator@_W@2@@std@@QAEAAV34@QB_WI@Z@PB_WI@?$basic_string@_WU?$char_traits@_W@std@@V?$allocator@_W@2@@std@@AAEAAV01@IV<lambda_1>@?1??append@01@QAEAAV01@QB_WI@Z@PB_WI@Z 0040f8e5 f i libcpmt:wlocale.obj
 0001:0000e97a       ??$_Reallocate_grow_by@V<lambda_1>@?1??insert@?$basic_string@GU?$char_traits@G@std@@V?$allocator@G@2@@std@@QAEAAV34@IIG@Z@IIG@?$basic_string@GU?$char_traits@G@std@@V?$allocator@G@2@@std@@AAEAAV01@IV<lambda_1>@?1??insert@01@QAEAAV01@IIG@Z@IIG@Z 0040f97a f i libcpmt:wlocale.obj
 0001:0000ea12       ??$_Reallocate_grow_by@V<lambda_1>@?1??insert@?$basic_string@_WU?$char_traits@_W@std@@V?$allocator@_W@2@@std@@QAEAAV34@II_W@Z@II_W@?$basic_string@_WU?$char_traits@_W@std@@V?$allocator@_W@2@@std@@AAEAAV01@IV<lambda_1>@?1??insert@01@QAEAAV01@II_W@Z@II_W@Z 0040fa12 f i libcpmt:wlocale.obj
 0001:0000eaaa       ??$_Reallocate_grow_by@V<lambda_1>@?1??push_back@?$basic_string@GU?$char_traits@G@std@@V?$allocator@G@2@@std@@QAEXG@Z@G@?$basic_string@GU?$char_traits@G@std@@V?$allocator@G@2@@std@@AAEAAV01@IV<lambda_1>@?1??push_back@01@QAEXG@Z@G@Z 0040faaa f i libcpmt:wlocale.obj
 0001:0000eb6f       ??$_Reallocate_grow_by@V<lambda_1>@?1??push_back@?$basic_string@_WU?$char_traits@_W@std@@V?$allocator@_W@2@@std@@QAEX_W@Z@_W@?$basic_string@_WU?$char_traits@_W@std@@V?$allocator@_W@2@@std@@AAEAAV01@IV<lambda_1>@?1??push_back@01@QAEX_W@Z@_W@Z 0040fb6f f i libcpmt:wlocale.obj
 0001:0000ec34       ??$_Refancy@PAG$0A@@std@@YAPAGPAG@Z 0040fc34 f i libcpmt:wlocale.obj
 0001:0000ec3c       ??$_Refancy@PA_W$0A@@std@@YAPA_WPA_W@Z 0040fc3c f i libcpmt:wlocale.obj
 0001:0000ec44       ??$_Seek_wrapped@V?$ostreambuf_iterator@GU?$char_traits@G@std@@@std@@V12@@std@@YAXAAV?$ostreambuf_iterator@GU?$char_traits@G@std@@@0@$$QAV10@@Z 0040fc44 f i libcpmt:wlocale.obj
 0001:0000ec59       ??$_Seek_wrapped@V?$ostreambuf_iterator@_WU?$char_traits@_W@std@@@std@@V12@@std@@YAXAAV?$ostreambuf_iterator@_WU?$char_traits@_W@std@@@0@$$QAV10@@Z 0040fc59 f i libcpmt:wlocale.obj
 0001:0000ec6e       ??$_Unfancy@G@std@@YAPAGPAG@Z 0040fc6e f i libcpmt:wlocale.obj
 0001:0000ec76       ??$_Unfancy@_W@std@@YAPA_WPA_W@Z 0040fc76 f i libcpmt:wlocale.obj
 0001:0000ec7e       ??$_Voidify_iter@PAG@std@@YAPAXPAG@Z 0040fc7e f i libcpmt:wlocale.obj
 0001:0000ec86       ??$_Voidify_iter@PAPAG@std@@YAPAXPAPAG@Z 0040fc86 f i libcpmt:wlocale.obj
 0001:0000ec8e       ??$_Voidify_iter@PAPA_W@std@@YAPAXPAPA_W@Z 0040fc8e f i libcpmt:wlocale.obj
 0001:0000ec96       ??$_Voidify_iter@PA_W@std@@YAPAXPA_W@Z 0040fc96 f i libcpmt:wlocale.obj
 0001:0000ec9e       ??$addressof@$$CBV?$_String_val@U?$_Simple_types@G@std@@@std@@@std@@YAPBV?$_String_val@U?$_Simple_types@G@std@@@0@ABV10@@Z 0040fc9e f i libcpmt:wlocale.obj
 0001:0000eca6       ??$addressof@$$CBV?$_String_val@U?$_Simple_types@_W@std@@@std@@@std@@YAPBV?$_String_val@U?$_Simple_types@_W@std@@@0@ABV10@@Z 0040fca6 f i libcpmt:wlocale.obj
 0001:0000ecae       ??$addressof@$$CBV?$moneypunct@G$00@std@@@std@@YAPBV?$moneypunct@G$00@0@ABV10@@Z 0040fcae f i libcpmt:wlocale.obj
 0001:0000ecb6       ??$addressof@$$CBV?$moneypunct@G$0A@@std@@@std@@YAPBV?$moneypunct@G$0A@@0@ABV10@@Z 0040fcb6 f i libcpmt:wlocale.obj
 0001:0000ecbe       ??$addressof@$$CBV?$moneypunct@_W$00@std@@@std@@YAPBV?$moneypunct@_W$00@0@ABV10@@Z 0040fcbe f i libcpmt:wlocale.obj
 0001:0000ecc6       ??$addressof@$$CBV?$moneypunct@_W$0A@@std@@@std@@YAPBV?$moneypunct@_W$0A@@0@ABV10@@Z 0040fcc6 f i libcpmt:wlocale.obj
 0001:0000ecce       ??$addressof@PAG@std@@YAPAPAGAAPAG@Z 0040fcce f i libcpmt:wlocale.obj
 0001:0000ecd6       ??$addressof@PA_W@std@@YAPAPA_WAAPA_W@Z 0040fcd6 f i libcpmt:wlocale.obj
 0001:0000ecde       ??$addressof@V?$_String_val@U?$_Simple_types@G@std@@@std@@@std@@YAPAV?$_String_val@U?$_Simple_types@G@std@@@0@AAV10@@Z 0040fcde f i libcpmt:wlocale.obj
 0001:0000ece6       ??$addressof@V?$_String_val@U?$_Simple_types@_W@std@@@std@@@std@@YAPAV?$_String_val@U?$_Simple_types@_W@std@@@0@AAV10@@Z 0040fce6 f i libcpmt:wlocale.obj
 0001:0000ecee       ??$addressof@V?$basic_string@GU?$char_traits@G@std@@V?$allocator@G@2@@std@@@std@@YAPAV?$basic_string@GU?$char_traits@G@std@@V?$allocator@G@2@@0@AAV10@@Z 0040fcee f i libcpmt:wlocale.obj
 0001:0000ecf6       ??$addressof@V?$basic_string@_WU?$char_traits@_W@std@@V?$allocator@_W@2@@std@@@std@@YAPAV?$basic_string@_WU?$char_traits@_W@std@@V?$allocator@_W@2@@0@AAV10@@Z 0040fcf6 f i libcpmt:wlocale.obj
 0001:0000ecfe       ??$begin@$$CBD$0M@@std@@YAPBDAAY0M@$$CBD@Z 0040fcfe f i libcpmt:wlocale.obj
 0001:0000ed06       ??$construct_at@GABGX@std@@YAPAGQAGABG@Z 0040fd06 f i libcpmt:wlocale.obj
 0001:0000ed17       ??$construct_at@PAGAAPAGX@std@@YAPAPAGQAPAGAAPAG@Z 0040fd17 f i libcpmt:wlocale.obj
 0001:0000ed26       ??$construct_at@PAGABQAGX@std@@YAPAPAGQAPAGABQAG@Z 0040fd26 f i libcpmt:wlocale.obj
 0001:0000ed35       ??$construct_at@PA_WAAPA_WX@std@@YAPAPA_WQAPA_WAAPA_W@Z 0040fd35 f i libcpmt:wlocale.obj
 0001:0000ed44       ??$construct_at@PA_WABQA_WX@std@@YAPAPA_WQAPA_WABQA_W@Z 0040fd44 f i libcpmt:wlocale.obj
 0001:0000ed53       ??$construct_at@_WAB_WX@std@@YAPA_WQA_WAB_W@Z 0040fd53 f i libcpmt:wlocale.obj
 0001:0000ed64       ??$copy@PA_WV?$ostreambuf_iterator@GU?$char_traits@G@std@@@std@@@std@@YA?AV?$ostreambuf_iterator@GU?$char_traits@G@std@@@0@PA_W0V10@@Z 0040fd64 f i libcpmt:wlocale.obj
 0001:0000ed90       ??$copy@PA_WV?$ostreambuf_iterator@_WU?$char_traits@_W@std@@@std@@@std@@YA?AV?$ostreambuf_iterator@_WU?$char_traits@_W@std@@@0@PA_W0V10@@Z 0040fd90 f i libcpmt:wlocale.obj
 0001:0000edbc       ??$end@$$CBD$0M@@std@@YAPBDAAY0M@$$CBD@Z 0040fdbc f i libcpmt:wlocale.obj
 0001:0000edc7       ??$forward@AAPAG@std@@YAAAPAGAAPAG@Z 0040fdc7 f i libcpmt:wlocale.obj
 0001:0000edcf       ??$forward@AAPA_W@std@@YAAAPA_WAAPA_W@Z 0040fdcf f i libcpmt:wlocale.obj
 0001:0000edd7       ??$forward@ABG@std@@YAABGABG@Z 0040fdd7 f i libcpmt:wlocale.obj
 0001:0000eddf       ??$forward@ABQAG@std@@YAABQAGABQAG@Z 0040fddf f i libcpmt:wlocale.obj
 0001:0000ede7       ??$forward@ABQA_W@std@@YAABQA_WABQA_W@Z 0040fde7 f i libcpmt:wlocale.obj
 0001:0000edef       ??$forward@AB_W@std@@YAAB_WAB_W@Z 0040fdef f i libcpmt:wlocale.obj
 0001:0000edf7       ??$forward@V?$allocator@G@std@@@std@@YA$$QAV?$allocator@G@0@AAV10@@Z 0040fdf7 f i libcpmt:wlocale.obj
 0001:0000edff       ??$forward@V?$allocator@_W@std@@@std@@YA$$QAV?$allocator@_W@0@AAV10@@Z 0040fdff f i libcpmt:wlocale.obj
 0001:0000ee07       ??$forward@V?$ostreambuf_iterator@GU?$char_traits@G@std@@@std@@@std@@YA$$QAV?$ostreambuf_iterator@GU?$char_traits@G@std@@@0@AAV10@@Z 0040fe07 f i libcpmt:wlocale.obj
 0001:0000ee0f       ??$forward@V?$ostreambuf_iterator@_WU?$char_traits@_W@std@@@std@@@std@@YA$$QAV?$ostreambuf_iterator@_WU?$char_traits@_W@std@@@0@AAV10@@Z 0040fe0f f i libcpmt:wlocale.obj
 0001:0000ee17       ??$move@AAV?$allocator@G@std@@@std@@YA$$QAV?$allocator@G@0@AAV10@@Z 0040fe17 f i libcpmt:wlocale.obj
 0001:0000ee1f       ??$move@AAV?$allocator@_W@std@@@std@@YA$$QAV?$allocator@_W@0@AAV10@@Z 0040fe1f f i libcpmt:wlocale.obj
 0001:0000ee27       ??$move@AAV?$basic_string@GU?$char_traits@G@std@@V?$allocator@G@2@@std@@@std@@YA$$QAV?$basic_string@GU?$char_traits@G@std@@V?$allocator@G@2@@0@AAV10@@Z 0040fe27 f i libcpmt:wlocale.obj
 0001:0000ee2f       ??$move@AAV?$basic_string@_WU?$char_traits@_W@std@@V?$allocator@_W@2@@std@@@std@@YA$$QAV?$basic_string@_WU?$char_traits@_W@std@@V?$allocator@_W@2@@0@AAV10@@Z 0040fe2f f i libcpmt:wlocale.obj
 0001:0000ee37       ??$use_facet@V?$codecvt@GDU_Mbstatet@@@std@@@std@@YAABV?$codecvt@GDU_Mbstatet@@@0@ABVlocale@0@@Z 0040fe37 f i libcpmt:wlocale.obj
 0001:0000eecc       ??$use_facet@V?$codecvt@_WDU_Mbstatet@@@std@@@std@@YAABV?$codecvt@_WDU_Mbstatet@@@0@ABVlocale@0@@Z 0040fecc f i libcpmt:wlocale.obj
 0001:0000ef61       ??$use_facet@V?$collate@G@std@@@std@@YAABV?$collate@G@0@ABVlocale@0@@Z 0040ff61 f i libcpmt:wlocale.obj
 0001:0000eff6       ??$use_facet@V?$collate@_W@std@@@std@@YAABV?$collate@_W@0@ABVlocale@0@@Z 0040fff6 f i libcpmt:wlocale.obj
 0001:0000f08b       ??$use_facet@V?$ctype@G@std@@@std@@YAABV?$ctype@G@0@ABVlocale@0@@Z 0041008b f i libcpmt:wlocale.obj
 0001:0000f120       ??$use_facet@V?$ctype@_W@std@@@std@@YAABV?$ctype@_W@0@ABVlocale@0@@Z 00410120 f i libcpmt:wlocale.obj
 0001:0000f1b5       ??$use_facet@V?$messages@G@std@@@std@@YAABV?$messages@G@0@ABVlocale@0@@Z 004101b5 f i libcpmt:wlocale.obj
 0001:0000f24a       ??$use_facet@V?$messages@_W@std@@@std@@YAABV?$messages@_W@0@ABVlocale@0@@Z 0041024a f i libcpmt:wlocale.obj
 0001:0000f2df       ??$use_facet@V?$money_get@GV?$istreambuf_iterator@GU?$char_traits@G@std@@@std@@@std@@@std@@YAABV?$money_get@GV?$istreambuf_iterator@GU?$char_traits@G@std@@@std@@@0@ABVlocale@0@@Z 004102df f i libcpmt:wlocale.obj
 0001:0000f374       ??$use_facet@V?$money_get@_WV?$istreambuf_iterator@_WU?$char_traits@_W@std@@@std@@@std@@@std@@YAABV?$money_get@_WV?$istreambuf_iterator@_WU?$char_traits@_W@std@@@std@@@0@ABVlocale@0@@Z 00410374 f i libcpmt:wlocale.obj
 0001:0000f409       ??$use_facet@V?$money_put@GV?$ostreambuf_iterator@GU?$char_traits@G@std@@@std@@@std@@@std@@YAABV?$money_put@GV?$ostreambuf_iterator@GU?$char_traits@G@std@@@std@@@0@ABVlocale@0@@Z 00410409 f i libcpmt:wlocale.obj
 0001:0000f49e       ??$use_facet@V?$money_put@_WV?$ostreambuf_iterator@_WU?$char_traits@_W@std@@@std@@@std@@@std@@YAABV?$money_put@_WV?$ostreambuf_iterator@_WU?$char_traits@_W@std@@@std@@@0@ABVlocale@0@@Z 0041049e f i libcpmt:wlocale.obj
 0001:0000f533       ??$use_facet@V?$moneypunct@G$00@std@@@std@@YAABV?$moneypunct@G$00@0@ABVlocale@0@@Z 00410533 f i libcpmt:wlocale.obj
 0001:0000f5c8       ??$use_facet@V?$moneypunct@G$0A@@std@@@std@@YAABV?$moneypunct@G$0A@@0@ABVlocale@0@@Z 004105c8 f i libcpmt:wlocale.obj
 0001:0000f65d       ??$use_facet@V?$moneypunct@_W$00@std@@@std@@YAABV?$moneypunct@_W$00@0@ABVlocale@0@@Z 0041065d f i libcpmt:wlocale.obj
 0001:0000f6f2       ??$use_facet@V?$moneypunct@_W$0A@@std@@@std@@YAABV?$moneypunct@_W$0A@@0@ABVlocale@0@@Z 004106f2 f i libcpmt:wlocale.obj
 0001:0000f787       ??$use_facet@V?$num_get@GV?$istreambuf_iterator@GU?$char_traits@G@std@@@std@@@std@@@std@@YAABV?$num_get@GV?$istreambuf_iterator@GU?$char_traits@G@std@@@std@@@0@ABVlocale@0@@Z 00410787 f i libcpmt:wlocale.obj
 0001:0000f81c       ??$use_facet@V?$num_get@_WV?$istreambuf_iterator@_WU?$char_traits@_W@std@@@std@@@std@@@std@@YAABV?$num_get@_WV?$istreambuf_iterator@_WU?$char_traits@_W@std@@@std@@@0@ABVlocale@0@@Z 0041081c f i libcpmt:wlocale.obj
 0001:0000f8b1       ??$use_facet@V?$num_put@GV?$ostreambuf_iterator@GU?$char_traits@G@std@@@std@@@std@@@std@@YAABV?$num_put@GV?$ostreambuf_iterator@GU?$char_traits@G@std@@@std@@@0@ABVlocale@0@@Z 004108b1 f i libcpmt:wlocale.obj
 0001:0000f946       ??$use_facet@V?$num_put@_WV?$ostreambuf_iterator@_WU?$char_traits@_W@std@@@std@@@std@@@std@@YAABV?$num_put@_WV?$ostreambuf_iterator@_WU?$char_traits@_W@std@@@std@@@0@ABVlocale@0@@Z 00410946 f i libcpmt:wlocale.obj
 0001:0000f9db       ??$use_facet@V?$numpunct@G@std@@@std@@YAABV?$numpunct@G@0@ABVlocale@0@@Z 004109db f i libcpmt:wlocale.obj
 0001:0000fa70       ??$use_facet@V?$numpunct@_W@std@@@std@@YAABV?$numpunct@_W@0@ABVlocale@0@@Z 00410a70 f i libcpmt:wlocale.obj
 0001:0000fb05       ??$use_facet@V?$time_get@GV?$istreambuf_iterator@GU?$char_traits@G@std@@@std@@@std@@@std@@YAABV?$time_get@GV?$istreambuf_iterator@GU?$char_traits@G@std@@@std@@@0@ABVlocale@0@@Z 00410b05 f i libcpmt:wlocale.obj
 0001:0000fb9a       ??$use_facet@V?$time_get@_WV?$istreambuf_iterator@_WU?$char_traits@_W@std@@@std@@@std@@@std@@YAABV?$time_get@_WV?$istreambuf_iterator@_WU?$char_traits@_W@std@@@std@@@0@ABVlocale@0@@Z 00410b9a f i libcpmt:wlocale.obj
 0001:0000fc2f       ??$use_facet@V?$time_put@GV?$ostreambuf_iterator@GU?$char_traits@G@std@@@std@@@std@@@std@@YAABV?$time_put@GV?$ostreambuf_iterator@GU?$char_traits@G@std@@@std@@@0@ABVlocale@0@@Z 00410c2f f i libcpmt:wlocale.obj
 0001:0000fcc4       ??$use_facet@V?$time_put@_WV?$ostreambuf_iterator@_WU?$char_traits@_W@std@@@std@@@std@@@std@@YAABV?$time_put@_WV?$ostreambuf_iterator@_WU?$char_traits@_W@std@@@std@@@0@ABVlocale@0@@Z 00410cc4 f i libcpmt:wlocale.obj
 0001:0000fd59       ??0?$_Mpunct@G@std@@QAE@ABV_Locinfo@1@I_N1@Z 00410d59 f i libcpmt:wlocale.obj
 0001:0000fd95       ??0?$_Mpunct@_W@std@@QAE@ABV_Locinfo@1@I_N1@Z 00410d95 f i libcpmt:wlocale.obj
 0001:0000fdd1       ??0?$_String_const_iterator@V?$_String_val@U?$_Simple_types@G@std@@@std@@@std@@QAE@PBGPBU_Container_base0@1@@Z 00410dd1 f i libcpmt:wlocale.obj
 0001:0000fddf       ??0?$_String_const_iterator@V?$_String_val@U?$_Simple_types@G@std@@@std@@@std@@QAE@XZ 00410ddf f i libcpmt:wlocale.obj
 0001:0000fde5       ??0?$_String_const_iterator@V?$_String_val@U?$_Simple_types@_W@std@@@std@@@std@@QAE@PB_WPBU_Container_base0@1@@Z 00410de5 f i libcpmt:wlocale.obj
 0001:0000fdf3       ??0?$_String_const_iterator@V?$_String_val@U?$_Simple_types@_W@std@@@std@@@std@@QAE@XZ 00410df3 f i libcpmt:wlocale.obj
 0001:0000fdf9       ??0?$_String_iterator@V?$_String_val@U?$_Simple_types@G@std@@@std@@@std@@QAE@PBGPBU_Container_base0@1@@Z 00410df9 f i libcpmt:wlocale.obj
 0001:0000fe07       ??0?$_String_iterator@V?$_String_val@U?$_Simple_types@_W@std@@@std@@@std@@QAE@PB_WPBU_Container_base0@1@@Z 00410e07 f i libcpmt:wlocale.obj
 0001:0000fe15       ??0?$_String_val@U?$_Simple_types@G@std@@@std@@QAE@XZ 00410e15 f i libcpmt:wlocale.obj
 0001:0000fe22       ??0?$_String_val@U?$_Simple_types@_W@std@@@std@@QAE@XZ 00410e22 f i libcpmt:wlocale.obj
 0001:0000fe2f       ??0?$allocator@G@std@@QAE@XZ 00410e2f f i libcpmt:wlocale.obj
 0001:0000fe32       ??0?$allocator@_W@std@@QAE@XZ 00410e32 f i libcpmt:wlocale.obj
 0001:0000fe35       ??0?$basic_string@GU?$char_traits@G@std@@V?$allocator@G@2@@std@@QAE@$$QAV01@@Z 00410e35 f i libcpmt:wlocale.obj
 0001:0000fe9a       ??0?$basic_string@GU?$char_traits@G@std@@V?$allocator@G@2@@std@@QAE@ABV01@@Z 00410e9a f i libcpmt:wlocale.obj
 0001:0000feb9       ??0?$basic_string@GU?$char_traits@G@std@@V?$allocator@G@2@@std@@QAE@IG@Z 00410eb9 f i libcpmt:wlocale.obj
 0001:0000fef3       ??0?$basic_string@GU?$char_traits@G@std@@V?$allocator@G@2@@std@@QAE@QBG@Z 00410ef3 f i libcpmt:wlocale.obj
 0001:0000ff2a       ??0?$basic_string@GU?$char_traits@G@std@@V?$allocator@G@2@@std@@QAE@QBGI@Z 00410f2a f i libcpmt:wlocale.obj
 0001:0000ff64       ??0?$basic_string@GU?$char_traits@G@std@@V?$allocator@G@2@@std@@QAE@XZ 00410f64 f i libcpmt:wlocale.obj
 0001:0000ffa8       ??0?$basic_string@_WU?$char_traits@_W@std@@V?$allocator@_W@2@@std@@QAE@$$QAV01@@Z 00410fa8 f i libcpmt:wlocale.obj
 0001:0001000d       ??0?$basic_string@_WU?$char_traits@_W@std@@V?$allocator@_W@2@@std@@QAE@ABV01@@Z 0041100d f i libcpmt:wlocale.obj
 0001:0001002c       ??0?$basic_string@_WU?$char_traits@_W@std@@V?$allocator@_W@2@@std@@QAE@I_W@Z 0041102c f i libcpmt:wlocale.obj
 0001:00010066       ??0?$basic_string@_WU?$char_traits@_W@std@@V?$allocator@_W@2@@std@@QAE@QB_W@Z 00411066 f i libcpmt:wlocale.obj
 0001:0001009d       ??0?$basic_string@_WU?$char_traits@_W@std@@V?$allocator@_W@2@@std@@QAE@QB_WI@Z 0041109d f i libcpmt:wlocale.obj
 0001:000100d7       ??0?$basic_string@_WU?$char_traits@_W@std@@V?$allocator@_W@2@@std@@QAE@XZ 004110d7 f i libcpmt:wlocale.obj
 0001:0001011b       ??0?$codecvt@GDU_Mbstatet@@@std@@QAE@ABV_Locinfo@1@I@Z 0041111b f i libcpmt:wlocale.obj
 0001:00010152       ??0?$codecvt@_WDU_Mbstatet@@@std@@QAE@ABV_Locinfo@1@I@Z 00411152 f i libcpmt:wlocale.obj
 0001:00010189       ??0?$collate@G@std@@QAE@ABV_Locinfo@1@I@Z 00411189 f i libcpmt:wlocale.obj
 0001:000101b1       ??0?$collate@_W@std@@QAE@ABV_Locinfo@1@I@Z 004111b1 f i libcpmt:wlocale.obj
 0001:000101d9       ??0?$ctype@G@std@@QAE@ABV_Locinfo@1@I@Z 004111d9 f i libcpmt:wlocale.obj
 0001:000101fe       ??0?$ctype@_W@std@@QAE@ABV_Locinfo@1@I@Z 004111fe f i libcpmt:wlocale.obj
 0001:00010223       ??0?$messages@G@std@@QAE@ABV_Locinfo@1@I@Z 00411223 f i libcpmt:wlocale.obj
 0001:0001023c       ??0?$messages@_W@std@@QAE@ABV_Locinfo@1@I@Z 0041123c f i libcpmt:wlocale.obj
 0001:00010255       ??0?$money_get@GV?$istreambuf_iterator@GU?$char_traits@G@std@@@std@@@std@@QAE@ABV_Locinfo@1@I@Z 00411255 f i libcpmt:wlocale.obj
 0001:0001026e       ??0?$money_get@_WV?$istreambuf_iterator@_WU?$char_traits@_W@std@@@std@@@std@@QAE@ABV_Locinfo@1@I@Z 0041126e f i libcpmt:wlocale.obj
 0001:00010287       ??0?$money_put@GV?$ostreambuf_iterator@GU?$char_traits@G@std@@@std@@@std@@QAE@ABV_Locinfo@1@I@Z 00411287 f i libcpmt:wlocale.obj
 0001:000102a0       ??0?$money_put@_WV?$ostreambuf_iterator@_WU?$char_traits@_W@std@@@std@@@std@@QAE@ABV_Locinfo@1@I@Z 004112a0 f i libcpmt:wlocale.obj
 0001:000102b9       ??0?$moneypunct@G$00@std@@QAE@ABV_Locinfo@1@I_N@Z 004112b9 f i libcpmt:wlocale.obj
 0001:000102e0       ??0?$moneypunct@G$0A@@std@@QAE@ABV_Locinfo@1@I_N@Z 004112e0 f i libcpmt:wlocale.obj
 0001:00010307       ??0?$moneypunct@_W$00@std@@QAE@ABV_Locinfo@1@I_N@Z 00411307 f i libcpmt:wlocale.obj
 0001:0001032e       ??0?$moneypunct@_W$0A@@std@@QAE@ABV_Locinfo@1@I_N@Z 0041132e f i libcpmt:wlocale.obj
 0001:00010355       ??0?$num_get@GV?$istreambuf_iterator@GU?$char_traits@G@std@@@std@@@std@@QAE@ABV_Locinfo@1@I@Z 00411355 f i libcpmt:wlocale.obj
 0001:0001036e       ??0?$num_get@_WV?$istreambuf_iterator@_WU?$char_traits@_W@std@@@std@@@std@@QAE@ABV_Locinfo@1@I@Z 0041136e f i libcpmt:wlocale.obj
 0001:00010387       ??0?$num_put@GV?$ostreambuf_iterator@GU?$char_traits@G@std@@@std@@@std@@QAE@ABV_Locinfo@1@I@Z 00411387 f i libcpmt:wlocale.obj
 0001:000103a0       ??0?$num_put@_WV?$ostreambuf_iterator@_WU?$char_traits@_W@std@@@std@@@std@@QAE@ABV_Locinfo@1@I@Z 004113a0 f i libcpmt:wlocale.obj
 0001:000103b9       ??0?$numpunct@G@std@@QAE@ABV_Locinfo@1@I_N@Z 004113b9 f i libcpmt:wlocale.obj
 0001:000103ef       ??0?$numpunct@_W@std@@QAE@ABV_Locinfo@1@I_N@Z 004113ef f i libcpmt:wlocale.obj
 0001:00010425       ??0?$time_get@GV?$istreambuf_iterator@GU?$char_traits@G@std@@@std@@@std@@QAE@ABV_Locinfo@1@I@Z 00411425 f i libcpmt:wlocale.obj
 0001:00010458       ??0?$time_get@_WV?$istreambuf_iterator@_WU?$char_traits@_W@std@@@std@@@std@@QAE@ABV_Locinfo@1@I@Z 00411458 f i libcpmt:wlocale.obj
 0001:0001048b       ??0?$time_put@GV?$ostreambuf_iterator@GU?$char_traits@G@std@@@std@@@std@@QAE@ABV_Locinfo@1@I@Z 0041148b f i libcpmt:wlocale.obj
 0001:000104b4       ??0?$time_put@_WV?$ostreambuf_iterator@_WU?$char_traits@_W@std@@@std@@@std@@QAE@ABV_Locinfo@1@I@Z 004114b4 f i libcpmt:wlocale.obj
 0001:000104dd       ??0_Bxty@?$_String_val@U?$_Simple_types@G@std@@@std@@QAE@XZ 004114dd f i libcpmt:wlocale.obj
 0001:000104e3       ??0_Bxty@?$_String_val@U?$_Simple_types@_W@std@@@std@@QAE@XZ 004114e3 f i libcpmt:wlocale.obj
 0001:000104e9       ??0_Timevec@std@@QAE@PAX@Z 004114e9 f i libcpmt:wlocale.obj
 0001:000104f7       ??0messages_base@std@@QAE@I@Z 004114f7 f i libcpmt:wlocale.obj
 0001:00010510       ??0money_base@std@@QAE@I@Z 00411510 f i libcpmt:wlocale.obj
 0001:00010529       ??0time_base@std@@QAE@I@Z  00411529 f i libcpmt:wlocale.obj
 0001:00010542       ??1?$_Compressed_pair@V?$allocator@G@std@@V?$_String_val@U?$_Simple_types@G@std@@@2@$00@std@@QAE@XZ 00411542 f i libcpmt:wlocale.obj
 0001:00010545       ??1?$_Compressed_pair@V?$allocator@_W@std@@V?$_String_val@U?$_Simple_types@_W@std@@@2@$00@std@@QAE@XZ 00411545 f i libcpmt:wlocale.obj
 0001:00010548       ??1?$_Mpunct@G@std@@MAE@XZ 00411548 f i libcpmt:wlocale.obj
 0001:0001055e       ??1?$_Mpunct@_W@std@@MAE@XZ 0041155e f i libcpmt:wlocale.obj
 0001:00010574       ??1?$_String_val@U?$_Simple_types@G@std@@@std@@QAE@XZ 00411574 f i libcpmt:wlocale.obj
 0001:00010577       ??1?$_String_val@U?$_Simple_types@_W@std@@@std@@QAE@XZ 00411577 f i libcpmt:wlocale.obj
 0001:0001057a       ??1?$_Tidy_guard@V?$_Mpunct@G@std@@@std@@QAE@XZ 0041157a f i libcpmt:wlocale.obj
 0001:00010585       ??1?$_Tidy_guard@V?$_Mpunct@_W@std@@@std@@QAE@XZ 00411585 f i libcpmt:wlocale.obj
 0001:00010590       ??1?$_Tidy_guard@V?$numpunct@G@std@@@std@@QAE@XZ 00411590 f i libcpmt:wlocale.obj
 0001:0001059b       ??1?$_Tidy_guard@V?$numpunct@_W@std@@@std@@QAE@XZ 0041159b f i libcpmt:wlocale.obj
 0001:000105a6       ??1?$_Tidy_guard@V?$time_get@GV?$istreambuf_iterator@GU?$char_traits@G@std@@@std@@@std@@@std@@QAE@XZ 004115a6 f i libcpmt:wlocale.obj
 0001:000105b1       ??1?$_Tidy_guard@V?$time_get@_WV?$istreambuf_iterator@_WU?$char_traits@_W@std@@@std@@@std@@@std@@QAE@XZ 004115b1 f i libcpmt:wlocale.obj
 0001:000105bc       ??1?$basic_string@GU?$char_traits@G@std@@V?$allocator@G@2@@std@@QAE@XZ 004115bc f i libcpmt:wlocale.obj
 0001:000105c1       ??1?$basic_string@_WU?$char_traits@_W@std@@V?$allocator@_W@2@@std@@QAE@XZ 004115c1 f i libcpmt:wlocale.obj
 0001:000105c6       ??1?$codecvt@GDU_Mbstatet@@@std@@MAE@XZ 004115c6 f i libcpmt:wlocale.obj
 0001:000105cd       ??1?$codecvt@_WDU_Mbstatet@@@std@@MAE@XZ 004115cd f i libcpmt:wlocale.obj
 0001:000105d4       ??1?$collate@G@std@@MAE@XZ 004115d4 f i libcpmt:wlocale.obj
 0001:000105ee       ??1?$collate@_W@std@@MAE@XZ 004115ee f i libcpmt:wlocale.obj
 0001:00010608       ??1?$ctype@G@std@@MAE@XZ   00411608 f i libcpmt:wlocale.obj
 0001:00010631       ??1?$ctype@_W@std@@MAE@XZ  00411631 f i libcpmt:wlocale.obj
 0001:0001065a       ??1?$messages@G@std@@MAE@XZ 0041165a f i libcpmt:wlocale.obj
 0001:00010661       ??1?$messages@_W@std@@MAE@XZ 00411661 f i libcpmt:wlocale.obj
 0001:00010668       ??1?$money_get@GV?$istreambuf_iterator@GU?$char_traits@G@std@@@std@@@std@@MAE@XZ 00411668 f i libcpmt:wlocale.obj
 0001:0001066f       ??1?$money_get@_WV?$istreambuf_iterator@_WU?$char_traits@_W@std@@@std@@@std@@MAE@XZ 0041166f f i libcpmt:wlocale.obj
 0001:00010676       ??1?$money_put@GV?$ostreambuf_iterator@GU?$char_traits@G@std@@@std@@@std@@MAE@XZ 00411676 f i libcpmt:wlocale.obj
 0001:0001067d       ??1?$money_put@_WV?$ostreambuf_iterator@_WU?$char_traits@_W@std@@@std@@@std@@MAE@XZ 0041167d f i libcpmt:wlocale.obj
 0001:00010684       ??1?$moneypunct@G$00@std@@MAE@XZ 00411684 f i libcpmt:wlocale.obj
 0001:0001069a       ??1?$moneypunct@G$0A@@std@@MAE@XZ 0041169a f i libcpmt:wlocale.obj
 0001:000106b0       ??1?$moneypunct@_W$00@std@@MAE@XZ 004116b0 f i libcpmt:wlocale.obj
 0001:000106c6       ??1?$moneypunct@_W$0A@@std@@MAE@XZ 004116c6 f i libcpmt:wlocale.obj
 0001:000106dc       ??1?$num_get@GV?$istreambuf_iterator@GU?$char_traits@G@std@@@std@@@std@@MAE@XZ 004116dc f i libcpmt:wlocale.obj
 0001:000106e3       ??1?$num_get@_WV?$istreambuf_iterator@_WU?$char_traits@_W@std@@@std@@@std@@MAE@XZ 004116e3 f i libcpmt:wlocale.obj
 0001:000106ea       ??1?$num_put@GV?$ostreambuf_iterator@GU?$char_traits@G@std@@@std@@@std@@MAE@XZ 004116ea f i libcpmt:wlocale.obj
 0001:000106f1       ??1?$num_put@_WV?$ostreambuf_iterator@_WU?$char_traits@_W@std@@@std@@@std@@MAE@XZ 004116f1 f i libcpmt:wlocale.obj
 0001:000106f8       ??1?$numpunct@G@std@@MAE@XZ 004116f8 f i libcpmt:wlocale.obj
 0001:0001070e       ??1?$numpunct@_W@std@@MAE@XZ 0041170e f i libcpmt:wlocale.obj
 0001:00010724       ??1?$time_get@GV?$istreambuf_iterator@GU?$char_traits@G@std@@@std@@@std@@MAE@XZ 00411724 f i libcpmt:wlocale.obj
 0001:0001073a       ??1?$time_get@_WV?$istreambuf_iterator@_WU?$char_traits@_W@std@@@std@@@std@@MAE@XZ 0041173a f i libcpmt:wlocale.obj
 0001:00010750       ??1?$time_put@GV?$ostreambuf_iterator@GU?$char_traits@G@std@@@std@@@std@@MAE@XZ 00411750 f i libcpmt:wlocale.obj
 0001:0001076a       ??1?$time_put@_WV?$ostreambuf_iterator@_WU?$char_traits@_W@std@@@std@@@std@@MAE@XZ 0041176a f i libcpmt:wlocale.obj
 0001:00010784       ??1_Bxty@?$_String_val@U?$_Simple_types@G@std@@@std@@QAE@XZ 00411784 f i libcpmt:wlocale.obj
 0001:00010787       ??1_Bxty@?$_String_val@U?$_Simple_types@_W@std@@@std@@QAE@XZ 00411787 f i libcpmt:wlocale.obj
 0001:0001078a       ??1_Timevec@std@@QAE@XZ    0041178a f i libcpmt:wlocale.obj
 0001:00010793       ??1messages_base@std@@UAE@XZ 00411793 f i libcpmt:wlocale.obj
 0001:0001079a       ??1money_base@std@@UAE@XZ  0041179a f i libcpmt:wlocale.obj
 0001:000107a1       ??1time_base@std@@UAE@XZ   004117a1 f i libcpmt:wlocale.obj
 0001:000107a8       ??4?$_Yarn@_W@std@@QAEAAV01@PB_W@Z 004117a8 f i libcpmt:wlocale.obj
 0001:00010804       ??4?$basic_string@GU?$char_traits@G@std@@V?$allocator@G@2@@std@@QAEAAV01@$$QAV01@@Z 00411804 f i libcpmt:wlocale.obj
 0001:0001086a       ??4?$basic_string@_WU?$char_traits@_W@std@@V?$allocator@_W@2@@std@@QAEAAV01@$$QAV01@@Z 0041186a f i libcpmt:wlocale.obj
 0001:000108d0       ??4?$ostreambuf_iterator@GU?$char_traits@G@std@@@std@@QAEAAV01@G@Z 004118d0 f i libcpmt:wlocale.obj
 0001:000108f9       ??4?$ostreambuf_iterator@_WU?$char_traits@_W@std@@@std@@QAEAAV01@_W@Z 004118f9 f i libcpmt:wlocale.obj
 0001:00010922       ??4_Timevec@std@@QAEAAV01@ABV01@@Z 00411922 f i libcpmt:wlocale.obj
 0001:00010947       ??8?$_String_const_iterator@V?$_String_val@U?$_Simple_types@G@std@@@std@@@std@@QBE_NABV01@@Z 00411947 f i libcpmt:wlocale.obj
 0001:00010958       ??8?$_String_const_iterator@V?$_String_val@U?$_Simple_types@_W@std@@@std@@@std@@QBE_NABV01@@Z 00411958 f i libcpmt:wlocale.obj
 0001:00010969       ??A?$basic_string@GU?$char_traits@G@std@@V?$allocator@G@2@@std@@QAEAAGI@Z 00411969 f i libcpmt:wlocale.obj
 0001:0001097e       ??A?$basic_string@GU?$char_traits@G@std@@V?$allocator@G@2@@std@@QBEABGI@Z 0041197e f i libcpmt:wlocale.obj
 0001:00010993       ??A?$basic_string@_WU?$char_traits@_W@std@@V?$allocator@_W@2@@std@@QAEAA_WI@Z 00411993 f i libcpmt:wlocale.obj
 0001:000109a8       ??A?$basic_string@_WU?$char_traits@_W@std@@V?$allocator@_W@2@@std@@QBEAB_WI@Z 004119a8 f i libcpmt:wlocale.obj
 0001:000109bd       ??D?$_String_const_iterator@V?$_String_val@U?$_Simple_types@G@std@@@std@@@std@@QBEABGXZ 004119bd f i libcpmt:wlocale.obj
 0001:000109c0       ??D?$_String_const_iterator@V?$_String_val@U?$_Simple_types@_W@std@@@std@@@std@@QBEAB_WXZ 004119c0 f i libcpmt:wlocale.obj
 0001:000109c3       ??D?$_String_iterator@V?$_String_val@U?$_Simple_types@G@std@@@std@@@std@@QBEAAGXZ 004119c3 f i libcpmt:wlocale.obj
 0001:000109c6       ??D?$_String_iterator@V?$_String_val@U?$_Simple_types@_W@std@@@std@@@std@@QBEAA_WXZ 004119c6 f i libcpmt:wlocale.obj
 0001:000109c9       ??D?$istreambuf_iterator@GU?$char_traits@G@std@@@std@@QBEGXZ 004119c9 f i libcpmt:wlocale.obj
 0001:000109dd       ??D?$istreambuf_iterator@_WU?$char_traits@_W@std@@@std@@QBE_WXZ 004119dd f i libcpmt:wlocale.obj
 0001:000109f1       ??D?$ostreambuf_iterator@GU?$char_traits@G@std@@@std@@QAEAAV01@XZ 004119f1 f i libcpmt:wlocale.obj
 0001:000109f4       ??D?$ostreambuf_iterator@_WU?$char_traits@_W@std@@@std@@QAEAAV01@XZ 004119f4 f i libcpmt:wlocale.obj
 0001:000109f7       ??E?$_String_const_iterator@V?$_String_val@U?$_Simple_types@G@std@@@std@@@std@@QAEAAV01@XZ 004119f7 f i libcpmt:wlocale.obj
 0001:000109fd       ??E?$_String_const_iterator@V?$_String_val@U?$_Simple_types@_W@std@@@std@@@std@@QAEAAV01@XZ 004119fd f i libcpmt:wlocale.obj
 0001:00010a03       ??E?$_String_iterator@V?$_String_val@U?$_Simple_types@G@std@@@std@@@std@@QAEAAV01@XZ 00411a03 f i libcpmt:wlocale.obj
 0001:00010a09       ??E?$_String_iterator@V?$_String_val@U?$_Simple_types@_W@std@@@std@@@std@@QAEAAV01@XZ 00411a09 f i libcpmt:wlocale.obj
 0001:00010a0f       ??E?$istreambuf_iterator@GU?$char_traits@G@std@@@std@@QAEAAV01@XZ 00411a0f f i libcpmt:wlocale.obj
 0001:00010a1b       ??E?$istreambuf_iterator@_WU?$char_traits@_W@std@@@std@@QAEAAV01@XZ 00411a1b f i libcpmt:wlocale.obj
 0001:00010a27       ??E?$ostreambuf_iterator@GU?$char_traits@G@std@@@std@@QAEAAV01@H@Z 00411a27 f i libcpmt:wlocale.obj
 0001:00010a2c       ??E?$ostreambuf_iterator@GU?$char_traits@G@std@@@std@@QAEAAV01@XZ 00411a2c f i libcpmt:wlocale.obj
 0001:00010a2f       ??E?$ostreambuf_iterator@_WU?$char_traits@_W@std@@@std@@QAEAAV01@H@Z 00411a2f f i libcpmt:wlocale.obj
 0001:00010a34       ??E?$ostreambuf_iterator@_WU?$char_traits@_W@std@@@std@@QAEAAV01@XZ 00411a34 f i libcpmt:wlocale.obj
 0001:00010a37       ??G?$_String_iterator@V?$_String_val@U?$_Simple_types@G@std@@@std@@@std@@QBE?AV01@H@Z 00411a37 f i libcpmt:wlocale.obj
 0001:00010a4c       ??G?$_String_iterator@V?$_String_val@U?$_Simple_types@_W@std@@@std@@@std@@QBE?AV01@H@Z 00411a4c f i libcpmt:wlocale.obj
 0001:00010a61       ??H?$_String_iterator@V?$_String_val@U?$_Simple_types@G@std@@@std@@@std@@QBE?AV01@H@Z 00411a61 f i libcpmt:wlocale.obj
 0001:00010a75       ??H?$_String_iterator@V?$_String_val@U?$_Simple_types@_W@std@@@std@@@std@@QBE?AV01@H@Z 00411a75 f i libcpmt:wlocale.obj
 0001:00010a89       ??R<lambda_1>@?1??append@?$basic_string@GU?$char_traits@G@std@@V?$allocator@G@2@@std@@QAEAAV23@IG@Z@QBE@QAGQBGIIG@Z 00411a89 f i libcpmt:wlocale.obj
 0001:00010ac5       ??R<lambda_1>@?1??append@?$basic_string@GU?$char_traits@G@std@@V?$allocator@G@2@@std@@QAEAAV23@QBGI@Z@QBE@QAG0I0I@Z 00411ac5 f i libcpmt:wlocale.obj
 0001:00010b04       ??R<lambda_1>@?1??append@?$basic_string@_WU?$char_traits@_W@std@@V?$allocator@_W@2@@std@@QAEAAV23@I_W@Z@QBE@QA_WQB_WII0@Z 00411b04 f i libcpmt:wlocale.obj
 0001:00010b40       ??R<lambda_1>@?1??append@?$basic_string@_WU?$char_traits@_W@std@@V?$allocator@_W@2@@std@@QAEAAV23@QB_WI@Z@QBE@QA_W0I0I@Z 00411b40 f i libcpmt:wlocale.obj
 0001:00010b7f       ??R<lambda_1>@?1??assign@?$basic_string@GU?$char_traits@G@std@@V?$allocator@G@2@@std@@QAEAAV23@IG@Z@QBE@QAGIG@Z 00411b7f f i libcpmt:wlocale.obj
 0001:00010ba3       ??R<lambda_1>@?1??assign@?$basic_string@GU?$char_traits@G@std@@V?$allocator@G@2@@std@@QAEAAV23@QBGI@Z@QBE@QAGI0@Z 00411ba3 f i libcpmt:wlocale.obj
 0001:00010bca       ??R<lambda_1>@?1??assign@?$basic_string@_WU?$char_traits@_W@std@@V?$allocator@_W@2@@std@@QAEAAV23@I_W@Z@QBE@QA_WI0@Z 00411bca f i libcpmt:wlocale.obj
 0001:00010bee       ??R<lambda_1>@?1??assign@?$basic_string@_WU?$char_traits@_W@std@@V?$allocator@_W@2@@std@@QAEAAV23@QB_WI@Z@QBE@QA_WI0@Z 00411bee f i libcpmt:wlocale.obj
 0001:00010c15       ??R<lambda_1>@?1??insert@?$basic_string@GU?$char_traits@G@std@@V?$allocator@G@2@@std@@QAEAAV23@IIG@Z@QBE@QAGQBGIIIG@Z 00411c15 f i libcpmt:wlocale.obj
 0001:00010c68       ??R<lambda_1>@?1??insert@?$basic_string@_WU?$char_traits@_W@std@@V?$allocator@_W@2@@std@@QAEAAV23@II_W@Z@QBE@QA_WQB_WIII0@Z 00411c68 f i libcpmt:wlocale.obj
 0001:00010cbb       ??R<lambda_1>@?1??push_back@?$basic_string@GU?$char_traits@G@std@@V?$allocator@G@2@@std@@QAEXG@Z@QBE@QAGQBGIG@Z 00411cbb f i libcpmt:wlocale.obj
 0001:00010ceb       ??R<lambda_1>@?1??push_back@?$basic_string@_WU?$char_traits@_W@std@@V?$allocator@_W@2@@std@@QAEX_W@Z@QBE@QA_WQB_WI0@Z 00411ceb f i libcpmt:wlocale.obj
 0001:00010d1b       ??Y?$_String_const_iterator@V?$_String_val@U?$_Simple_types@G@std@@@std@@@std@@QAEAAV01@H@Z 00411d1b f i libcpmt:wlocale.obj
 0001:00010d2b       ??Y?$_String_const_iterator@V?$_String_val@U?$_Simple_types@_W@std@@@std@@@std@@QAEAAV01@H@Z 00411d2b f i libcpmt:wlocale.obj
 0001:00010d3b       ??Y?$_String_iterator@V?$_String_val@U?$_Simple_types@G@std@@@std@@@std@@QAEAAV01@H@Z 00411d3b f i libcpmt:wlocale.obj
 0001:00010d4b       ??Y?$_String_iterator@V?$_String_val@U?$_Simple_types@_W@std@@@std@@@std@@QAEAAV01@H@Z 00411d4b f i libcpmt:wlocale.obj
 0001:00010d5b       ??Y?$basic_string@DU?$char_traits@D@std@@V?$allocator@D@2@@std@@QAEAAV01@D@Z 00411d5b f i libcpmt:wlocale.obj
 0001:00010d70       ??Y?$basic_string@GU?$char_traits@G@std@@V?$allocator@G@2@@std@@QAEAAV01@ABV01@@Z 00411d70 f i libcpmt:wlocale.obj
 0001:00010d79       ??Y?$basic_string@_WU?$char_traits@_W@std@@V?$allocator@_W@2@@std@@QAEAAV01@ABV01@@Z 00411d79 f i libcpmt:wlocale.obj
 0001:00010d82       ??Z?$_String_const_iterator@V?$_String_val@U?$_Simple_types@G@std@@@std@@@std@@QAEAAV01@H@Z 00411d82 f i libcpmt:wlocale.obj
 0001:00010d94       ??Z?$_String_const_iterator@V?$_String_val@U?$_Simple_types@_W@std@@@std@@@std@@QAEAAV01@H@Z 00411d94 f i libcpmt:wlocale.obj
 0001:00010da6       ??Z?$_String_iterator@V?$_String_val@U?$_Simple_types@G@std@@@std@@@std@@QAEAAV01@H@Z 00411da6 f i libcpmt:wlocale.obj
 0001:00010db8       ??Z?$_String_iterator@V?$_String_val@U?$_Simple_types@_W@std@@@std@@@std@@QAEAAV01@H@Z 00411db8 f i libcpmt:wlocale.obj
 0001:00010dca       ??_G?$_Mpunct@G@std@@MAEPAXI@Z 00411dca f i libcpmt:wlocale.obj
 0001:00010dca       ??_E?$_Mpunct@G@std@@MAEPAXI@Z 00411dca f i libcpmt:wlocale.obj
 0001:00010df8       ??_G?$_Mpunct@_W@std@@MAEPAXI@Z 00411df8 f i libcpmt:wlocale.obj
 0001:00010df8       ??_E?$_Mpunct@_W@std@@MAEPAXI@Z 00411df8 f i libcpmt:wlocale.obj
 0001:00010e26       ??_E?$codecvt@GDU_Mbstatet@@@std@@MAEPAXI@Z 00411e26 f i libcpmt:wlocale.obj
 0001:00010e26       ??_G?$codecvt@GDU_Mbstatet@@@std@@MAEPAXI@Z 00411e26 f i libcpmt:wlocale.obj
 0001:00010e49       ??_G?$codecvt@_WDU_Mbstatet@@@std@@MAEPAXI@Z 00411e49 f i libcpmt:wlocale.obj
 0001:00010e49       ??_E?$codecvt@_WDU_Mbstatet@@@std@@MAEPAXI@Z 00411e49 f i libcpmt:wlocale.obj
 0001:00010e6c       ??_E?$collate@G@std@@MAEPAXI@Z 00411e6c f i libcpmt:wlocale.obj
 0001:00010e6c       ??_G?$collate@G@std@@MAEPAXI@Z 00411e6c f i libcpmt:wlocale.obj
 0001:00010e8e       ??_E?$collate@_W@std@@MAEPAXI@Z 00411e8e f i libcpmt:wlocale.obj
 0001:00010e8e       ??_G?$collate@_W@std@@MAEPAXI@Z 00411e8e f i libcpmt:wlocale.obj
 0001:00010eb0       ??_E?$ctype@G@std@@MAEPAXI@Z 00411eb0 f i libcpmt:wlocale.obj
 0001:00010eb0       ??_G?$ctype@G@std@@MAEPAXI@Z 00411eb0 f i libcpmt:wlocale.obj
 0001:00010ed2       ??_E?$ctype@_W@std@@MAEPAXI@Z 00411ed2 f i libcpmt:wlocale.obj
 0001:00010ed2       ??_G?$ctype@_W@std@@MAEPAXI@Z 00411ed2 f i libcpmt:wlocale.obj
 0001:00010ef4       ??_E?$messages@G@std@@MAEPAXI@Z 00411ef4 f i libcpmt:wlocale.obj
 0001:00010ef4       ??_G?$messages@G@std@@MAEPAXI@Z 00411ef4 f i libcpmt:wlocale.obj
 0001:00010f17       ??_G?$messages@_W@std@@MAEPAXI@Z 00411f17 f i libcpmt:wlocale.obj
 0001:00010f17       ??_E?$messages@_W@std@@MAEPAXI@Z 00411f17 f i libcpmt:wlocale.obj
 0001:00010f3a       ??_G?$money_get@GV?$istreambuf_iterator@GU?$char_traits@G@std@@@std@@@std@@MAEPAXI@Z 00411f3a f i libcpmt:wlocale.obj
 0001:00010f3a       ??_E?$money_get@GV?$istreambuf_iterator@GU?$char_traits@G@std@@@std@@@std@@MAEPAXI@Z 00411f3a f i libcpmt:wlocale.obj
 0001:00010f5d       ??_E?$money_get@_WV?$istreambuf_iterator@_WU?$char_traits@_W@std@@@std@@@std@@MAEPAXI@Z 00411f5d f i libcpmt:wlocale.obj
 0001:00010f5d       ??_G?$money_get@_WV?$istreambuf_iterator@_WU?$char_traits@_W@std@@@std@@@std@@MAEPAXI@Z 00411f5d f i libcpmt:wlocale.obj
 0001:00010f80       ??_G?$money_put@GV?$ostreambuf_iterator@GU?$char_traits@G@std@@@std@@@std@@MAEPAXI@Z 00411f80 f i libcpmt:wlocale.obj
 0001:00010f80       ??_E?$money_put@GV?$ostreambuf_iterator@GU?$char_traits@G@std@@@std@@@std@@MAEPAXI@Z 00411f80 f i libcpmt:wlocale.obj
 0001:00010fa3       ??_G?$money_put@_WV?$ostreambuf_iterator@_WU?$char_traits@_W@std@@@std@@@std@@MAEPAXI@Z 00411fa3 f i libcpmt:wlocale.obj
 0001:00010fa3       ??_E?$money_put@_WV?$ostreambuf_iterator@_WU?$char_traits@_W@std@@@std@@@std@@MAEPAXI@Z 00411fa3 f i libcpmt:wlocale.obj
 0001:00010fc6       ??_E?$moneypunct@G$00@std@@MAEPAXI@Z 00411fc6 f i libcpmt:wlocale.obj
 0001:00010fc6       ??_G?$moneypunct@G$00@std@@MAEPAXI@Z 00411fc6 f i libcpmt:wlocale.obj
 0001:00010ff4       ??_G?$moneypunct@G$0A@@std@@MAEPAXI@Z 00411ff4 f i libcpmt:wlocale.obj
 0001:00010ff4       ??_E?$moneypunct@G$0A@@std@@MAEPAXI@Z 00411ff4 f i libcpmt:wlocale.obj
 0001:00011022       ??_E?$moneypunct@_W$00@std@@MAEPAXI@Z 00412022 f i libcpmt:wlocale.obj
 0001:00011022       ??_G?$moneypunct@_W$00@std@@MAEPAXI@Z 00412022 f i libcpmt:wlocale.obj
 0001:00011050       ??_G?$moneypunct@_W$0A@@std@@MAEPAXI@Z 00412050 f i libcpmt:wlocale.obj
 0001:00011050       ??_E?$moneypunct@_W$0A@@std@@MAEPAXI@Z 00412050 f i libcpmt:wlocale.obj
 0001:0001107e       ??_G?$num_get@GV?$istreambuf_iterator@GU?$char_traits@G@std@@@std@@@std@@MAEPAXI@Z 0041207e f i libcpmt:wlocale.obj
 0001:0001107e       ??_E?$num_get@GV?$istreambuf_iterator@GU?$char_traits@G@std@@@std@@@std@@MAEPAXI@Z 0041207e f i libcpmt:wlocale.obj
 0001:000110a1       ??_G?$num_get@_WV?$istreambuf_iterator@_WU?$char_traits@_W@std@@@std@@@std@@MAEPAXI@Z 004120a1 f i libcpmt:wlocale.obj
 0001:000110a1       ??_E?$num_get@_WV?$istreambuf_iterator@_WU?$char_traits@_W@std@@@std@@@std@@MAEPAXI@Z 004120a1 f i libcpmt:wlocale.obj
 0001:000110c4       ??_E?$num_put@GV?$ostreambuf_iterator@GU?$char_traits@G@std@@@std@@@std@@MAEPAXI@Z 004120c4 f i libcpmt:wlocale.obj
 0001:000110c4       ??_G?$num_put@GV?$ostreambuf_iterator@GU?$char_traits@G@std@@@std@@@std@@MAEPAXI@Z 004120c4 f i libcpmt:wlocale.obj
 0001:000110e7       ??_E?$num_put@_WV?$ostreambuf_iterator@_WU?$char_traits@_W@std@@@std@@@std@@MAEPAXI@Z 004120e7 f i libcpmt:wlocale.obj
 0001:000110e7       ??_G?$num_put@_WV?$ostreambuf_iterator@_WU?$char_traits@_W@std@@@std@@@std@@MAEPAXI@Z 004120e7 f i libcpmt:wlocale.obj
 0001:0001110a       ??_G?$numpunct@G@std@@MAEPAXI@Z 0041210a f i libcpmt:wlocale.obj
 0001:0001110a       ??_E?$numpunct@G@std@@MAEPAXI@Z 0041210a f i libcpmt:wlocale.obj
 0001:00011138       ??_E?$numpunct@_W@std@@MAEPAXI@Z 00412138 f i libcpmt:wlocale.obj
 0001:00011138       ??_G?$numpunct@_W@std@@MAEPAXI@Z 00412138 f i libcpmt:wlocale.obj
 0001:00011166       ??_E?$time_get@GV?$istreambuf_iterator@GU?$char_traits@G@std@@@std@@@std@@MAEPAXI@Z 00412166 f i libcpmt:wlocale.obj
 0001:00011166       ??_G?$time_get@GV?$istreambuf_iterator@GU?$char_traits@G@std@@@std@@@std@@MAEPAXI@Z 00412166 f i libcpmt:wlocale.obj
 0001:00011194       ??_G?$time_get@_WV?$istreambuf_iterator@_WU?$char_traits@_W@std@@@std@@@std@@MAEPAXI@Z 00412194 f i libcpmt:wlocale.obj
 0001:00011194       ??_E?$time_get@_WV?$istreambuf_iterator@_WU?$char_traits@_W@std@@@std@@@std@@MAEPAXI@Z 00412194 f i libcpmt:wlocale.obj
 0001:000111c2       ??_G?$time_put@GV?$ostreambuf_iterator@GU?$char_traits@G@std@@@std@@@std@@MAEPAXI@Z 004121c2 f i libcpmt:wlocale.obj
 0001:000111c2       ??_E?$time_put@GV?$ostreambuf_iterator@GU?$char_traits@G@std@@@std@@@std@@MAEPAXI@Z 004121c2 f i libcpmt:wlocale.obj
 0001:000111e4       ??_E?$time_put@_WV?$ostreambuf_iterator@_WU?$char_traits@_W@std@@@std@@@std@@MAEPAXI@Z 004121e4 f i libcpmt:wlocale.obj
 0001:000111e4       ??_G?$time_put@_WV?$ostreambuf_iterator@_WU?$char_traits@_W@std@@@std@@@std@@MAEPAXI@Z 004121e4 f i libcpmt:wlocale.obj
 0001:00011206       ??_Emessages_base@std@@UAEPAXI@Z 00412206 f i libcpmt:wlocale.obj
 0001:00011206       ??_Gmessages_base@std@@UAEPAXI@Z 00412206 f i libcpmt:wlocale.obj
 0001:00011229       ??_Emoney_base@std@@UAEPAXI@Z 00412229 f i libcpmt:wlocale.obj
 0001:00011229       ??_Gmoney_base@std@@UAEPAXI@Z 00412229 f i libcpmt:wlocale.obj
 0001:0001124c       ??_Etime_base@std@@UAEPAXI@Z 0041224c f i libcpmt:wlocale.obj
 0001:0001124c       ??_Gtime_base@std@@UAEPAXI@Z 0041224c f i libcpmt:wlocale.obj
 0001:0001126f       ?_Adopt@_Iterator_base0@std@@QAEXPBX@Z 0041226f f i libcpmt:wlocale.obj
 0001:00011272       ?_C_str@?$_Yarn@_W@std@@QBEPB_WXZ 00412272 f i libcpmt:wlocale.obj
 0001:0001127c       ?_Calculate_growth@?$basic_string@GU?$char_traits@G@std@@V?$allocator@G@2@@std@@ABEII@Z 0041227c f i libcpmt:wlocale.obj
 0001:00011296       ?_Calculate_growth@?$basic_string@GU?$char_traits@G@std@@V?$allocator@G@2@@std@@CAIIII@Z 00412296 f i libcpmt:wlocale.obj
 0001:000112c6       ?_Calculate_growth@?$basic_string@_WU?$char_traits@_W@std@@V?$allocator@_W@2@@std@@ABEII@Z 004122c6 f i libcpmt:wlocale.obj
 0001:000112e0       ?_Calculate_growth@?$basic_string@_WU?$char_traits@_W@std@@V?$allocator@_W@2@@std@@CAIIII@Z 004122e0 f i libcpmt:wlocale.obj
 0001:00011310       ?_Check_offset@?$_String_val@U?$_Simple_types@G@std@@@std@@QBEXI@Z 00412310 f i libcpmt:wlocale.obj
 0001:00011325       ?_Check_offset@?$_String_val@U?$_Simple_types@_W@std@@@std@@QBEXI@Z 00412325 f i libcpmt:wlocale.obj
 0001:0001133a       ?_Compat@?$_String_const_iterator@V?$_String_val@U?$_Simple_types@G@std@@@std@@@std@@QBEXABV12@@Z 0041233a f i libcpmt:wlocale.obj
 0001:0001133d       ?_Compat@?$_String_const_iterator@V?$_String_val@U?$_Simple_types@_W@std@@@std@@@std@@QBEXABV12@@Z 0041233d f i libcpmt:wlocale.obj
 0001:00011340       ?_Construct_lv_contents@?$basic_string@GU?$char_traits@G@std@@V?$allocator@G@2@@std@@AAEXABV12@@Z 00412340 f i libcpmt:wlocale.obj
 0001:000113aa       ?_Construct_lv_contents@?$basic_string@_WU?$char_traits@_W@std@@V?$allocator@_W@2@@std@@AAEXABV12@@Z 004123aa f i libcpmt:wlocale.obj
 0001:00011414       ?_Donarrow@?$ctype@G@std@@IBEDGD@Z 00412414 f i libcpmt:wlocale.obj
 0001:0001145c       ?_Donarrow@?$ctype@_W@std@@IBED_WD@Z 0041245c f i libcpmt:wlocale.obj
 0001:000114a4       ?_Dowiden@?$ctype@G@std@@IBEGD@Z 004124a4 f i libcpmt:wlocale.obj
 0001:000114df       ?_Dowiden@?$ctype@_W@std@@IBE_WD@Z 004124df f i libcpmt:wlocale.obj
 0001:00011518       ?_Empty@?$_Yarn@_W@std@@QBE_NXZ 00412518 f i libcpmt:wlocale.obj
 0001:0001151f       ?_Eos@?$basic_string@GU?$char_traits@G@std@@V?$allocator@G@2@@std@@AAEXI@Z 0041251f f i libcpmt:wlocale.obj
 0001:0001153c       ?_Eos@?$basic_string@_WU?$char_traits@_W@std@@V?$allocator@_W@2@@std@@AAEXI@Z 0041253c f i libcpmt:wlocale.obj
 0001:00011559       ?_Ffmt@?$num_put@GV?$ostreambuf_iterator@GU?$char_traits@G@std@@@std@@@std@@ABAPADPADDH@Z 00412559 f i libcpmt:wlocale.obj
 0001:000115ee       ?_Ffmt@?$num_put@_WV?$ostreambuf_iterator@_WU?$char_traits@_W@std@@@std@@@std@@ABAPADPADDH@Z 004125ee f i libcpmt:wlocale.obj
 0001:00011683       ?_Fnv1a_append_bytes@std@@YAIIQBEI@Z 00412683 f i libcpmt:wlocale.obj
 0001:000116ab       ?_Fput@?$num_put@GV?$ostreambuf_iterator@GU?$char_traits@G@std@@@std@@@std@@ABA?AV?$ostreambuf_iterator@GU?$char_traits@G@std@@@2@V32@AAVios_base@2@GPBDI@Z 004126ab f i libcpmt:wlocale.obj
 0001:000119b2       ?_Fput@?$num_put@_WV?$ostreambuf_iterator@_WU?$char_traits@_W@std@@@std@@@std@@ABA?AV?$ostreambuf_iterator@_WU?$char_traits@_W@std@@@2@V32@AAVios_base@2@_WPBDI@Z 004129b2 f i libcpmt:wlocale.obj
 0001:00011cb9       ?_Get_first@?$_Compressed_pair@V?$allocator@G@std@@V?$_String_val@U?$_Simple_types@G@std@@@2@$00@std@@QAEAAV?$allocator@G@2@XZ 00412cb9 f i libcpmt:wlocale.obj
 0001:00011cbc       ?_Get_first@?$_Compressed_pair@V?$allocator@G@std@@V?$_String_val@U?$_Simple_types@G@std@@@2@$00@std@@QBEABV?$allocator@G@2@XZ 00412cbc f i libcpmt:wlocale.obj
 0001:00011cbf       ?_Get_first@?$_Compressed_pair@V?$allocator@_W@std@@V?$_String_val@U?$_Simple_types@_W@std@@@2@$00@std@@QAEAAV?$allocator@_W@2@XZ 00412cbf f i libcpmt:wlocale.obj
 0001:00011cc2       ?_Get_first@?$_Compressed_pair@V?$allocator@_W@std@@V?$_String_val@U?$_Simple_types@_W@std@@@2@$00@std@@QBEABV?$allocator@_W@2@XZ 00412cc2 f i libcpmt:wlocale.obj
 0001:00011cc5       ?_Getal@?$basic_string@GU?$char_traits@G@std@@V?$allocator@G@2@@std@@AAEAAV?$allocator@G@2@XZ 00412cc5 f i libcpmt:wlocale.obj
 0001:00011cc8       ?_Getal@?$basic_string@GU?$char_traits@G@std@@V?$allocator@G@2@@std@@ABEABV?$allocator@G@2@XZ 00412cc8 f i libcpmt:wlocale.obj
 0001:00011ccb       ?_Getal@?$basic_string@_WU?$char_traits@_W@std@@V?$allocator@_W@2@@std@@AAEAAV?$allocator@_W@2@XZ 00412ccb f i libcpmt:wlocale.obj
 0001:00011cce       ?_Getal@?$basic_string@_WU?$char_traits@_W@std@@V?$allocator@_W@2@@std@@ABEABV?$allocator@_W@2@XZ 00412cce f i libcpmt:wlocale.obj
 0001:00011cd1       ?_Getcat@?$codecvt@GDU_Mbstatet@@@std@@SAIPAPBVfacet@locale@2@PBV42@@Z 00412cd1 f i libcpmt:wlocale.obj
 0001:00011d37       ?_Getcat@?$codecvt@_WDU_Mbstatet@@@std@@SAIPAPBVfacet@locale@2@PBV42@@Z 00412d37 f i libcpmt:wlocale.obj
 0001:00011d9d       ?_Getcat@?$collate@G@std@@SAIPAPBVfacet@locale@2@PBV42@@Z 00412d9d f i libcpmt:wlocale.obj
 0001:00011e3f       ?_Getcat@?$collate@_W@std@@SAIPAPBVfacet@locale@2@PBV42@@Z 00412e3f f i libcpmt:wlocale.obj
 0001:00011ee1       ?_Getcat@?$ctype@G@std@@SAIPAPBVfacet@locale@2@PBV42@@Z 00412ee1 f i libcpmt:wlocale.obj
 0001:00011f51       ?_Getcat@?$ctype@_W@std@@SAIPAPBVfacet@locale@2@PBV42@@Z 00412f51 f i libcpmt:wlocale.obj
 0001:00011fc1       ?_Getcat@?$messages@G@std@@SAIPAPBVfacet@locale@2@PBV42@@Z 00412fc1 f i libcpmt:wlocale.obj
 0001:00012029       ?_Getcat@?$messages@_W@std@@SAIPAPBVfacet@locale@2@PBV42@@Z 00413029 f i libcpmt:wlocale.obj
 0001:00012091       ?_Getcat@?$money_get@GV?$istreambuf_iterator@GU?$char_traits@G@std@@@std@@@std@@SAIPAPBVfacet@locale@2@PBV42@@Z 00413091 f i libcpmt:wlocale.obj
 0001:000120f9       ?_Getcat@?$money_get@_WV?$istreambuf_iterator@_WU?$char_traits@_W@std@@@std@@@std@@SAIPAPBVfacet@locale@2@PBV42@@Z 004130f9 f i libcpmt:wlocale.obj
 0001:00012161       ?_Getcat@?$money_put@GV?$ostreambuf_iterator@GU?$char_traits@G@std@@@std@@@std@@SAIPAPBVfacet@locale@2@PBV42@@Z 00413161 f i libcpmt:wlocale.obj
 0001:000121c9       ?_Getcat@?$money_put@_WV?$ostreambuf_iterator@_WU?$char_traits@_W@std@@@std@@@std@@SAIPAPBVfacet@locale@2@PBV42@@Z 004131c9 f i libcpmt:wlocale.obj
 0001:00012231       ?_Getcat@?$moneypunct@G$00@std@@SAIPAPBVfacet@locale@2@PBV42@@Z 00413231 f i libcpmt:wlocale.obj
 0001:000122b5       ?_Getcat@?$moneypunct@G$0A@@std@@SAIPAPBVfacet@locale@2@PBV42@@Z 004132b5 f i libcpmt:wlocale.obj
 0001:0001233a       ?_Getcat@?$moneypunct@_W$00@std@@SAIPAPBVfacet@locale@2@PBV42@@Z 0041333a f i libcpmt:wlocale.obj
 0001:000123be       ?_Getcat@?$moneypunct@_W$0A@@std@@SAIPAPBVfacet@locale@2@PBV42@@Z 004133be f i libcpmt:wlocale.obj
 0001:00012443       ?_Getcat@?$num_get@GV?$istreambuf_iterator@GU?$char_traits@G@std@@@std@@@std@@SAIPAPBVfacet@locale@2@PBV42@@Z 00413443 f i libcpmt:wlocale.obj
 0001:000124ab       ?_Getcat@?$num_get@_WV?$istreambuf_iterator@_WU?$char_traits@_W@std@@@std@@@std@@SAIPAPBVfacet@locale@2@PBV42@@Z 004134ab f i libcpmt:wlocale.obj
 0001:00012513       ?_Getcat@?$num_put@GV?$ostreambuf_iterator@GU?$char_traits@G@std@@@std@@@std@@SAIPAPBVfacet@locale@2@PBV42@@Z 00413513 f i libcpmt:wlocale.obj
 0001:0001257b       ?_Getcat@?$num_put@_WV?$ostreambuf_iterator@_WU?$char_traits@_W@std@@@std@@@std@@SAIPAPBVfacet@locale@2@PBV42@@Z 0041357b f i libcpmt:wlocale.obj
 0001:000125e3       ?_Getcat@?$numpunct@G@std@@SAIPAPBVfacet@locale@2@PBV42@@Z 004135e3 f i libcpmt:wlocale.obj
 0001:0001265e       ?_Getcat@?$numpunct@_W@std@@SAIPAPBVfacet@locale@2@PBV42@@Z 0041365e f i libcpmt:wlocale.obj
 0001:000126d9       ?_Getcat@?$time_get@GV?$istreambuf_iterator@GU?$char_traits@G@std@@@std@@@std@@SAIPAPBVfacet@locale@2@PBV42@@Z 004136d9 f i libcpmt:wlocale.obj
 0001:00012745       ?_Getcat@?$time_get@_WV?$istreambuf_iterator@_WU?$char_traits@_W@std@@@std@@@std@@SAIPAPBVfacet@locale@2@PBV42@@Z 00413745 f i libcpmt:wlocale.obj
 0001:000127b1       ?_Getcat@?$time_put@GV?$ostreambuf_iterator@GU?$char_traits@G@std@@@std@@@std@@SAIPAPBVfacet@locale@2@PBV42@@Z 004137b1 f i libcpmt:wlocale.obj
 0001:00012825       ?_Getcat@?$time_put@_WV?$ostreambuf_iterator@_WU?$char_traits@_W@std@@@std@@@std@@SAIPAPBVfacet@locale@2@PBV42@@Z 00413825 f i libcpmt:wlocale.obj
 0001:00012899       ?_Getcoll@_Locinfo@std@@QBE?AU_Collvec@@XZ 00413899 f i libcpmt:wlocale.obj
 0001:000128af       ?_Getdateorder@_Locinfo@std@@QBEHXZ 004138af f i libcpmt:wlocale.obj
 0001:000128b4       ?_Getdays@_Locinfo@std@@QBEPBDXZ 004138b4 f i libcpmt:wlocale.obj
 0001:000128e2       ?_Getffld@?$num_get@GV?$istreambuf_iterator@GU?$char_traits@G@std@@@std@@@std@@ABAHPADAAV?$istreambuf_iterator@GU?$char_traits@G@std@@@2@1AAVios_base@2@PAH@Z 004138e2 f i libcpmt:wlocale.obj
 0001:00012ff2       ?_Getffld@?$num_get@_WV?$istreambuf_iterator@_WU?$char_traits@_W@std@@@std@@@std@@ABAHPADAAV?$istreambuf_iterator@_WU?$char_traits@_W@std@@@2@1AAVios_base@2@PAH@Z 00413ff2 f i libcpmt:wlocale.obj
 0001:00013702       ?_Getffldx@?$num_get@GV?$istreambuf_iterator@GU?$char_traits@G@std@@@std@@@std@@ABAHPADAAV?$istreambuf_iterator@GU?$char_traits@G@std@@@2@1AAVios_base@2@PAH@Z 00414702 f i libcpmt:wlocale.obj
 0001:00013e95       ?_Getffldx@?$num_get@_WV?$istreambuf_iterator@_WU?$char_traits@_W@std@@@std@@@std@@ABAHPADAAV?$istreambuf_iterator@_WU?$char_traits@_W@std@@@2@1AAVios_base@2@PAH@Z 00414e95 f i libcpmt:wlocale.obj
 0001:00014628       ?_Getfmt@?$time_get@GV?$istreambuf_iterator@GU?$char_traits@G@std@@@std@@@std@@IBE?AV?$istreambuf_iterator@GU?$char_traits@G@std@@@2@V32@0AAVios_base@2@AAHPAUtm@@PBD@Z 00415628 f i libcpmt:wlocale.obj
 0001:0001477d       ?_Getfmt@?$time_get@_WV?$istreambuf_iterator@_WU?$char_traits@_W@std@@@std@@@std@@IBE?AV?$istreambuf_iterator@_WU?$char_traits@_W@std@@@2@V32@0AAVios_base@2@AAHPAUtm@@PBD@Z 0041577d f i libcpmt:wlocale.obj
 0001:000148d2       ?_Getifld@?$num_get@GV?$istreambuf_iterator@GU?$char_traits@G@std@@@std@@@std@@ABAHPADAAV?$istreambuf_iterator@GU?$char_traits@G@std@@@2@1HABVlocale@2@@Z 004158d2 f i libcpmt:wlocale.obj
 0001:00014cad       ?_Getifld@?$num_get@_WV?$istreambuf_iterator@_WU?$char_traits@_W@std@@@std@@@std@@ABAHPADAAV?$istreambuf_iterator@_WU?$char_traits@_W@std@@@2@1HABVlocale@2@@Z 00415cad f i libcpmt:wlocale.obj
 0001:00015088       ?_Getint@?$time_get@GV?$istreambuf_iterator@GU?$char_traits@G@std@@@std@@@std@@ABAHAAV?$istreambuf_iterator@GU?$char_traits@G@std@@@2@0HHAAHABV?$ctype@G@2@@Z 00416088 f i libcpmt:wlocale.obj
 0001:000152ac       ?_Getint@?$time_get@_WV?$istreambuf_iterator@_WU?$char_traits@_W@std@@@std@@@std@@ABAHAAV?$istreambuf_iterator@_WU?$char_traits@_W@std@@@2@0HHAAHABV?$ctype@_W@2@@Z 004162ac f i libcpmt:wlocale.obj
 0001:000154d0       ?_Getmfld@?$money_get@GV?$istreambuf_iterator@GU?$char_traits@G@std@@@std@@@std@@ABE?AV?$basic_string@DU?$char_traits@D@std@@V?$allocator@D@2@@2@AAV?$istreambuf_iterator@GU?$char_traits@G@std@@@2@0_NAAVios_base@2@AAY0M@G@Z 004164d0 f i libcpmt:wlocale.obj
 0001:00015fdf       ?_Getmfld@?$money_get@_WV?$istreambuf_iterator@_WU?$char_traits@_W@std@@@std@@@std@@ABE?AV?$basic_string@DU?$char_traits@D@std@@V?$allocator@D@2@@2@AAV?$istreambuf_iterator@_WU?$char_traits@_W@std@@@2@0_NAAVios_base@2@AAY0M@_W@Z 00416fdf f i libcpmt:wlocale.obj
 0001:00016aee       ?_Getmonths@_Locinfo@std@@QBEPBDXZ 00417aee f i libcpmt:wlocale.obj
 0001:00016b1c       ?_Getptr@_Timevec@std@@QBEPAXXZ 00417b1c f i libcpmt:wlocale.obj
 0001:00016b1f       ?_Getvals@?$_Mpunct@_W@std@@IAEX_WPBUlconv@@@Z 00417b1f f i libcpmt:wlocale.obj
 0001:00016b8b       ?_Getvals@?$numpunct@_W@std@@IAEX_WPBUlconv@@U_Cvtvec@@@Z 00417b8b f i libcpmt:wlocale.obj
 0001:00016ba9       ?_Gnavail@?$basic_streambuf@GU?$char_traits@G@std@@@std@@IBE_JXZ 00417ba9 f i libcpmt:wlocale.obj
 0001:00016bbb       ?_Gnavail@?$basic_streambuf@_WU?$char_traits@_W@std@@@std@@IBE_JXZ 00417bbb f i libcpmt:wlocale.obj
 0001:00016bcd       ?_Gninc@?$basic_streambuf@GU?$char_traits@G@std@@@std@@IAEPAGXZ 00417bcd f i libcpmt:wlocale.obj
 0001:00016bdd       ?_Gninc@?$basic_streambuf@_WU?$char_traits@_W@std@@@std@@IAEPA_WXZ 00417bdd f i libcpmt:wlocale.obj
 0001:00016bed       ?_Ifmt@?$num_put@GV?$ostreambuf_iterator@GU?$char_traits@G@std@@@std@@@std@@ABAPADPADPBDH@Z 00417bed f i libcpmt:wlocale.obj
 0001:00016c62       ?_Ifmt@?$num_put@_WV?$ostreambuf_iterator@_WU?$char_traits@_W@std@@@std@@@std@@ABAPADPADPBDH@Z 00417c62 f i libcpmt:wlocale.obj
 0001:00016cd7       ?_Inc@?$istreambuf_iterator@GU?$char_traits@G@std@@@std@@AAEXXZ 00417cd7 f i libcpmt:wlocale.obj
 0001:00016cfd       ?_Inc@?$istreambuf_iterator@_WU?$char_traits@_W@std@@@std@@AAEXXZ 00417cfd f i libcpmt:wlocale.obj
 0001:00016d23       ?_Init@?$_Mpunct@G@std@@IAEXABV_Locinfo@2@_N@Z 00417d23 f i libcpmt:wlocale.obj
 0001:00016dee       ?_Init@?$_Mpunct@_W@std@@IAEXABV_Locinfo@2@_N@Z 00417dee f i libcpmt:wlocale.obj
 0001:00016eb9       ?_Init@?$codecvt@GDU_Mbstatet@@@std@@IAEXABV_Locinfo@2@@Z 00417eb9 f i libcpmt:wlocale.obj
 0001:00016edd       ?_Init@?$codecvt@_WDU_Mbstatet@@@std@@IAEXABV_Locinfo@2@@Z 00417edd f i libcpmt:wlocale.obj
 0001:00016f01       ?_Init@?$collate@G@std@@IAEXABV_Locinfo@2@@Z 00417f01 f i libcpmt:wlocale.obj
 0001:00016f13       ?_Init@?$collate@_W@std@@IAEXABV_Locinfo@2@@Z 00417f13 f i libcpmt:wlocale.obj
 0001:00016f25       ?_Init@?$ctype@G@std@@IAEXABV_Locinfo@2@@Z 00417f25 f i libcpmt:wlocale.obj
 0001:00016f5e       ?_Init@?$ctype@_W@std@@IAEXABV_Locinfo@2@@Z 00417f5e f i libcpmt:wlocale.obj
 0001:00016f97       ?_Init@?$messages@G@std@@IAEXABV_Locinfo@2@@Z 00417f97 f i libcpmt:wlocale.obj
 0001:00016f9a       ?_Init@?$messages@_W@std@@IAEXABV_Locinfo@2@@Z 00417f9a f i libcpmt:wlocale.obj
 0001:00016f9d       ?_Init@?$money_get@GV?$istreambuf_iterator@GU?$char_traits@G@std@@@std@@@std@@IAEXABV_Locinfo@2@@Z 00417f9d f i libcpmt:wlocale.obj
 0001:00016fa0       ?_Init@?$money_get@_WV?$istreambuf_iterator@_WU?$char_traits@_W@std@@@std@@@std@@IAEXABV_Locinfo@2@@Z 00417fa0 f i libcpmt:wlocale.obj
 0001:00016fa3       ?_Init@?$money_put@GV?$ostreambuf_iterator@GU?$char_traits@G@std@@@std@@@std@@IAEXABV_Locinfo@2@@Z 00417fa3 f i libcpmt:wlocale.obj
 0001:00016fa6       ?_Init@?$money_put@_WV?$ostreambuf_iterator@_WU?$char_traits@_W@std@@@std@@@std@@IAEXABV_Locinfo@2@@Z 00417fa6 f i libcpmt:wlocale.obj
 0001:00016fa9       ?_Init@?$num_get@GV?$istreambuf_iterator@GU?$char_traits@G@std@@@std@@@std@@IAEXABV_Locinfo@2@@Z 00417fa9 f i libcpmt:wlocale.obj
 0001:00016fac       ?_Init@?$num_get@_WV?$istreambuf_iterator@_WU?$char_traits@_W@std@@@std@@@std@@IAEXABV_Locinfo@2@@Z 00417fac f i libcpmt:wlocale.obj
 0001:00016faf       ?_Init@?$num_put@GV?$ostreambuf_iterator@GU?$char_traits@G@std@@@std@@@std@@IAEXABV_Locinfo@2@@Z 00417faf f i libcpmt:wlocale.obj
 0001:00016fb2       ?_Init@?$num_put@_WV?$ostreambuf_iterator@_WU?$char_traits@_W@std@@@std@@@std@@IAEXABV_Locinfo@2@@Z 00417fb2 f i libcpmt:wlocale.obj
 0001:00016fb5       ?_Init@?$numpunct@G@std@@IAEXABV_Locinfo@2@_N@Z 00417fb5 f i libcpmt:wlocale.obj
 0001:0001708e       ?_Init@?$numpunct@_W@std@@IAEXABV_Locinfo@2@_N@Z 0041808e f i libcpmt:wlocale.obj
 0001:0001715f       ?_Init@?$time_get@GV?$istreambuf_iterator@GU?$char_traits@G@std@@@std@@@std@@IAEXABV_Locinfo@2@@Z 0041815f f i libcpmt:wlocale.obj
 0001:00017197       ?_Init@?$time_get@_WV?$istreambuf_iterator@_WU?$char_traits@_W@std@@@std@@@std@@IAEXABV_Locinfo@2@@Z 00418197 f i libcpmt:wlocale.obj
 0001:000171cf       ?_Init@?$time_put@GV?$ostreambuf_iterator@GU?$char_traits@G@std@@@std@@@std@@IAEXABV_Locinfo@2@@Z 004181cf f i libcpmt:wlocale.obj
 0001:000171f8       ?_Init@?$time_put@_WV?$ostreambuf_iterator@_WU?$char_traits@_W@std@@@std@@@std@@IAEXABV_Locinfo@2@@Z 004181f8 f i libcpmt:wlocale.obj
 0001:00017221       ?_Iput@?$num_put@GV?$ostreambuf_iterator@GU?$char_traits@G@std@@@std@@@std@@ABA?AV?$ostreambuf_iterator@GU?$char_traits@G@std@@@2@V32@AAVios_base@2@GPADI@Z 00418221 f i libcpmt:wlocale.obj
 0001:000174c3       ?_Iput@?$num_put@_WV?$ostreambuf_iterator@_WU?$char_traits@_W@std@@@std@@@std@@ABA?AV?$ostreambuf_iterator@_WU?$char_traits@_W@std@@@2@V32@AAVios_base@2@_WPADI@Z 004184c3 f i libcpmt:wlocale.obj
 0001:00017765       ?_Large_string_engaged@?$_String_val@U?$_Simple_types@G@std@@@std@@QBE_NXZ 00418765 f i libcpmt:wlocale.obj
 0001:0001776e       ?_Large_string_engaged@?$_String_val@U?$_Simple_types@_W@std@@@std@@QBE_NXZ 0041876e f i libcpmt:wlocale.obj
 0001:00017777       ?_Makeushloc@_Locimp@locale@std@@CAXABV_Locinfo@3@HPAV123@PBV23@@Z 00418777 f   libcpmt:wlocale.obj
 0001:00017c53       ?_Makewloc@_Locimp@locale@std@@CAXABV_Locinfo@3@HPAV123@PBV23@@Z 00418c53 f   libcpmt:wlocale.obj
 0001:0001812f       ?_Maklocwcs@std@@YAPA_WPB_W@Z 0041912f f i libcpmt:wlocale.obj
 0001:00018178       ?_Makpat@?$_Mpunct@G@std@@AAEXAAUpattern@money_base@2@III@Z 00419178 f i libcpmt:wlocale.obj
 0001:000181b9       ?_Makpat@?$_Mpunct@_W@std@@AAEXAAUpattern@money_base@2@III@Z 004191b9 f i libcpmt:wlocale.obj
 0001:000181fa       ?_Memcpy_val_from@?$basic_string@GU?$char_traits@G@std@@V?$allocator@G@2@@std@@AAEXABV12@@Z 004191fa f i libcpmt:wlocale.obj
 0001:0001820f       ?_Memcpy_val_from@?$basic_string@_WU?$char_traits@_W@std@@V?$allocator@_W@2@@std@@AAEXABV12@@Z 0041920f f i libcpmt:wlocale.obj
 0001:00018224       ?_Myptr@?$_String_val@U?$_Simple_types@G@std@@@std@@QAEPAGXZ 00419224 f i libcpmt:wlocale.obj
 0001:0001822f       ?_Myptr@?$_String_val@U?$_Simple_types@G@std@@@std@@QBEPBGXZ 0041922f f i libcpmt:wlocale.obj
 0001:0001823a       ?_Myptr@?$_String_val@U?$_Simple_types@_W@std@@@std@@QAEPA_WXZ 0041923a f i libcpmt:wlocale.obj
 0001:00018245       ?_Myptr@?$_String_val@U?$_Simple_types@_W@std@@@std@@QBEPB_WXZ 00419245 f i libcpmt:wlocale.obj
 0001:00018250       ?_Peek@?$istreambuf_iterator@GU?$char_traits@G@std@@@std@@ABEGXZ 00419250 f i libcpmt:wlocale.obj
 0001:0001827e       ?_Peek@?$istreambuf_iterator@_WU?$char_traits@_W@std@@@std@@ABE_WXZ 0041927e f i libcpmt:wlocale.obj
 0001:000182ac       ?_Pnavail@?$basic_streambuf@GU?$char_traits@G@std@@@std@@IBE_JXZ 004192ac f i libcpmt:wlocale.obj
 0001:000182be       ?_Pnavail@?$basic_streambuf@_WU?$char_traits@_W@std@@@std@@IBE_JXZ 004192be f i libcpmt:wlocale.obj
 0001:000182d0       ?_Pninc@?$basic_streambuf@GU?$char_traits@G@std@@@std@@IAEPAGXZ 004192d0 f i libcpmt:wlocale.obj
 0001:000182e0       ?_Pninc@?$basic_streambuf@_WU?$char_traits@_W@std@@@std@@IAEPA_WXZ 004192e0 f i libcpmt:wlocale.obj
 0001:000182f0       ?_Put@?$money_put@GV?$ostreambuf_iterator@GU?$char_traits@G@std@@@std@@@std@@CA?AV?$ostreambuf_iterator@GU?$char_traits@G@std@@@2@V32@V?$_String_const_iterator@V?$_String_val@U?$_Simple_types@G@std@@@std@@@2@I@Z 004192f0 f i libcpmt:wlocale.obj
 0001:00018329       ?_Put@?$money_put@_WV?$ostreambuf_iterator@_WU?$char_traits@_W@std@@@std@@@std@@CA?AV?$ostreambuf_iterator@_WU?$char_traits@_W@std@@@2@V32@V?$_String_const_iterator@V?$_String_val@U?$_Simple_types@_W@std@@@std@@@2@I@Z 00419329 f i libcpmt:wlocale.obj
 0001:00018362       ?_Put@?$num_put@GV?$ostreambuf_iterator@GU?$char_traits@G@std@@@std@@@std@@ABA?AV?$ostreambuf_iterator@GU?$char_traits@G@std@@@2@V32@PBGI@Z 00419362 f i libcpmt:wlocale.obj
 0001:00018397       ?_Put@?$num_put@_WV?$ostreambuf_iterator@_WU?$char_traits@_W@std@@@std@@@std@@ABA?AV?$ostreambuf_iterator@_WU?$char_traits@_W@std@@@2@V32@PB_WI@Z 00419397 f i libcpmt:wlocale.obj
 0001:000183cc       ?_Putmfld@?$money_put@GV?$ostreambuf_iterator@GU?$char_traits@G@std@@@std@@@std@@ABE?AV?$ostreambuf_iterator@GU?$char_traits@G@std@@@2@V32@_NAAVios_base@2@G1V?$basic_string@GU?$char_traits@G@std@@V?$allocator@G@2@@2@G@Z 004193cc f i libcpmt:wlocale.obj
 0001:000189e0       ?_Putmfld@?$money_put@_WV?$ostreambuf_iterator@_WU?$char_traits@_W@std@@@std@@@std@@ABE?AV?$ostreambuf_iterator@_WU?$char_traits@_W@std@@@2@V32@_NAAVios_base@2@_W1V?$basic_string@_WU?$char_traits@_W@std@@V?$allocator@_W@2@@2@3@Z 004199e0 f i libcpmt:wlocale.obj
 0001:00018ff4       ?_Rep@?$money_put@GV?$ostreambuf_iterator@GU?$char_traits@G@std@@@std@@@std@@CA?AV?$ostreambuf_iterator@GU?$char_traits@G@std@@@2@V32@GI@Z 00419ff4 f i libcpmt:wlocale.obj
 0001:00019020       ?_Rep@?$money_put@_WV?$ostreambuf_iterator@_WU?$char_traits@_W@std@@@std@@@std@@CA?AV?$ostreambuf_iterator@_WU?$char_traits@_W@std@@@2@V32@_WI@Z 0041a020 f i libcpmt:wlocale.obj
 0001:0001904c       ?_Rep@?$num_put@GV?$ostreambuf_iterator@GU?$char_traits@G@std@@@std@@@std@@ABA?AV?$ostreambuf_iterator@GU?$char_traits@G@std@@@2@V32@GI@Z 0041a04c f i libcpmt:wlocale.obj
 0001:00019078       ?_Rep@?$num_put@_WV?$ostreambuf_iterator@_WU?$char_traits@_W@std@@@std@@@std@@ABA?AV?$ostreambuf_iterator@_WU?$char_traits@_W@std@@@2@V32@_WI@Z 0041a078 f i libcpmt:wlocale.obj
 0001:000190a4       ?_Swap_proxy_and_iterators@?$basic_string@GU?$char_traits@G@std@@V?$allocator@G@2@@std@@AAEXAAV12@@Z 0041a0a4 f i libcpmt:wlocale.obj
 0001:000190a7       ?_Swap_proxy_and_iterators@?$basic_string@_WU?$char_traits@_W@std@@V?$allocator@_W@2@@std@@AAEXAAV12@@Z 0041a0a7 f i libcpmt:wlocale.obj
 0001:000190aa       ?_Take_contents@?$basic_string@GU?$char_traits@G@std@@V?$allocator@G@2@@std@@AAEXAAV12@@Z 0041a0aa f i libcpmt:wlocale.obj
 0001:00019100       ?_Take_contents@?$basic_string@_WU?$char_traits@_W@std@@V?$allocator@_W@2@@std@@AAEXAAV12@@Z 0041a100 f i libcpmt:wlocale.obj
 0001:00019156       ?_Tidy@?$_Mpunct@G@std@@AAEXXZ 0041a156 f i libcpmt:wlocale.obj
 0001:0001917e       ?_Tidy@?$_Mpunct@_W@std@@AAEXXZ 0041a17e f i libcpmt:wlocale.obj
 0001:000191a6       ?_Tidy@?$numpunct@G@std@@AAEXXZ 0041a1a6 f i libcpmt:wlocale.obj
 0001:000191c6       ?_Tidy@?$numpunct@_W@std@@AAEXXZ 0041a1c6 f i libcpmt:wlocale.obj
 0001:000191e6       ?_Tidy@?$time_get@GV?$istreambuf_iterator@GU?$char_traits@G@std@@@std@@@std@@AAEXXZ 0041a1e6 f i libcpmt:wlocale.obj
 0001:00019206       ?_Tidy@?$time_get@_WV?$istreambuf_iterator@_WU?$char_traits@_W@std@@@std@@@std@@AAEXXZ 0041a206 f i libcpmt:wlocale.obj
 0001:00019226       ?_Tidy_deallocate@?$basic_string@GU?$char_traits@G@std@@V?$allocator@G@2@@std@@AAEXXZ 0041a226 f i libcpmt:wlocale.obj
 0001:00019253       ?_Tidy_deallocate@?$basic_string@_WU?$char_traits@_W@std@@V?$allocator@_W@2@@std@@AAEXXZ 0041a253 f i libcpmt:wlocale.obj
 0001:00019280       ?_Tidy_init@?$basic_string@GU?$char_traits@G@std@@V?$allocator@G@2@@std@@AAEXXZ 0041a280 f i libcpmt:wlocale.obj
 0001:000192c4       ?_Tidy_init@?$basic_string@_WU?$char_traits@_W@std@@V?$allocator@_W@2@@std@@AAEXXZ 0041a2c4 f i libcpmt:wlocale.obj
 0001:00019308       ?_W_Getdays@_Locinfo@std@@QBEPBGXZ 0041a308 f i libcpmt:wlocale.obj
 0001:00019336       ?_W_Getmonths@_Locinfo@std@@QBEPBGXZ 0041a336 f i libcpmt:wlocale.obj
 0001:00019364       ?_W_Gettnames@_Locinfo@std@@QBE?AV_Timevec@2@XZ 0041a364 f i libcpmt:wlocale.obj
 0001:00019378       ?_Xran@?$_String_val@U?$_Simple_types@G@std@@@std@@SAXXZ 0041a378 f i libcpmt:wlocale.obj
 0001:00019383       ?_Xran@?$_String_val@U?$_Simple_types@_W@std@@@std@@SAXXZ 0041a383 f i libcpmt:wlocale.obj
 0001:0001938e       ?allocate@?$allocator@G@std@@QAEPAGI@Z 0041a38e f i libcpmt:wlocale.obj
 0001:000193ae       ?allocate@?$allocator@_W@std@@QAEPA_WI@Z 0041a3ae f i libcpmt:wlocale.obj
 0001:000193ce       ?append@?$basic_string@GU?$char_traits@G@std@@V?$allocator@G@2@@std@@QAEAAV12@ABV12@@Z 0041a3ce f i libcpmt:wlocale.obj
 0001:000193ea       ?append@?$basic_string@GU?$char_traits@G@std@@V?$allocator@G@2@@std@@QAEAAV12@IG@Z 0041a3ea f i libcpmt:wlocale.obj
 0001:00019442       ?append@?$basic_string@GU?$char_traits@G@std@@V?$allocator@G@2@@std@@QAEAAV12@QBGI@Z 0041a442 f i libcpmt:wlocale.obj
 0001:0001949d       ?append@?$basic_string@_WU?$char_traits@_W@std@@V?$allocator@_W@2@@std@@QAEAAV12@ABV12@@Z 0041a49d f i libcpmt:wlocale.obj
 0001:000194b9       ?append@?$basic_string@_WU?$char_traits@_W@std@@V?$allocator@_W@2@@std@@QAEAAV12@I_W@Z 0041a4b9 f i libcpmt:wlocale.obj
 0001:00019511       ?append@?$basic_string@_WU?$char_traits@_W@std@@V?$allocator@_W@2@@std@@QAEAAV12@QB_WI@Z 0041a511 f i libcpmt:wlocale.obj
 0001:0001956c       ?assign@?$_Char_traits@GG@std@@SAPAGQAGIG@Z 0041a56c f i libcpmt:wlocale.obj
 0001:00019596       ?assign@?$_Char_traits@_WG@std@@SAPA_WQA_WI_W@Z 0041a596 f i libcpmt:wlocale.obj
 0001:000195c0       ?assign@?$_WChar_traits@G@std@@SAPAGQAGIG@Z 0041a5c0 f i libcpmt:wlocale.obj
 0001:000195d6       ?assign@?$_WChar_traits@G@std@@SAXAAGABG@Z 0041a5d6 f i libcpmt:wlocale.obj
 0001:000195e7       ?assign@?$_WChar_traits@_W@std@@SAPA_WQA_WI_W@Z 0041a5e7 f i libcpmt:wlocale.obj
 0001:000195fd       ?assign@?$_WChar_traits@_W@std@@SAXAA_WAB_W@Z 0041a5fd f i libcpmt:wlocale.obj
 0001:0001960e       ?assign@?$basic_string@GU?$char_traits@G@std@@V?$allocator@G@2@@std@@QAEAAV12@$$QAV12@@Z 0041a60e f i libcpmt:wlocale.obj
 0001:00019623       ?assign@?$basic_string@GU?$char_traits@G@std@@V?$allocator@G@2@@std@@QAEAAV12@IG@Z 0041a623 f i libcpmt:wlocale.obj
 0001:0001966b       ?assign@?$basic_string@GU?$char_traits@G@std@@V?$allocator@G@2@@std@@QAEAAV12@QBG@Z 0041a66b f i libcpmt:wlocale.obj
 0001:00019694       ?assign@?$basic_string@GU?$char_traits@G@std@@V?$allocator@G@2@@std@@QAEAAV12@QBGI@Z 0041a694 f i libcpmt:wlocale.obj
 0001:000196df       ?assign@?$basic_string@_WU?$char_traits@_W@std@@V?$allocator@_W@2@@std@@QAEAAV12@$$QAV12@@Z 0041a6df f i libcpmt:wlocale.obj
 0001:000196f4       ?assign@?$basic_string@_WU?$char_traits@_W@std@@V?$allocator@_W@2@@std@@QAEAAV12@I_W@Z 0041a6f4 f i libcpmt:wlocale.obj
 0001:0001973c       ?assign@?$basic_string@_WU?$char_traits@_W@std@@V?$allocator@_W@2@@std@@QAEAAV12@QB_W@Z 0041a73c f i libcpmt:wlocale.obj
 0001:00019763       ?assign@?$basic_string@_WU?$char_traits@_W@std@@V?$allocator@_W@2@@std@@QAEAAV12@QB_WI@Z 0041a763 f i libcpmt:wlocale.obj
 0001:000197ae       ?begin@?$basic_string@GU?$char_traits@G@std@@V?$allocator@G@2@@std@@QAE?AV?$_String_iterator@V?$_String_val@U?$_Simple_types@G@std@@@std@@@2@XZ 0041a7ae f i libcpmt:wlocale.obj
 0001:000197c2       ?begin@?$basic_string@_WU?$char_traits@_W@std@@V?$allocator@_W@2@@std@@QAE?AV?$_String_iterator@V?$_String_val@U?$_Simple_types@_W@std@@@std@@@2@XZ 0041a7c2 f i libcpmt:wlocale.obj
 0001:000197d6       ?c_str@?$basic_string@GU?$char_traits@G@std@@V?$allocator@G@2@@std@@QBEPBGXZ 0041a7d6 f i libcpmt:wlocale.obj
 0001:000197e1       ?c_str@?$basic_string@_WU?$char_traits@_W@std@@V?$allocator@_W@2@@std@@QBEPB_WXZ 0041a7e1 f i libcpmt:wlocale.obj
 0001:000197ec       ?copy@?$_Char_traits@GG@std@@SAPAGQAGQBGI@Z 0041a7ec f i libcpmt:wlocale.obj
 0001:00019808       ?copy@?$_Char_traits@_WG@std@@SAPA_WQA_WQB_WI@Z 0041a808 f i libcpmt:wlocale.obj
 0001:00019824       ?curr_symbol@?$_Mpunct@G@std@@QBE?AV?$basic_string@GU?$char_traits@G@std@@V?$allocator@G@2@@2@XZ 0041a824 f i libcpmt:wlocale.obj
 0001:00019849       ?curr_symbol@?$_Mpunct@_W@std@@QBE?AV?$basic_string@_WU?$char_traits@_W@std@@V?$allocator@_W@2@@2@XZ 0041a849 f i libcpmt:wlocale.obj
 0001:0001986e       ?date_order@?$time_get@GV?$istreambuf_iterator@GU?$char_traits@G@std@@@std@@@std@@QBE?AW4dateorder@time_base@2@XZ 0041a86e f i libcpmt:wlocale.obj
 0001:00019886       ?date_order@?$time_get@_WV?$istreambuf_iterator@_WU?$char_traits@_W@std@@@std@@@std@@QBE?AW4dateorder@time_base@2@XZ 0041a886 f i libcpmt:wlocale.obj
 0001:0001989e       ?deallocate@?$allocator@G@std@@QAEXQAGI@Z 0041a89e f i libcpmt:wlocale.obj
 0001:000198b5       ?deallocate@?$allocator@_W@std@@QAEXQA_WI@Z 0041a8b5 f i libcpmt:wlocale.obj
 0001:000198cc       ?decimal_point@?$_Mpunct@G@std@@QBEGXZ 0041a8cc f i libcpmt:wlocale.obj
 0001:000198e4       ?decimal_point@?$_Mpunct@_W@std@@QBE_WXZ 0041a8e4 f i libcpmt:wlocale.obj
 0001:000198fc       ?decimal_point@?$numpunct@G@std@@QBEGXZ 0041a8fc f i libcpmt:wlocale.obj
 0001:00019914       ?decimal_point@?$numpunct@_W@std@@QBE_WXZ 0041a914 f i libcpmt:wlocale.obj
 0001:0001992c       ?do_always_noconv@?$codecvt@GDU_Mbstatet@@@std@@MBE_NXZ 0041a92c f i libcpmt:wlocale.obj
 0001:0001992f       ?do_always_noconv@?$codecvt@_WDU_Mbstatet@@@std@@MBE_NXZ 0041a92f f i libcpmt:wlocale.obj
 0001:00019932       ?do_close@?$messages@G@std@@MBEXH@Z 0041a932 f i libcpmt:wlocale.obj
 0001:00019935       ?do_close@?$messages@_W@std@@MBEXH@Z 0041a935 f i libcpmt:wlocale.obj
 0001:00019938       ?do_compare@?$collate@G@std@@MBEHPBG000@Z 0041a938 f i libcpmt:wlocale.obj
 0001:00019969       ?do_compare@?$collate@_W@std@@MBEHPB_W000@Z 0041a969 f i libcpmt:wlocale.obj
 0001:0001999a       ?do_curr_symbol@?$_Mpunct@G@std@@MBE?AV?$basic_string@GU?$char_traits@G@std@@V?$allocator@G@2@@2@XZ 0041a99a f i libcpmt:wlocale.obj
 0001:000199b0       ?do_curr_symbol@?$_Mpunct@_W@std@@MBE?AV?$basic_string@_WU?$char_traits@_W@std@@V?$allocator@_W@2@@2@XZ 0041a9b0 f i libcpmt:wlocale.obj
 0001:000199c6       ?do_date_order@?$time_get@GV?$istreambuf_iterator@GU?$char_traits@G@std@@@std@@@std@@MBE?AW4dateorder@time_base@2@XZ 0041a9c6 f i libcpmt:wlocale.obj
 0001:000199ca       ?do_date_order@?$time_get@_WV?$istreambuf_iterator@_WU?$char_traits@_W@std@@@std@@@std@@MBE?AW4dateorder@time_base@2@XZ 0041a9ca f i libcpmt:wlocale.obj
 0001:000199ce       ?do_decimal_point@?$_Mpunct@G@std@@MBEGXZ 0041a9ce f i libcpmt:wlocale.obj
 0001:000199d3       ?do_decimal_point@?$_Mpunct@_W@std@@MBE_WXZ 0041a9d3 f i libcpmt:wlocale.obj
 0001:000199d8       ?do_decimal_point@?$numpunct@G@std@@MBEGXZ 0041a9d8 f i libcpmt:wlocale.obj
 0001:000199dd       ?do_decimal_point@?$numpunct@_W@std@@MBE_WXZ 0041a9dd f i libcpmt:wlocale.obj
 0001:000199e2       ?do_encoding@?$codecvt@GDU_Mbstatet@@@std@@MBEHXZ 0041a9e2 f i libcpmt:wlocale.obj
 0001:000199ec       ?do_encoding@?$codecvt@_WDU_Mbstatet@@@std@@MBEHXZ 0041a9ec f i libcpmt:wlocale.obj
 0001:000199f6       ?do_falsename@?$numpunct@G@std@@MBE?AV?$basic_string@GU?$char_traits@G@std@@V?$allocator@G@2@@2@XZ 0041a9f6 f i libcpmt:wlocale.obj
 0001:00019a0c       ?do_falsename@?$numpunct@_W@std@@MBE?AV?$basic_string@_WU?$char_traits@_W@std@@V?$allocator@_W@2@@2@XZ 0041aa0c f i libcpmt:wlocale.obj
 0001:00019a22       ?do_frac_digits@?$_Mpunct@G@std@@MBEHXZ 0041aa22 f i libcpmt:wlocale.obj
 0001:00019a26       ?do_frac_digits@?$_Mpunct@_W@std@@MBEHXZ 0041aa26 f i libcpmt:wlocale.obj
 0001:00019a2a       ?do_get@?$messages@G@std@@MBE?AV?$basic_string@GU?$char_traits@G@std@@V?$allocator@G@2@@2@HHHABV32@@Z 0041aa2a f i libcpmt:wlocale.obj
 0001:00019a4d       ?do_get@?$messages@_W@std@@MBE?AV?$basic_string@_WU?$char_traits@_W@std@@V?$allocator@_W@2@@2@HHHABV32@@Z 0041aa4d f i libcpmt:wlocale.obj
 0001:00019a70       ?do_get@?$money_get@GV?$istreambuf_iterator@GU?$char_traits@G@std@@@std@@@std@@MBE?AV?$istreambuf_iterator@GU?$char_traits@G@std@@@2@V32@0_NAAVios_base@2@AAHAAO@Z 0041aa70 f i libcpmt:wlocale.obj
 0001:00019b18       ?do_get@?$money_get@GV?$istreambuf_iterator@GU?$char_traits@G@std@@@std@@@std@@MBE?AV?$istreambuf_iterator@GU?$char_traits@G@std@@@2@V32@0_NAAVios_base@2@AAHAAV?$basic_string@GU?$char_traits@G@std@@V?$allocator@G@2@@2@@Z 0041ab18 f i libcpmt:wlocale.obj
 0001:00019bf2       ?do_get@?$money_get@_WV?$istreambuf_iterator@_WU?$char_traits@_W@std@@@std@@@std@@MBE?AV?$istreambuf_iterator@_WU?$char_traits@_W@std@@@2@V32@0_NAAVios_base@2@AAHAAO@Z 0041abf2 f i libcpmt:wlocale.obj
 0001:00019c9a       ?do_get@?$money_get@_WV?$istreambuf_iterator@_WU?$char_traits@_W@std@@@std@@@std@@MBE?AV?$istreambuf_iterator@_WU?$char_traits@_W@std@@@2@V32@0_NAAVios_base@2@AAHAAV?$basic_string@_WU?$char_traits@_W@std@@V?$allocator@_W@2@@2@@Z 0041ac9a f i libcpmt:wlocale.obj
 0001:00019d74       ?do_get@?$num_get@GV?$istreambuf_iterator@GU?$char_traits@G@std@@@std@@@std@@MBE?AV?$istreambuf_iterator@GU?$char_traits@G@std@@@2@V32@0AAVios_base@2@AAHAAG@Z 0041ad74 f i libcpmt:wlocale.obj
 0001:00019e62       ?do_get@?$num_get@GV?$istreambuf_iterator@GU?$char_traits@G@std@@@std@@@std@@MBE?AV?$istreambuf_iterator@GU?$char_traits@G@std@@@2@V32@0AAVios_base@2@AAHAAI@Z 0041ae62 f i libcpmt:wlocale.obj
 0001:00019ea2       ?do_get@?$num_get@GV?$istreambuf_iterator@GU?$char_traits@G@std@@@std@@@std@@MBE?AV?$istreambuf_iterator@GU?$char_traits@G@std@@@2@V32@0AAVios_base@2@AAHAAJ@Z 0041aea2 f i libcpmt:wlocale.obj
 0001:00019f66       ?do_get@?$num_get@GV?$istreambuf_iterator@GU?$char_traits@G@std@@@std@@@std@@MBE?AV?$istreambuf_iterator@GU?$char_traits@G@std@@@2@V32@0AAVios_base@2@AAHAAK@Z 0041af66 f i libcpmt:wlocale.obj
 0001:0001a02a       ?do_get@?$num_get@GV?$istreambuf_iterator@GU?$char_traits@G@std@@@std@@@std@@MBE?AV?$istreambuf_iterator@GU?$char_traits@G@std@@@2@V32@0AAVios_base@2@AAHAAM@Z 0041b02a f i libcpmt:wlocale.obj
 0001:0001a125       ?do_get@?$num_get@GV?$istreambuf_iterator@GU?$char_traits@G@std@@@std@@@std@@MBE?AV?$istreambuf_iterator@GU?$char_traits@G@std@@@2@V32@0AAVios_base@2@AAHAAN@Z 0041b125 f i libcpmt:wlocale.obj
 0001:0001a216       ?do_get@?$num_get@GV?$istreambuf_iterator@GU?$char_traits@G@std@@@std@@@std@@MBE?AV?$istreambuf_iterator@GU?$char_traits@G@std@@@2@V32@0AAVios_base@2@AAHAAO@Z 0041b216 f i libcpmt:wlocale.obj
 0001:0001a254       ?do_get@?$num_get@GV?$istreambuf_iterator@GU?$char_traits@G@std@@@std@@@std@@MBE?AV?$istreambuf_iterator@GU?$char_traits@G@std@@@2@V32@0AAVios_base@2@AAHAAPAX@Z 0041b254 f i libcpmt:wlocale.obj
 0001:0001a310       ?do_get@?$num_get@GV?$istreambuf_iterator@GU?$char_traits@G@std@@@std@@@std@@MBE?AV?$istreambuf_iterator@GU?$char_traits@G@std@@@2@V32@0AAVios_base@2@AAHAA_J@Z 0041b310 f i libcpmt:wlocale.obj
 0001:0001a3db       ?do_get@?$num_get@GV?$istreambuf_iterator@GU?$char_traits@G@std@@@std@@@std@@MBE?AV?$istreambuf_iterator@GU?$char_traits@G@std@@@2@V32@0AAVios_base@2@AAHAA_K@Z 0041b3db f i libcpmt:wlocale.obj
 0001:0001a4a6       ?do_get@?$num_get@GV?$istreambuf_iterator@GU?$char_traits@G@std@@@std@@@std@@MBE?AV?$istreambuf_iterator@GU?$char_traits@G@std@@@2@V32@0AAVios_base@2@AAHAA_N@Z 0041b4a6 f i libcpmt:wlocale.obj
 0001:0001a6eb       ?do_get@?$num_get@_WV?$istreambuf_iterator@_WU?$char_traits@_W@std@@@std@@@std@@MBE?AV?$istreambuf_iterator@_WU?$char_traits@_W@std@@@2@V32@0AAVios_base@2@AAHAAG@Z 0041b6eb f i libcpmt:wlocale.obj
 0001:0001a7d9       ?do_get@?$num_get@_WV?$istreambuf_iterator@_WU?$char_traits@_W@std@@@std@@@std@@MBE?AV?$istreambuf_iterator@_WU?$char_traits@_W@std@@@2@V32@0AAVios_base@2@AAHAAI@Z 0041b7d9 f i libcpmt:wlocale.obj
 0001:0001a819       ?do_get@?$num_get@_WV?$istreambuf_iterator@_WU?$char_traits@_W@std@@@std@@@std@@MBE?AV?$istreambuf_iterator@_WU?$char_traits@_W@std@@@2@V32@0AAVios_base@2@AAHAAJ@Z 0041b819 f i libcpmt:wlocale.obj
 0001:0001a8dd       ?do_get@?$num_get@_WV?$istreambuf_iterator@_WU?$char_traits@_W@std@@@std@@@std@@MBE?AV?$istreambuf_iterator@_WU?$char_traits@_W@std@@@2@V32@0AAVios_base@2@AAHAAK@Z 0041b8dd f i libcpmt:wlocale.obj
 0001:0001a9a1       ?do_get@?$num_get@_WV?$istreambuf_iterator@_WU?$char_traits@_W@std@@@std@@@std@@MBE?AV?$istreambuf_iterator@_WU?$char_traits@_W@std@@@2@V32@0AAVios_base@2@AAHAAM@Z 0041b9a1 f i libcpmt:wlocale.obj
 0001:0001aa9c       ?do_get@?$num_get@_WV?$istreambuf_iterator@_WU?$char_traits@_W@std@@@std@@@std@@MBE?AV?$istreambuf_iterator@_WU?$char_traits@_W@std@@@2@V32@0AAVios_base@2@AAHAAN@Z 0041ba9c f i libcpmt:wlocale.obj
 0001:0001ab8d       ?do_get@?$num_get@_WV?$istreambuf_iterator@_WU?$char_traits@_W@std@@@std@@@std@@MBE?AV?$istreambuf_iterator@_WU?$char_traits@_W@std@@@2@V32@0AAVios_base@2@AAHAAO@Z 0041bb8d f i libcpmt:wlocale.obj
 0001:0001abcb       ?do_get@?$num_get@_WV?$istreambuf_iterator@_WU?$char_traits@_W@std@@@std@@@std@@MBE?AV?$istreambuf_iterator@_WU?$char_traits@_W@std@@@2@V32@0AAVios_base@2@AAHAAPAX@Z 0041bbcb f i libcpmt:wlocale.obj
 0001:0001ac87       ?do_get@?$num_get@_WV?$istreambuf_iterator@_WU?$char_traits@_W@std@@@std@@@std@@MBE?AV?$istreambuf_iterator@_WU?$char_traits@_W@std@@@2@V32@0AAVios_base@2@AAHAA_J@Z 0041bc87 f i libcpmt:wlocale.obj
 0001:0001ad52       ?do_get@?$num_get@_WV?$istreambuf_iterator@_WU?$char_traits@_W@std@@@std@@@std@@MBE?AV?$istreambuf_iterator@_WU?$char_traits@_W@std@@@2@V32@0AAVios_base@2@AAHAA_K@Z 0041bd52 f i libcpmt:wlocale.obj
 0001:0001ae1d       ?do_get@?$num_get@_WV?$istreambuf_iterator@_WU?$char_traits@_W@std@@@std@@@std@@MBE?AV?$istreambuf_iterator@_WU?$char_traits@_W@std@@@2@V32@0AAVios_base@2@AAHAA_N@Z 0041be1d f i libcpmt:wlocale.obj
 0001:0001b062       ?do_get@?$time_get@GV?$istreambuf_iterator@GU?$char_traits@G@std@@@std@@@std@@MBE?AV?$istreambuf_iterator@GU?$char_traits@G@std@@@2@V32@0AAVios_base@2@AAHPAUtm@@DD@Z 0041c062 f i libcpmt:wlocale.obj
 0001:0001b423       ?do_get@?$time_get@_WV?$istreambuf_iterator@_WU?$char_traits@_W@std@@@std@@@std@@MBE?AV?$istreambuf_iterator@_WU?$char_traits@_W@std@@@2@V32@0AAVios_base@2@AAHPAUtm@@DD@Z 0041c423 f i libcpmt:wlocale.obj
 0001:0001b7e4       ?do_get_date@?$time_get@GV?$istreambuf_iterator@GU?$char_traits@G@std@@@std@@@std@@MBE?AV?$istreambuf_iterator@GU?$char_traits@G@std@@@2@V32@0AAVios_base@2@AAHPAUtm@@@Z 0041c7e4 f i libcpmt:wlocale.obj
 0001:0001bc8f       ?do_get_date@?$time_get@_WV?$istreambuf_iterator@_WU?$char_traits@_W@std@@@std@@@std@@MBE?AV?$istreambuf_iterator@_WU?$char_traits@_W@std@@@2@V32@0AAVios_base@2@AAHPAUtm@@@Z 0041cc8f f i libcpmt:wlocale.obj
 0001:0001c13a       ?do_get_monthname@?$time_get@GV?$istreambuf_iterator@GU?$char_traits@G@std@@@std@@@std@@MBE?AV?$istreambuf_iterator@GU?$char_traits@G@std@@@2@V32@0AAVios_base@2@AAHPAUtm@@@Z 0041d13a f i libcpmt:wlocale.obj
 0001:0001c17c       ?do_get_monthname@?$time_get@_WV?$istreambuf_iterator@_WU?$char_traits@_W@std@@@std@@@std@@MBE?AV?$istreambuf_iterator@_WU?$char_traits@_W@std@@@2@V32@0AAVios_base@2@AAHPAUtm@@@Z 0041d17c f i libcpmt:wlocale.obj
 0001:0001c1be       ?do_get_time@?$time_get@GV?$istreambuf_iterator@GU?$char_traits@G@std@@@std@@@std@@MBE?AV?$istreambuf_iterator@GU?$char_traits@G@std@@@2@V32@0AAVios_base@2@AAHPAUtm@@@Z 0041d1be f i libcpmt:wlocale.obj
 0001:0001c2e0       ?do_get_time@?$time_get@_WV?$istreambuf_iterator@_WU?$char_traits@_W@std@@@std@@@std@@MBE?AV?$istreambuf_iterator@_WU?$char_traits@_W@std@@@2@V32@0AAVios_base@2@AAHPAUtm@@@Z 0041d2e0 f i libcpmt:wlocale.obj
 0001:0001c402       ?do_get_weekday@?$time_get@GV?$istreambuf_iterator@GU?$char_traits@G@std@@@std@@@std@@MBE?AV?$istreambuf_iterator@GU?$char_traits@G@std@@@2@V32@0AAVios_base@2@AAHPAUtm@@@Z 0041d402 f i libcpmt:wlocale.obj
 0001:0001c444       ?do_get_weekday@?$time_get@_WV?$istreambuf_iterator@_WU?$char_traits@_W@std@@@std@@@std@@MBE?AV?$istreambuf_iterator@_WU?$char_traits@_W@std@@@2@V32@0AAVios_base@2@AAHPAUtm@@@Z 0041d444 f i libcpmt:wlocale.obj
 0001:0001c486       ?do_get_year@?$time_get@GV?$istreambuf_iterator@GU?$char_traits@G@std@@@std@@@std@@MBE?AV?$istreambuf_iterator@GU?$char_traits@G@std@@@2@V32@0AAVios_base@2@AAHPAUtm@@@Z 0041d486 f i libcpmt:wlocale.obj
 0001:0001c51b       ?do_get_year@?$time_get@_WV?$istreambuf_iterator@_WU?$char_traits@_W@std@@@std@@@std@@MBE?AV?$istreambuf_iterator@_WU?$char_traits@_W@std@@@2@V32@0AAVios_base@2@AAHPAUtm@@@Z 0041d51b f i libcpmt:wlocale.obj
 0001:0001c5b0       ?do_grouping@?$_Mpunct@G@std@@MBE?AV?$basic_string@DU?$char_traits@D@std@@V?$allocator@D@2@@2@XZ 0041d5b0 f i libcpmt:wlocale.obj
 0001:0001c5c6       ?do_grouping@?$_Mpunct@_W@std@@MBE?AV?$basic_string@DU?$char_traits@D@std@@V?$allocator@D@2@@2@XZ 0041d5c6 f i libcpmt:wlocale.obj
 0001:0001c5dc       ?do_grouping@?$numpunct@G@std@@MBE?AV?$basic_string@DU?$char_traits@D@std@@V?$allocator@D@2@@2@XZ 0041d5dc f i libcpmt:wlocale.obj
 0001:0001c5f2       ?do_grouping@?$numpunct@_W@std@@MBE?AV?$basic_string@DU?$char_traits@D@std@@V?$allocator@D@2@@2@XZ 0041d5f2 f i libcpmt:wlocale.obj
 0001:0001c608       ?do_hash@?$collate@G@std@@MBEJPBG0@Z 0041d608 f i libcpmt:wlocale.obj
 0001:0001c629       ?do_hash@?$collate@_W@std@@MBEJPB_W0@Z 0041d629 f i libcpmt:wlocale.obj
 0001:0001c64a       ?do_in@?$codecvt@GDU_Mbstatet@@@std@@MBEHAAU_Mbstatet@@PBD1AAPBDPAG3AAPAG@Z 0041d64a f i libcpmt:wlocale.obj
 0001:0001c6bb       ?do_in@?$codecvt@_WDU_Mbstatet@@@std@@MBEHAAU_Mbstatet@@PBD1AAPBDPA_W3AAPA_W@Z 0041d6bb f i libcpmt:wlocale.obj
 0001:0001c72c       ?do_is@?$ctype@G@std@@MBEPBGPBG0PAF@Z 0041d72c f i libcpmt:wlocale.obj
 0001:0001c748       ?do_is@?$ctype@G@std@@MBE_NFG@Z 0041d748 f i libcpmt:wlocale.obj
 0001:0001c764       ?do_is@?$ctype@_W@std@@MBEPB_WPB_W0PAF@Z 0041d764 f i libcpmt:wlocale.obj
 0001:0001c780       ?do_is@?$ctype@_W@std@@MBE_NF_W@Z 0041d780 f i libcpmt:wlocale.obj
 0001:0001c79c       ?do_length@?$codecvt@GDU_Mbstatet@@@std@@MBEHAAU_Mbstatet@@PBD1I@Z 0041d79c f i libcpmt:wlocale.obj
 0001:0001c7f2       ?do_length@?$codecvt@_WDU_Mbstatet@@@std@@MBEHAAU_Mbstatet@@PBD1I@Z 0041d7f2 f i libcpmt:wlocale.obj
 0001:0001c848       ?do_max_length@?$codecvt@GDU_Mbstatet@@@std@@MBEHXZ 0041d848 f i libcpmt:wlocale.obj
 0001:0001c84c       ?do_max_length@?$codecvt@_WDU_Mbstatet@@@std@@MBEHXZ 0041d84c f i libcpmt:wlocale.obj
 0001:0001c850       ?do_narrow@?$ctype@G@std@@MBEDGD@Z 0041d850 f i libcpmt:wlocale.obj
 0001:0001c859       ?do_narrow@?$ctype@G@std@@MBEPBGPBG0DPAD@Z 0041d859 f i libcpmt:wlocale.obj
 0001:0001c88e       ?do_narrow@?$ctype@_W@std@@MBED_WD@Z 0041d88e f i libcpmt:wlocale.obj
 0001:0001c897       ?do_narrow@?$ctype@_W@std@@MBEPB_WPB_W0DPAD@Z 0041d897 f i libcpmt:wlocale.obj
 0001:0001c8cc       ?do_neg_format@?$_Mpunct@G@std@@MBE?AUpattern@money_base@2@XZ 0041d8cc f i libcpmt:wlocale.obj
 0001:0001c8db       ?do_neg_format@?$_Mpunct@_W@std@@MBE?AUpattern@money_base@2@XZ 0041d8db f i libcpmt:wlocale.obj
 0001:0001c8ea       ?do_negative_sign@?$_Mpunct@G@std@@MBE?AV?$basic_string@GU?$char_traits@G@std@@V?$allocator@G@2@@2@XZ 0041d8ea f i libcpmt:wlocale.obj
 0001:0001c900       ?do_negative_sign@?$_Mpunct@_W@std@@MBE?AV?$basic_string@_WU?$char_traits@_W@std@@V?$allocator@_W@2@@2@XZ 0041d900 f i libcpmt:wlocale.obj
 0001:0001c916       ?do_open@?$messages@G@std@@MBEHABV?$basic_string@DU?$char_traits@D@std@@V?$allocator@D@2@@2@ABVlocale@2@@Z 0041d916 f i libcpmt:wlocale.obj
 0001:0001c91c       ?do_open@?$messages@_W@std@@MBEHABV?$basic_string@DU?$char_traits@D@std@@V?$allocator@D@2@@2@ABVlocale@2@@Z 0041d91c f i libcpmt:wlocale.obj
 0001:0001c922       ?do_out@?$codecvt@GDU_Mbstatet@@@std@@MBEHAAU_Mbstatet@@PBG1AAPBGPAD3AAPAD@Z 0041d922 f i libcpmt:wlocale.obj
 0001:0001ca08       ?do_out@?$codecvt@_WDU_Mbstatet@@@std@@MBEHAAU_Mbstatet@@PB_W1AAPB_WPAD3AAPAD@Z 0041da08 f i libcpmt:wlocale.obj
 0001:0001caee       ?do_pos_format@?$_Mpunct@G@std@@MBE?AUpattern@money_base@2@XZ 0041daee f i libcpmt:wlocale.obj
 0001:0001cafd       ?do_pos_format@?$_Mpunct@_W@std@@MBE?AUpattern@money_base@2@XZ 0041dafd f i libcpmt:wlocale.obj
 0001:0001cb0c       ?do_positive_sign@?$_Mpunct@G@std@@MBE?AV?$basic_string@GU?$char_traits@G@std@@V?$allocator@G@2@@2@XZ 0041db0c f i libcpmt:wlocale.obj
 0001:0001cb22       ?do_positive_sign@?$_Mpunct@_W@std@@MBE?AV?$basic_string@_WU?$char_traits@_W@std@@V?$allocator@_W@2@@2@XZ 0041db22 f i libcpmt:wlocale.obj
 0001:0001cb38       ?do_put@?$money_put@GV?$ostreambuf_iterator@GU?$char_traits@G@std@@@std@@@std@@MBE?AV?$ostreambuf_iterator@GU?$char_traits@G@std@@@2@V32@_NAAVios_base@2@GABV?$basic_string@GU?$char_traits@G@std@@V?$allocator@G@2@@2@@Z 0041db38 f i libcpmt:wlocale.obj
 0001:0001cc67       ?do_put@?$money_put@GV?$ostreambuf_iterator@GU?$char_traits@G@std@@@std@@@std@@MBE?AV?$ostreambuf_iterator@GU?$char_traits@G@std@@@2@V32@_NAAVios_base@2@GO@Z 0041dc67 f i libcpmt:wlocale.obj
 0001:0001cddc       ?do_put@?$money_put@_WV?$ostreambuf_iterator@_WU?$char_traits@_W@std@@@std@@@std@@MBE?AV?$ostreambuf_iterator@_WU?$char_traits@_W@std@@@2@V32@_NAAVios_base@2@_WABV?$basic_string@_WU?$char_traits@_W@std@@V?$allocator@_W@2@@2@@Z 0041dddc f i libcpmt:wlocale.obj
 0001:0001cf0b       ?do_put@?$money_put@_WV?$ostreambuf_iterator@_WU?$char_traits@_W@std@@@std@@@std@@MBE?AV?$ostreambuf_iterator@_WU?$char_traits@_W@std@@@2@V32@_NAAVios_base@2@_WO@Z 0041df0b f i libcpmt:wlocale.obj
 0001:0001d080       ?do_put@?$num_put@GV?$ostreambuf_iterator@GU?$char_traits@G@std@@@std@@@std@@MBE?AV?$ostreambuf_iterator@GU?$char_traits@G@std@@@2@V32@AAVios_base@2@GJ@Z 0041e080 f i libcpmt:wlocale.obj
 0001:0001d0eb       ?do_put@?$num_put@GV?$ostreambuf_iterator@GU?$char_traits@G@std@@@std@@@std@@MBE?AV?$ostreambuf_iterator@GU?$char_traits@G@std@@@2@V32@AAVios_base@2@GK@Z 0041e0eb f i libcpmt:wlocale.obj
 0001:0001d156       ?do_put@?$num_put@GV?$ostreambuf_iterator@GU?$char_traits@G@std@@@std@@@std@@MBE?AV?$ostreambuf_iterator@GU?$char_traits@G@std@@@2@V32@AAVios_base@2@GN@Z 0041e156 f i libcpmt:wlocale.obj
 0001:0001d2ac       ?do_put@?$num_put@GV?$ostreambuf_iterator@GU?$char_traits@G@std@@@std@@@std@@MBE?AV?$ostreambuf_iterator@GU?$char_traits@G@std@@@2@V32@AAVios_base@2@GO@Z 0041e2ac f i libcpmt:wlocale.obj
 0001:0001d402       ?do_put@?$num_put@GV?$ostreambuf_iterator@GU?$char_traits@G@std@@@std@@@std@@MBE?AV?$ostreambuf_iterator@GU?$char_traits@G@std@@@2@V32@AAVios_base@2@GPBX@Z 0041e402 f i libcpmt:wlocale.obj
 0001:0001d45d       ?do_put@?$num_put@GV?$ostreambuf_iterator@GU?$char_traits@G@std@@@std@@@std@@MBE?AV?$ostreambuf_iterator@GU?$char_traits@G@std@@@2@V32@AAVios_base@2@G_J@Z 0041e45d f i libcpmt:wlocale.obj
 0001:0001d4cb       ?do_put@?$num_put@GV?$ostreambuf_iterator@GU?$char_traits@G@std@@@std@@@std@@MBE?AV?$ostreambuf_iterator@GU?$char_traits@G@std@@@2@V32@AAVios_base@2@G_K@Z 0041e4cb f i libcpmt:wlocale.obj
 0001:0001d539       ?do_put@?$num_put@GV?$ostreambuf_iterator@GU?$char_traits@G@std@@@std@@@std@@MBE?AV?$ostreambuf_iterator@GU?$char_traits@G@std@@@2@V32@AAVios_base@2@G_N@Z 0041e539 f i libcpmt:wlocale.obj
 0001:0001d6f6       ?do_put@?$num_put@_WV?$ostreambuf_iterator@_WU?$char_traits@_W@std@@@std@@@std@@MBE?AV?$ostreambuf_iterator@_WU?$char_traits@_W@std@@@2@V32@AAVios_base@2@_WJ@Z 0041e6f6 f i libcpmt:wlocale.obj
 0001:0001d761       ?do_put@?$num_put@_WV?$ostreambuf_iterator@_WU?$char_traits@_W@std@@@std@@@std@@MBE?AV?$ostreambuf_iterator@_WU?$char_traits@_W@std@@@2@V32@AAVios_base@2@_WK@Z 0041e761 f i libcpmt:wlocale.obj
 0001:0001d7cc       ?do_put@?$num_put@_WV?$ostreambuf_iterator@_WU?$char_traits@_W@std@@@std@@@std@@MBE?AV?$ostreambuf_iterator@_WU?$char_traits@_W@std@@@2@V32@AAVios_base@2@_WN@Z 0041e7cc f i libcpmt:wlocale.obj
 0001:0001d922       ?do_put@?$num_put@_WV?$ostreambuf_iterator@_WU?$char_traits@_W@std@@@std@@@std@@MBE?AV?$ostreambuf_iterator@_WU?$char_traits@_W@std@@@2@V32@AAVios_base@2@_WO@Z 0041e922 f i libcpmt:wlocale.obj
 0001:0001da78       ?do_put@?$num_put@_WV?$ostreambuf_iterator@_WU?$char_traits@_W@std@@@std@@@std@@MBE?AV?$ostreambuf_iterator@_WU?$char_traits@_W@std@@@2@V32@AAVios_base@2@_WPBX@Z 0041ea78 f i libcpmt:wlocale.obj
 0001:0001dad3       ?do_put@?$num_put@_WV?$ostreambuf_iterator@_WU?$char_traits@_W@std@@@std@@@std@@MBE?AV?$ostreambuf_iterator@_WU?$char_traits@_W@std@@@2@V32@AAVios_base@2@_W_J@Z 0041ead3 f i libcpmt:wlocale.obj
 0001:0001db41       ?do_put@?$num_put@_WV?$ostreambuf_iterator@_WU?$char_traits@_W@std@@@std@@@std@@MBE?AV?$ostreambuf_iterator@_WU?$char_traits@_W@std@@@2@V32@AAVios_base@2@_W_K@Z 0041eb41 f i libcpmt:wlocale.obj
 0001:0001dbaf       ?do_put@?$num_put@_WV?$ostreambuf_iterator@_WU?$char_traits@_W@std@@@std@@@std@@MBE?AV?$ostreambuf_iterator@_WU?$char_traits@_W@std@@@2@V32@AAVios_base@2@_W_N@Z 0041ebaf f i libcpmt:wlocale.obj
 0001:0001dd6c       ?do_put@?$time_put@GV?$ostreambuf_iterator@GU?$char_traits@G@std@@@std@@@std@@MBE?AV?$ostreambuf_iterator@GU?$char_traits@G@std@@@2@V32@AAVios_base@2@GPBUtm@@DD@Z 0041ed6c f i libcpmt:wlocale.obj
 0001:0001deed       ?do_put@?$time_put@_WV?$ostreambuf_iterator@_WU?$char_traits@_W@std@@@std@@@std@@MBE?AV?$ostreambuf_iterator@_WU?$char_traits@_W@std@@@2@V32@AAVios_base@2@_WPBUtm@@DD@Z 0041eeed f i libcpmt:wlocale.obj
 0001:0001e06e       ?do_scan_is@?$ctype@G@std@@MBEPBGFPBG0@Z 0041f06e f i libcpmt:wlocale.obj
 0001:0001e0ab       ?do_scan_is@?$ctype@_W@std@@MBEPB_WFPB_W0@Z 0041f0ab f i libcpmt:wlocale.obj
 0001:0001e0e8       ?do_scan_not@?$ctype@G@std@@MBEPBGFPBG0@Z 0041f0e8 f i libcpmt:wlocale.obj
 0001:0001e125       ?do_scan_not@?$ctype@_W@std@@MBEPB_WFPB_W0@Z 0041f125 f i libcpmt:wlocale.obj
 0001:0001e162       ?do_thousands_sep@?$_Mpunct@G@std@@MBEGXZ 0041f162 f i libcpmt:wlocale.obj
 0001:0001e167       ?do_thousands_sep@?$_Mpunct@_W@std@@MBE_WXZ 0041f167 f i libcpmt:wlocale.obj
 0001:0001e16c       ?do_thousands_sep@?$numpunct@G@std@@MBEGXZ 0041f16c f i libcpmt:wlocale.obj
 0001:0001e171       ?do_thousands_sep@?$numpunct@_W@std@@MBE_WXZ 0041f171 f i libcpmt:wlocale.obj
 0001:0001e176       ?do_tolower@?$ctype@G@std@@MBEGG@Z 0041f176 f i libcpmt:wlocale.obj
 0001:0001e18b       ?do_tolower@?$ctype@G@std@@MBEPBGPAGPBG@Z 0041f18b f i libcpmt:wlocale.obj
 0001:0001e1ba       ?do_tolower@?$ctype@_W@std@@MBEPB_WPA_WPB_W@Z 0041f1ba f i libcpmt:wlocale.obj
 0001:0001e1e9       ?do_tolower@?$ctype@_W@std@@MBE_W_W@Z 0041f1e9 f i libcpmt:wlocale.obj
 0001:0001e1fe       ?do_toupper@?$ctype@G@std@@MBEGG@Z 0041f1fe f i libcpmt:wlocale.obj
 0001:0001e213       ?do_toupper@?$ctype@G@std@@MBEPBGPAGPBG@Z 0041f213 f i libcpmt:wlocale.obj
 0001:0001e242       ?do_toupper@?$ctype@_W@std@@MBEPB_WPA_WPB_W@Z 0041f242 f i libcpmt:wlocale.obj
 0001:0001e271       ?do_toupper@?$ctype@_W@std@@MBE_W_W@Z 0041f271 f i libcpmt:wlocale.obj
 0001:0001e286       ?do_transform@?$collate@G@std@@MBE?AV?$basic_string@GU?$char_traits@G@std@@V?$allocator@G@2@@2@PBG0@Z 0041f286 f i libcpmt:wlocale.obj
 0001:0001e30e       ?do_transform@?$collate@_W@std@@MBE?AV?$basic_string@_WU?$char_traits@_W@std@@V?$allocator@_W@2@@2@PB_W0@Z 0041f30e f i libcpmt:wlocale.obj
 0001:0001e396       ?do_truename@?$numpunct@G@std@@MBE?AV?$basic_string@GU?$char_traits@G@std@@V?$allocator@G@2@@2@XZ 0041f396 f i libcpmt:wlocale.obj
 0001:0001e3ac       ?do_truename@?$numpunct@_W@std@@MBE?AV?$basic_string@_WU?$char_traits@_W@std@@V?$allocator@_W@2@@2@XZ 0041f3ac f i libcpmt:wlocale.obj
 0001:0001e3c2       ?do_unshift@?$codecvt@GDU_Mbstatet@@@std@@MBEHAAU_Mbstatet@@PAD1AAPAD@Z 0041f3c2 f i libcpmt:wlocale.obj
 0001:0001e452       ?do_unshift@?$codecvt@_WDU_Mbstatet@@@std@@MBEHAAU_Mbstatet@@PAD1AAPAD@Z 0041f452 f i libcpmt:wlocale.obj
 0001:0001e4e2       ?do_widen@?$ctype@G@std@@MBEGD@Z 0041f4e2 f i libcpmt:wlocale.obj
 0001:0001e4eb       ?do_widen@?$ctype@G@std@@MBEPBDPBD0PAG@Z 0041f4eb f i libcpmt:wlocale.obj
 0001:0001e51e       ?do_widen@?$ctype@_W@std@@MBEPBDPBD0PA_W@Z 0041f51e f i libcpmt:wlocale.obj
 0001:0001e551       ?do_widen@?$ctype@_W@std@@MBE_WD@Z 0041f551 f i libcpmt:wlocale.obj
 0001:0001e55a       ?empty@?$basic_string@GU?$char_traits@G@std@@V?$allocator@G@2@@std@@QBE_NXZ 0041f55a f i libcpmt:wlocale.obj
 0001:0001e562       ?empty@?$basic_string@_WU?$char_traits@_W@std@@V?$allocator@_W@2@@std@@QBE_NXZ 0041f562 f i libcpmt:wlocale.obj
 0001:0001e56a       ?end@?$basic_string@GU?$char_traits@G@std@@V?$allocator@G@2@@std@@QAE?AV?$_String_iterator@V?$_String_val@U?$_Simple_types@G@std@@@std@@@2@XZ 0041f56a f i libcpmt:wlocale.obj
 0001:0001e586       ?end@?$basic_string@_WU?$char_traits@_W@std@@V?$allocator@_W@2@@std@@QAE?AV?$_String_iterator@V?$_String_val@U?$_Simple_types@_W@std@@@std@@@2@XZ 0041f586 f i libcpmt:wlocale.obj
 0001:0001e5a2       ?eof@?$_WChar_traits@G@std@@SAGXZ 0041f5a2 f i libcpmt:wlocale.obj
 0001:0001e5a8       ?eof@?$_WChar_traits@_W@std@@SAGXZ 0041f5a8 f i libcpmt:wlocale.obj
 0001:0001e5ae       ?eq_int_type@?$_WChar_traits@G@std@@SA_NABG0@Z 0041f5ae f i libcpmt:wlocale.obj
 0001:0001e5c2       ?eq_int_type@?$_WChar_traits@_W@std@@SA_NABG0@Z 0041f5c2 f i libcpmt:wlocale.obj
 0001:0001e5d6       ?equal@?$istreambuf_iterator@GU?$char_traits@G@std@@@std@@QBE_NABV12@@Z 0041f5d6 f i libcpmt:wlocale.obj
 0001:0001e610       ?equal@?$istreambuf_iterator@_WU?$char_traits@_W@std@@@std@@QBE_NABV12@@Z 0041f610 f i libcpmt:wlocale.obj
 0001:0001e64a       ?erase@?$basic_string@DU?$char_traits@D@std@@V?$allocator@D@2@@std@@QAEAAV12@I@Z 0041f64a f i libcpmt:wlocale.obj
 0001:0001e672       ?erase@?$basic_string@GU?$char_traits@G@std@@V?$allocator@G@2@@std@@QAEAAV12@I@Z 0041f672 f i libcpmt:wlocale.obj
 0001:0001e693       ?erase@?$basic_string@_WU?$char_traits@_W@std@@V?$allocator@_W@2@@std@@QAEAAV12@I@Z 0041f693 f i libcpmt:wlocale.obj
 0001:0001e6b4       ?falsename@?$numpunct@G@std@@QBE?AV?$basic_string@GU?$char_traits@G@std@@V?$allocator@G@2@@2@XZ 0041f6b4 f i libcpmt:wlocale.obj
 0001:0001e6d9       ?falsename@?$numpunct@_W@std@@QBE?AV?$basic_string@_WU?$char_traits@_W@std@@V?$allocator@_W@2@@2@XZ 0041f6d9 f i libcpmt:wlocale.obj
 0001:0001e6fe       ?frac_digits@?$_Mpunct@G@std@@QBEHXZ 0041f6fe f i libcpmt:wlocale.obj
 0001:0001e716       ?frac_digits@?$_Mpunct@_W@std@@QBEHXZ 0041f716 f i libcpmt:wlocale.obj
 0001:0001e72e       ?get_monthname@?$time_get@GV?$istreambuf_iterator@GU?$char_traits@G@std@@@std@@@std@@QBE?AV?$istreambuf_iterator@GU?$char_traits@G@std@@@2@V32@0AAVios_base@2@AAHPAUtm@@@Z 0041f72e f i libcpmt:wlocale.obj
 0001:0001e766       ?get_monthname@?$time_get@_WV?$istreambuf_iterator@_WU?$char_traits@_W@std@@@std@@@std@@QBE?AV?$istreambuf_iterator@_WU?$char_traits@_W@std@@@2@V32@0AAVios_base@2@AAHPAUtm@@@Z 0041f766 f i libcpmt:wlocale.obj
 0001:0001e79e       ?get_weekday@?$time_get@GV?$istreambuf_iterator@GU?$char_traits@G@std@@@std@@@std@@QBE?AV?$istreambuf_iterator@GU?$char_traits@G@std@@@2@V32@0AAVios_base@2@AAHPAUtm@@@Z 0041f79e f i libcpmt:wlocale.obj
 0001:0001e7d6       ?get_weekday@?$time_get@_WV?$istreambuf_iterator@_WU?$char_traits@_W@std@@@std@@@std@@QBE?AV?$istreambuf_iterator@_WU?$char_traits@_W@std@@@2@V32@0AAVios_base@2@AAHPAUtm@@@Z 0041f7d6 f i libcpmt:wlocale.obj
 0001:0001e80e       ?get_year@?$time_get@GV?$istreambuf_iterator@GU?$char_traits@G@std@@@std@@@std@@QBE?AV?$istreambuf_iterator@GU?$char_traits@G@std@@@2@V32@0AAVios_base@2@AAHPAUtm@@@Z 0041f80e f i libcpmt:wlocale.obj
 0001:0001e846       ?get_year@?$time_get@_WV?$istreambuf_iterator@_WU?$char_traits@_W@std@@@std@@@std@@QBE?AV?$istreambuf_iterator@_WU?$char_traits@_W@std@@@2@V32@0AAVios_base@2@AAHPAUtm@@@Z 0041f846 f i libcpmt:wlocale.obj
 0001:0001e87e       ?gptr@?$basic_streambuf@GU?$char_traits@G@std@@@std@@IBEPAGXZ 0041f87e f i libcpmt:wlocale.obj
 0001:0001e884       ?gptr@?$basic_streambuf@_WU?$char_traits@_W@std@@@std@@IBEPA_WXZ 0041f884 f i libcpmt:wlocale.obj
 0001:0001e88a       ?grouping@?$_Mpunct@G@std@@QBE?AV?$basic_string@DU?$char_traits@D@std@@V?$allocator@D@2@@2@XZ 0041f88a f i libcpmt:wlocale.obj
 0001:0001e8af       ?grouping@?$_Mpunct@_W@std@@QBE?AV?$basic_string@DU?$char_traits@D@std@@V?$allocator@D@2@@2@XZ 0041f8af f i libcpmt:wlocale.obj
 0001:0001e8d4       ?grouping@?$numpunct@G@std@@QBE?AV?$basic_string@DU?$char_traits@D@std@@V?$allocator@D@2@@2@XZ 0041f8d4 f i libcpmt:wlocale.obj
 0001:0001e8f9       ?grouping@?$numpunct@_W@std@@QBE?AV?$basic_string@DU?$char_traits@D@std@@V?$allocator@D@2@@2@XZ 0041f8f9 f i libcpmt:wlocale.obj
 0001:0001e91e       ?insert@?$basic_string@GU?$char_traits@G@std@@V?$allocator@G@2@@std@@QAEAAV12@IIG@Z 0041f91e f i libcpmt:wlocale.obj
 0001:0001e994       ?insert@?$basic_string@_WU?$char_traits@_W@std@@V?$allocator@_W@2@@std@@QAEAAV12@II_W@Z 0041f994 f i libcpmt:wlocale.obj
 0001:0001ea0a       ?is@?$ctype@G@std@@QBE_NFG@Z 0041fa0a f i libcpmt:wlocale.obj
 0001:0001ea2e       ?is@?$ctype@_W@std@@QBE_NF_W@Z 0041fa2e f i libcpmt:wlocale.obj
 0001:0001ea52       ?length@?$_Char_traits@GG@std@@SAIPBG@Z 0041fa52 f i libcpmt:wlocale.obj
 0001:0001ea69       ?length@?$_WChar_traits@G@std@@SAIPBG@Z 0041fa69 f i libcpmt:wlocale.obj
 0001:0001ea80       ?length@?$_WChar_traits@_W@std@@SAIPB_W@Z 0041fa80 f i libcpmt:wlocale.obj
 0001:0001ea9a       ?max_size@?$_Default_allocator_traits@V?$allocator@G@std@@@std@@SAIABV?$allocator@G@2@@Z 0041fa9a f i libcpmt:wlocale.obj
 0001:0001eaa0       ?max_size@?$_Default_allocator_traits@V?$allocator@_W@std@@@std@@SAIABV?$allocator@_W@2@@Z 0041faa0 f i libcpmt:wlocale.obj
 0001:0001eaa6       ?max_size@?$basic_string@GU?$char_traits@G@std@@V?$allocator@G@2@@std@@QBEIXZ 0041faa6 f i libcpmt:wlocale.obj
 0001:0001eaac       ?max_size@?$basic_string@_WU?$char_traits@_W@std@@V?$allocator@_W@2@@std@@QBEIXZ 0041faac f i libcpmt:wlocale.obj
 0001:0001eab2       ?move@?$_Char_traits@GG@std@@SAPAGQAGQBGI@Z 0041fab2 f i libcpmt:wlocale.obj
 0001:0001eace       ?move@?$_Char_traits@_WG@std@@SAPA_WQA_WQB_WI@Z 0041face f i libcpmt:wlocale.obj
 0001:0001eaea       ?name@locale@std@@QBE?AV?$basic_string@DU?$char_traits@D@std@@V?$allocator@D@2@@2@XZ 0041faea f i libcpmt:wlocale.obj
 0001:0001eb95       ?narrow@?$ctype@G@std@@QBEDGD@Z 0041fb95 f i libcpmt:wlocale.obj
 0001:0001ebb9       ?narrow@?$ctype@_W@std@@QBED_WD@Z 0041fbb9 f i libcpmt:wlocale.obj
 0001:0001ebdd       ?neg_format@?$_Mpunct@G@std@@QBE?AUpattern@money_base@2@XZ 0041fbdd f i libcpmt:wlocale.obj
 0001:0001ec01       ?neg_format@?$_Mpunct@_W@std@@QBE?AUpattern@money_base@2@XZ 0041fc01 f i libcpmt:wlocale.obj
 0001:0001ec25       ?negative_sign@?$_Mpunct@G@std@@QBE?AV?$basic_string@GU?$char_traits@G@std@@V?$allocator@G@2@@2@XZ 0041fc25 f i libcpmt:wlocale.obj
 0001:0001ec4a       ?negative_sign@?$_Mpunct@_W@std@@QBE?AV?$basic_string@_WU?$char_traits@_W@std@@V?$allocator@_W@2@@2@XZ 0041fc4a f i libcpmt:wlocale.obj
 0001:0001ec6f       ?pos_format@?$_Mpunct@G@std@@QBE?AUpattern@money_base@2@XZ 0041fc6f f i libcpmt:wlocale.obj
 0001:0001ec93       ?pos_format@?$_Mpunct@_W@std@@QBE?AUpattern@money_base@2@XZ 0041fc93 f i libcpmt:wlocale.obj
 0001:0001ecb7       ?positive_sign@?$_Mpunct@G@std@@QBE?AV?$basic_string@GU?$char_traits@G@std@@V?$allocator@G@2@@2@XZ 0041fcb7 f i libcpmt:wlocale.obj
 0001:0001ecdc       ?positive_sign@?$_Mpunct@_W@std@@QBE?AV?$basic_string@_WU?$char_traits@_W@std@@V?$allocator@_W@2@@2@XZ 0041fcdc f i libcpmt:wlocale.obj
 0001:0001ed01       ?push_back@?$basic_string@GU?$char_traits@G@std@@V?$allocator@G@2@@std@@QAEXG@Z 0041fd01 f i libcpmt:wlocale.obj
 0001:0001ed3d       ?push_back@?$basic_string@_WU?$char_traits@_W@std@@V?$allocator@_W@2@@std@@QAEX_W@Z 0041fd3d f i libcpmt:wlocale.obj
 0001:0001ed79       ?resize@?$basic_string@GU?$char_traits@G@std@@V?$allocator@G@2@@std@@QAEXIG@Z 0041fd79 f i libcpmt:wlocale.obj
 0001:0001ed9c       ?resize@?$basic_string@_WU?$char_traits@_W@std@@V?$allocator@_W@2@@std@@QAEXI_W@Z 0041fd9c f i libcpmt:wlocale.obj
 0001:0001edbf       ?sbumpc@?$basic_streambuf@GU?$char_traits@G@std@@@std@@QAEGXZ 0041fdbf f i libcpmt:wlocale.obj
 0001:0001edfb       ?sbumpc@?$basic_streambuf@_WU?$char_traits@_W@std@@@std@@QAEGXZ 0041fdfb f i libcpmt:wlocale.obj
 0001:0001ee37       ?select_on_container_copy_construction@?$_Default_allocator_traits@V?$allocator@G@std@@@std@@SA?AV?$allocator@G@2@ABV32@@Z 0041fe37 f i libcpmt:wlocale.obj
 0001:0001ee3f       ?select_on_container_copy_construction@?$_Default_allocator_traits@V?$allocator@_W@std@@@std@@SA?AV?$allocator@_W@2@ABV32@@Z 0041fe3f f i libcpmt:wlocale.obj
 0001:0001ee47       ?setstate@ios_base@std@@QAEXH@Z 0041fe47 f i libcpmt:wlocale.obj
 0001:0001ee5c       ?sgetc@?$basic_streambuf@GU?$char_traits@G@std@@@std@@QAEGXZ 0041fe5c f i libcpmt:wlocale.obj
 0001:0001ee8d       ?sgetc@?$basic_streambuf@_WU?$char_traits@_W@std@@@std@@QAEGXZ 0041fe8d f i libcpmt:wlocale.obj
 0001:0001eebe       ?size@?$basic_string@GU?$char_traits@G@std@@V?$allocator@G@2@@std@@QBEIXZ 0041febe f i libcpmt:wlocale.obj
 0001:0001eec2       ?size@?$basic_string@_WU?$char_traits@_W@std@@V?$allocator@_W@2@@std@@QBEIXZ 0041fec2 f i libcpmt:wlocale.obj
 0001:0001eec6       ?sputc@?$basic_streambuf@GU?$char_traits@G@std@@@std@@QAEGG@Z 0041fec6 f i libcpmt:wlocale.obj
 0001:0001ef0e       ?sputc@?$basic_streambuf@_WU?$char_traits@_W@std@@@std@@QAEG_W@Z 0041ff0e f i libcpmt:wlocale.obj
 0001:0001ef56       ?thousands_sep@?$_Mpunct@G@std@@QBEGXZ 0041ff56 f i libcpmt:wlocale.obj
 0001:0001ef6e       ?thousands_sep@?$_Mpunct@_W@std@@QBE_WXZ 0041ff6e f i libcpmt:wlocale.obj
 0001:0001ef86       ?thousands_sep@?$numpunct@G@std@@QBEGXZ 0041ff86 f i libcpmt:wlocale.obj
 0001:0001ef9e       ?thousands_sep@?$numpunct@_W@std@@QBE_WXZ 0041ff9e f i libcpmt:wlocale.obj
 0001:0001efb6       ?to_char_type@?$_WChar_traits@G@std@@SAGABG@Z 0041ffb6 f i libcpmt:wlocale.obj
 0001:0001efc1       ?to_char_type@?$_WChar_traits@_W@std@@SA_WABG@Z 0041ffc1 f i libcpmt:wlocale.obj
 0001:0001efcc       ?to_int_type@?$_WChar_traits@G@std@@SAGABG@Z 0041ffcc f i libcpmt:wlocale.obj
 0001:0001efd7       ?to_int_type@?$_WChar_traits@_W@std@@SAGAB_W@Z 0041ffd7 f i libcpmt:wlocale.obj
 0001:0001efe2       ?tolower@?$ctype@G@std@@QBEGG@Z 0041ffe2 f i libcpmt:wlocale.obj
 0001:0001f003       ?tolower@?$ctype@_W@std@@QBE_W_W@Z 00420003 f i libcpmt:wlocale.obj
 0001:0001f024       ?truename@?$numpunct@G@std@@QBE?AV?$basic_string@GU?$char_traits@G@std@@V?$allocator@G@2@@2@XZ 00420024 f i libcpmt:wlocale.obj
 0001:0001f049       ?truename@?$numpunct@_W@std@@QBE?AV?$basic_string@_WU?$char_traits@_W@std@@V?$allocator@_W@2@@2@XZ 00420049 f i libcpmt:wlocale.obj
 0001:0001f06e       ?widen@?$ctype@G@std@@QBEGD@Z 0042006e f i libcpmt:wlocale.obj
 0001:0001f08f       ?widen@?$ctype@G@std@@QBEPBDPBD0PAG@Z 0042008f f i libcpmt:wlocale.obj
 0001:0001f0b6       ?widen@?$ctype@_W@std@@QBEPBDPBD0PA_W@Z 004200b6 f i libcpmt:wlocale.obj
 0001:0001f0dd       ?widen@?$ctype@_W@std@@QBE_WD@Z 004200dd f i libcpmt:wlocale.obj
 0001:0001f0fe       _wmemcpy                   004200fe f i libcpmt:wlocale.obj
 0001:0001f117       _wmemset                   00420117 f i libcpmt:wlocale.obj
 0001:0001f141       ??$_Copy_unchecked@PADV?$ostreambuf_iterator@DU?$char_traits@D@std@@@std@@@std@@YA?AV?$ostreambuf_iterator@DU?$char_traits@D@std@@@0@PAD0V10@@Z 00420141 f i libcpmt:xlocale.obj
 0001:0001f16d       ??$_Find_elem@D$0M@@std@@YAIAAY0M@$$CBDD@Z 0042016d f i libcpmt:xlocale.obj
 0001:0001f192       ??$_Get_unwrapped@AAPAD@std@@YA?A_TAAPAD@Z 00420192 f i libcpmt:xlocale.obj
 0001:0001f19c       ??$_Get_unwrapped_n@AAV?$ostreambuf_iterator@DU?$char_traits@D@std@@@std@@H@std@@YA?A_TAAV?$ostreambuf_iterator@DU?$char_traits@D@std@@@0@H@Z 0042019c f i libcpmt:xlocale.obj
 0001:0001f1a4       ??$_Getvals@D@?$_Mpunct@D@std@@IAEXDPBUlconv@@@Z 004201a4 f i libcpmt:xlocale.obj
 0001:0001f220       ??$_Getvals@D@?$time_get@DV?$istreambuf_iterator@DU?$char_traits@D@std@@@std@@@std@@IAEXDABV_Locinfo@1@@Z 00420220 f i libcpmt:xlocale.obj
 0001:0001f28b       ??$_Hash_array_representation@D@std@@YAIQBDI@Z 0042028b f i libcpmt:xlocale.obj
 0001:0001f2a3       ??$_Idl_distance@PADPAD@std@@YA?A_PABQAD0@Z 004202a3 f i libcpmt:xlocale.obj
 0001:0001f2b2       ??$_LStrcoll@D@std@@YAHPBD000PBU_Collvec@@@Z 004202b2 f i libcpmt:xlocale.obj
 0001:0001f2bb       ??$_LStrxfrm@D@std@@YAIPAD0PBD1PBU_Collvec@@@Z 004202bb f i libcpmt:xlocale.obj
 0001:0001f2c4       ??$_Refancy@PAD$0A@@std@@YAPADPAD@Z 004202c4 f i libcpmt:xlocale.obj
 0001:0001f2cc       ??$_Seek_wrapped@V?$ostreambuf_iterator@DU?$char_traits@D@std@@@std@@V12@@std@@YAXAAV?$ostreambuf_iterator@DU?$char_traits@D@std@@@0@$$QAV10@@Z 004202cc f i libcpmt:xlocale.obj
 0001:0001f2e1       ??$addressof@$$CBV?$moneypunct@D$00@std@@@std@@YAPBV?$moneypunct@D$00@0@ABV10@@Z 004202e1 f i libcpmt:xlocale.obj
 0001:0001f2e9       ??$addressof@$$CBV?$moneypunct@D$0A@@std@@@std@@YAPBV?$moneypunct@D$0A@@0@ABV10@@Z 004202e9 f i libcpmt:xlocale.obj
 0001:0001f2f1       ??$copy@PADV?$ostreambuf_iterator@DU?$char_traits@D@std@@@std@@@std@@YA?AV?$ostreambuf_iterator@DU?$char_traits@D@std@@@0@PAD0V10@@Z 004202f1 f i libcpmt:xlocale.obj
 0001:0001f31d       ??$forward@V?$ostreambuf_iterator@DU?$char_traits@D@std@@@std@@@std@@YA$$QAV?$ostreambuf_iterator@DU?$char_traits@D@std@@@0@AAV10@@Z 0042031d f i libcpmt:xlocale.obj
 0001:0001f325       ??$use_facet@V?$collate@D@std@@@std@@YAABV?$collate@D@0@ABVlocale@0@@Z 00420325 f i libcpmt:xlocale.obj
 0001:0001f3ba       ??$use_facet@V?$messages@D@std@@@std@@YAABV?$messages@D@0@ABVlocale@0@@Z 004203ba f i libcpmt:xlocale.obj
 0001:0001f44f       ??$use_facet@V?$money_get@DV?$istreambuf_iterator@DU?$char_traits@D@std@@@std@@@std@@@std@@YAABV?$money_get@DV?$istreambuf_iterator@DU?$char_traits@D@std@@@std@@@0@ABVlocale@0@@Z 0042044f f i libcpmt:xlocale.obj
 0001:0001f4e4       ??$use_facet@V?$money_put@DV?$ostreambuf_iterator@DU?$char_traits@D@std@@@std@@@std@@@std@@YAABV?$money_put@DV?$ostreambuf_iterator@DU?$char_traits@D@std@@@std@@@0@ABVlocale@0@@Z 004204e4 f i libcpmt:xlocale.obj
 0001:0001f579       ??$use_facet@V?$moneypunct@D$00@std@@@std@@YAABV?$moneypunct@D$00@0@ABVlocale@0@@Z 00420579 f i libcpmt:xlocale.obj
 0001:0001f60e       ??$use_facet@V?$moneypunct@D$0A@@std@@@std@@YAABV?$moneypunct@D$0A@@0@ABVlocale@0@@Z 0042060e f i libcpmt:xlocale.obj
 0001:0001f6a3       ??$use_facet@V?$time_get@DV?$istreambuf_iterator@DU?$char_traits@D@std@@@std@@@std@@@std@@YAABV?$time_get@DV?$istreambuf_iterator@DU?$char_traits@D@std@@@std@@@0@ABVlocale@0@@Z 004206a3 f i libcpmt:xlocale.obj
 0001:0001f738       ??$use_facet@V?$time_put@DV?$ostreambuf_iterator@DU?$char_traits@D@std@@@std@@@std@@@std@@YAABV?$time_put@DV?$ostreambuf_iterator@DU?$char_traits@D@std@@@std@@@0@ABVlocale@0@@Z 00420738 f i libcpmt:xlocale.obj
 0001:0001f7cd       ??0?$_Mpunct@D@std@@QAE@ABV_Locinfo@1@I_N1@Z 004207cd f i libcpmt:xlocale.obj
 0001:0001f809       ??0?$_String_const_iterator@V?$_String_val@U?$_Simple_types@D@std@@@std@@@std@@QAE@PBDPBU_Container_base0@1@@Z 00420809 f i libcpmt:xlocale.obj
 0001:0001f817       ??0?$_String_const_iterator@V?$_String_val@U?$_Simple_types@D@std@@@std@@@std@@QAE@XZ 00420817 f i libcpmt:xlocale.obj
 0001:0001f81d       ??0?$_String_iterator@V?$_String_val@U?$_Simple_types@D@std@@@std@@@std@@QAE@PBDPBU_Container_base0@1@@Z 0042081d f i libcpmt:xlocale.obj
 0001:0001f82b       ??0?$collate@D@std@@QAE@ABV_Locinfo@1@I@Z 0042082b f i libcpmt:xlocale.obj
 0001:0001f853       ??0?$messages@D@std@@QAE@ABV_Locinfo@1@I@Z 00420853 f i libcpmt:xlocale.obj
 0001:0001f86c       ??0?$money_get@DV?$istreambuf_iterator@DU?$char_traits@D@std@@@std@@@std@@QAE@ABV_Locinfo@1@I@Z 0042086c f i libcpmt:xlocale.obj
 0001:0001f885       ??0?$money_put@DV?$ostreambuf_iterator@DU?$char_traits@D@std@@@std@@@std@@QAE@ABV_Locinfo@1@I@Z 00420885 f i libcpmt:xlocale.obj
 0001:0001f89e       ??0?$moneypunct@D$00@std@@QAE@ABV_Locinfo@1@I_N@Z 0042089e f i libcpmt:xlocale.obj
 0001:0001f8c5       ??0?$moneypunct@D$0A@@std@@QAE@ABV_Locinfo@1@I_N@Z 004208c5 f i libcpmt:xlocale.obj
 0001:0001f8ec       ??0?$time_get@DV?$istreambuf_iterator@DU?$char_traits@D@std@@@std@@@std@@QAE@ABV_Locinfo@1@I@Z 004208ec f i libcpmt:xlocale.obj
 0001:0001f91f       ??0?$time_put@DV?$ostreambuf_iterator@DU?$char_traits@D@std@@@std@@@std@@QAE@ABV_Locinfo@1@I@Z 0042091f f i libcpmt:xlocale.obj
 0001:0001f948       ??1?$_Mpunct@D@std@@MAE@XZ 00420948 f i libcpmt:xlocale.obj
 0001:0001f95e       ??1?$_Tidy_guard@V?$_Mpunct@D@std@@@std@@QAE@XZ 0042095e f i libcpmt:xlocale.obj
 0001:0001f969       ??1?$_Tidy_guard@V?$time_get@DV?$istreambuf_iterator@DU?$char_traits@D@std@@@std@@@std@@@std@@QAE@XZ 00420969 f i libcpmt:xlocale.obj
 0001:0001f974       ??1?$collate@D@std@@MAE@XZ 00420974 f i libcpmt:xlocale.obj
 0001:0001f98e       ??1?$messages@D@std@@MAE@XZ 0042098e f i libcpmt:xlocale.obj
 0001:0001f995       ??1?$money_get@DV?$istreambuf_iterator@DU?$char_traits@D@std@@@std@@@std@@MAE@XZ 00420995 f i libcpmt:xlocale.obj
 0001:0001f99c       ??1?$money_put@DV?$ostreambuf_iterator@DU?$char_traits@D@std@@@std@@@std@@MAE@XZ 0042099c f i libcpmt:xlocale.obj
 0001:0001f9a3       ??1?$moneypunct@D$00@std@@MAE@XZ 004209a3 f i libcpmt:xlocale.obj
 0001:0001f9b9       ??1?$moneypunct@D$0A@@std@@MAE@XZ 004209b9 f i libcpmt:xlocale.obj
 0001:0001f9cf       ??1?$time_get@DV?$istreambuf_iterator@DU?$char_traits@D@std@@@std@@@std@@MAE@XZ 004209cf f i libcpmt:xlocale.obj
 0001:0001f9e5       ??1?$time_put@DV?$ostreambuf_iterator@DU?$char_traits@D@std@@@std@@@std@@MAE@XZ 004209e5 f i libcpmt:xlocale.obj
 0001:0001f9ff       ??8?$_String_const_iterator@V?$_String_val@U?$_Simple_types@D@std@@@std@@@std@@QBE_NABV01@@Z 004209ff f i libcpmt:xlocale.obj
 0001:0001fa10       ??D?$_String_const_iterator@V?$_String_val@U?$_Simple_types@D@std@@@std@@@std@@QBEABDXZ 00420a10 f i libcpmt:xlocale.obj
 0001:0001fa13       ??D?$_String_iterator@V?$_String_val@U?$_Simple_types@D@std@@@std@@@std@@QBEAADXZ 00420a13 f i libcpmt:xlocale.obj
 0001:0001fa16       ??E?$_String_const_iterator@V?$_String_val@U?$_Simple_types@D@std@@@std@@@std@@QAEAAV01@XZ 00420a16 f i libcpmt:xlocale.obj
 0001:0001fa1b       ??E?$_String_iterator@V?$_String_val@U?$_Simple_types@D@std@@@std@@@std@@QAEAAV01@XZ 00420a1b f i libcpmt:xlocale.obj
 0001:0001fa20       ??E?$ostreambuf_iterator@DU?$char_traits@D@std@@@std@@QAEAAV01@H@Z 00420a20 f i libcpmt:xlocale.obj
 0001:0001fa25       ??G?$_String_iterator@V?$_String_val@U?$_Simple_types@D@std@@@std@@@std@@QBE?AV01@H@Z 00420a25 f i libcpmt:xlocale.obj
 0001:0001fa36       ??H?$_String_iterator@V?$_String_val@U?$_Simple_types@D@std@@@std@@@std@@QBE?AV01@H@Z 00420a36 f i libcpmt:xlocale.obj
 0001:0001fa47       ??Y?$_String_const_iterator@V?$_String_val@U?$_Simple_types@D@std@@@std@@@std@@QAEAAV01@H@Z 00420a47 f i libcpmt:xlocale.obj
 0001:0001fa55       ??Y?$_String_iterator@V?$_String_val@U?$_Simple_types@D@std@@@std@@@std@@QAEAAV01@H@Z 00420a55 f i libcpmt:xlocale.obj
 0001:0001fa63       ??Z?$_String_const_iterator@V?$_String_val@U?$_Simple_types@D@std@@@std@@@std@@QAEAAV01@H@Z 00420a63 f i libcpmt:xlocale.obj
 0001:0001fa71       ??Z?$_String_iterator@V?$_String_val@U?$_Simple_types@D@std@@@std@@@std@@QAEAAV01@H@Z 00420a71 f i libcpmt:xlocale.obj
 0001:0001fa7f       ??_G?$_Mpunct@D@std@@MAEPAXI@Z 00420a7f f i libcpmt:xlocale.obj
 0001:0001fa7f       ??_E?$_Mpunct@D@std@@MAEPAXI@Z 00420a7f f i libcpmt:xlocale.obj
 0001:0001faad       ??_G?$collate@D@std@@MAEPAXI@Z 00420aad f i libcpmt:xlocale.obj
 0001:0001faad       ??_E?$collate@D@std@@MAEPAXI@Z 00420aad f i libcpmt:xlocale.obj
 0001:0001facf       ??_E?$messages@D@std@@MAEPAXI@Z 00420acf f i libcpmt:xlocale.obj
 0001:0001facf       ??_G?$messages@D@std@@MAEPAXI@Z 00420acf f i libcpmt:xlocale.obj
 0001:0001faf2       ??_G?$money_get@DV?$istreambuf_iterator@DU?$char_traits@D@std@@@std@@@std@@MAEPAXI@Z 00420af2 f i libcpmt:xlocale.obj
 0001:0001faf2       ??_E?$money_get@DV?$istreambuf_iterator@DU?$char_traits@D@std@@@std@@@std@@MAEPAXI@Z 00420af2 f i libcpmt:xlocale.obj
 0001:0001fb15       ??_E?$money_put@DV?$ostreambuf_iterator@DU?$char_traits@D@std@@@std@@@std@@MAEPAXI@Z 00420b15 f i libcpmt:xlocale.obj
 0001:0001fb15       ??_G?$money_put@DV?$ostreambuf_iterator@DU?$char_traits@D@std@@@std@@@std@@MAEPAXI@Z 00420b15 f i libcpmt:xlocale.obj
 0001:0001fb38       ??_E?$moneypunct@D$00@std@@MAEPAXI@Z 00420b38 f i libcpmt:xlocale.obj
 0001:0001fb38       ??_G?$moneypunct@D$00@std@@MAEPAXI@Z 00420b38 f i libcpmt:xlocale.obj
 0001:0001fb66       ??_E?$moneypunct@D$0A@@std@@MAEPAXI@Z 00420b66 f i libcpmt:xlocale.obj
 0001:0001fb66       ??_G?$moneypunct@D$0A@@std@@MAEPAXI@Z 00420b66 f i libcpmt:xlocale.obj
 0001:0001fb94       ??_E?$time_get@DV?$istreambuf_iterator@DU?$char_traits@D@std@@@std@@@std@@MAEPAXI@Z 00420b94 f i libcpmt:xlocale.obj
 0001:0001fb94       ??_G?$time_get@DV?$istreambuf_iterator@DU?$char_traits@D@std@@@std@@@std@@MAEPAXI@Z 00420b94 f i libcpmt:xlocale.obj
 0001:0001fbc2       ??_E?$time_put@DV?$ostreambuf_iterator@DU?$char_traits@D@std@@@std@@@std@@MAEPAXI@Z 00420bc2 f i libcpmt:xlocale.obj
 0001:0001fbc2       ??_G?$time_put@DV?$ostreambuf_iterator@DU?$char_traits@D@std@@@std@@@std@@MAEPAXI@Z 00420bc2 f i libcpmt:xlocale.obj
 0001:0001fbe4       ?_Compat@?$_String_const_iterator@V?$_String_val@U?$_Simple_types@D@std@@@std@@@std@@QBEXABV12@@Z 00420be4 f i libcpmt:xlocale.obj
 0001:0001fbe7       ?_Getcat@?$collate@D@std@@SAIPAPBVfacet@locale@2@PBV42@@Z 00420be7 f i libcpmt:xlocale.obj
 0001:0001fc89       ?_Getcat@?$messages@D@std@@SAIPAPBVfacet@locale@2@PBV42@@Z 00420c89 f i libcpmt:xlocale.obj
 0001:0001fcf1       ?_Getcat@?$money_get@DV?$istreambuf_iterator@DU?$char_traits@D@std@@@std@@@std@@SAIPAPBVfacet@locale@2@PBV42@@Z 00420cf1 f i libcpmt:xlocale.obj
 0001:0001fd59       ?_Getcat@?$money_put@DV?$ostreambuf_iterator@DU?$char_traits@D@std@@@std@@@std@@SAIPAPBVfacet@locale@2@PBV42@@Z 00420d59 f i libcpmt:xlocale.obj
 0001:0001fdc1       ?_Getcat@?$moneypunct@D$00@std@@SAIPAPBVfacet@locale@2@PBV42@@Z 00420dc1 f i libcpmt:xlocale.obj
 0001:0001fe45       ?_Getcat@?$moneypunct@D$0A@@std@@SAIPAPBVfacet@locale@2@PBV42@@Z 00420e45 f i libcpmt:xlocale.obj
 0001:0001feca       ?_Getcat@?$time_get@DV?$istreambuf_iterator@DU?$char_traits@D@std@@@std@@@std@@SAIPAPBVfacet@locale@2@PBV42@@Z 00420eca f i libcpmt:xlocale.obj
 0001:0001ff36       ?_Getcat@?$time_put@DV?$ostreambuf_iterator@DU?$char_traits@D@std@@@std@@@std@@SAIPAPBVfacet@locale@2@PBV42@@Z 00420f36 f i libcpmt:xlocale.obj
 0001:0001ffaa       ?_Getfmt@?$time_get@DV?$istreambuf_iterator@DU?$char_traits@D@std@@@std@@@std@@IBE?AV?$istreambuf_iterator@DU?$char_traits@D@std@@@2@V32@0AAVios_base@2@AAHPAUtm@@PBD@Z 00420faa f i libcpmt:xlocale.obj
 0001:000200da       ?_Getint@?$time_get@DV?$istreambuf_iterator@DU?$char_traits@D@std@@@std@@@std@@ABAHAAV?$istreambuf_iterator@DU?$char_traits@D@std@@@2@0HHAAHABV?$ctype@D@2@@Z 004210da f i libcpmt:xlocale.obj
 0001:000202f3       ?_Getmfld@?$money_get@DV?$istreambuf_iterator@DU?$char_traits@D@std@@@std@@@std@@ABE?AV?$basic_string@DU?$char_traits@D@std@@V?$allocator@D@2@@2@AAV?$istreambuf_iterator@DU?$char_traits@D@std@@@2@0_NAAVios_base@2@AAY0M@D@Z 004212f3 f i libcpmt:xlocale.obj
 0001:00020ddf       ?_Gettnames@_Locinfo@std@@QBE?AV_Timevec@2@XZ 00421ddf f i libcpmt:xlocale.obj
 0001:00020df3       ?_Init@?$_Mpunct@D@std@@IAEXABV_Locinfo@2@_N@Z 00421df3 f i libcpmt:xlocale.obj
 0001:00020ebe       ?_Init@?$collate@D@std@@IAEXABV_Locinfo@2@@Z 00421ebe f i libcpmt:xlocale.obj
 0001:00020ed0       ?_Init@?$messages@D@std@@IAEXABV_Locinfo@2@@Z 00421ed0 f i libcpmt:xlocale.obj
 0001:00020ed3       ?_Init@?$money_get@DV?$istreambuf_iterator@DU?$char_traits@D@std@@@std@@@std@@IAEXABV_Locinfo@2@@Z 00421ed3 f i libcpmt:xlocale.obj
 0001:00020ed6       ?_Init@?$money_put@DV?$ostreambuf_iterator@DU?$char_traits@D@std@@@std@@@std@@IAEXABV_Locinfo@2@@Z 00421ed6 f i libcpmt:xlocale.obj
 0001:00020ed9       ?_Init@?$time_get@DV?$istreambuf_iterator@DU?$char_traits@D@std@@@std@@@std@@IAEXABV_Locinfo@2@@Z 00421ed9 f i libcpmt:xlocale.obj
 0001:00020f11       ?_Init@?$time_put@DV?$ostreambuf_iterator@DU?$char_traits@D@std@@@std@@@std@@IAEXABV_Locinfo@2@@Z 00421f11 f i libcpmt:xlocale.obj
 0001:00020f3a       ?_Makexloc@_Locimp@locale@std@@CAXABV_Locinfo@3@HPAV123@PBV23@@Z 00421f3a f   libcpmt:xlocale.obj
 0001:00021246       ?_Makpat@?$_Mpunct@D@std@@AAEXAAUpattern@money_base@2@III@Z 00422246 f i libcpmt:xlocale.obj
 0001:00021287       ?_Put@?$money_put@DV?$ostreambuf_iterator@DU?$char_traits@D@std@@@std@@@std@@CA?AV?$ostreambuf_iterator@DU?$char_traits@D@std@@@2@V32@V?$_String_const_iterator@V?$_String_val@U?$_Simple_types@D@std@@@std@@@2@I@Z 00422287 f i libcpmt:xlocale.obj
 0001:000212be       ?_Putmfld@?$money_put@DV?$ostreambuf_iterator@DU?$char_traits@D@std@@@std@@@std@@ABE?AV?$ostreambuf_iterator@DU?$char_traits@D@std@@@2@V32@_NAAVios_base@2@D1V?$basic_string@DU?$char_traits@D@std@@V?$allocator@D@2@@2@D@Z 004222be f i libcpmt:xlocale.obj
 0001:000218ae       ?_Rep@?$money_put@DV?$ostreambuf_iterator@DU?$char_traits@D@std@@@std@@@std@@CA?AV?$ostreambuf_iterator@DU?$char_traits@D@std@@@2@V32@DI@Z 004228ae f i libcpmt:xlocale.obj
 0001:000218da       ?_Tidy@?$_Mpunct@D@std@@AAEXXZ 004228da f i libcpmt:xlocale.obj
 0001:00021902       ?_Tidy@?$time_get@DV?$istreambuf_iterator@DU?$char_traits@D@std@@@std@@@std@@AAEXXZ 00422902 f i libcpmt:xlocale.obj
 0001:00021922       ?begin@?$basic_string@DU?$char_traits@D@std@@V?$allocator@D@2@@std@@QAE?AV?$_String_iterator@V?$_String_val@U?$_Simple_types@D@std@@@std@@@2@XZ 00422922 f i libcpmt:xlocale.obj
 0001:00021936       ?curr_symbol@?$_Mpunct@D@std@@QBE?AV?$basic_string@DU?$char_traits@D@std@@V?$allocator@D@2@@2@XZ 00422936 f i libcpmt:xlocale.obj
 0001:0002195b       ?date_order@?$time_get@DV?$istreambuf_iterator@DU?$char_traits@D@std@@@std@@@std@@QBE?AW4dateorder@time_base@2@XZ 0042295b f i libcpmt:xlocale.obj
 0001:00021973       ?decimal_point@?$_Mpunct@D@std@@QBEDXZ 00422973 f i libcpmt:xlocale.obj
 0001:0002198b       ?do_close@?$messages@D@std@@MBEXH@Z 0042298b f i libcpmt:xlocale.obj
 0001:0002198e       ?do_compare@?$collate@D@std@@MBEHPBD000@Z 0042298e f i libcpmt:xlocale.obj
 0001:000219bf       ?do_curr_symbol@?$_Mpunct@D@std@@MBE?AV?$basic_string@DU?$char_traits@D@std@@V?$allocator@D@2@@2@XZ 004229bf f i libcpmt:xlocale.obj
 0001:000219d5       ?do_date_order@?$time_get@DV?$istreambuf_iterator@DU?$char_traits@D@std@@@std@@@std@@MBE?AW4dateorder@time_base@2@XZ 004229d5 f i libcpmt:xlocale.obj
 0001:000219d9       ?do_decimal_point@?$_Mpunct@D@std@@MBEDXZ 004229d9 f i libcpmt:xlocale.obj
 0001:000219dd       ?do_frac_digits@?$_Mpunct@D@std@@MBEHXZ 004229dd f i libcpmt:xlocale.obj
 0001:000219e1       ?do_get@?$messages@D@std@@MBE?AV?$basic_string@DU?$char_traits@D@std@@V?$allocator@D@2@@2@HHHABV32@@Z 004229e1 f i libcpmt:xlocale.obj
 0001:00021a04       ?do_get@?$money_get@DV?$istreambuf_iterator@DU?$char_traits@D@std@@@std@@@std@@MBE?AV?$istreambuf_iterator@DU?$char_traits@D@std@@@2@V32@0_NAAVios_base@2@AAHAAO@Z 00422a04 f i libcpmt:xlocale.obj
 0001:00021aac       ?do_get@?$money_get@DV?$istreambuf_iterator@DU?$char_traits@D@std@@@std@@@std@@MBE?AV?$istreambuf_iterator@DU?$char_traits@D@std@@@2@V32@0_NAAVios_base@2@AAHAAV?$basic_string@DU?$char_traits@D@std@@V?$allocator@D@2@@2@@Z 00422aac f i libcpmt:xlocale.obj
 0001:00021b7e       ?do_get@?$time_get@DV?$istreambuf_iterator@DU?$char_traits@D@std@@@std@@@std@@MBE?AV?$istreambuf_iterator@DU?$char_traits@D@std@@@2@V32@0AAVios_base@2@AAHPAUtm@@DD@Z 00422b7e f i libcpmt:xlocale.obj
 0001:00021f3f       ?do_get_date@?$time_get@DV?$istreambuf_iterator@DU?$char_traits@D@std@@@std@@@std@@MBE?AV?$istreambuf_iterator@DU?$char_traits@D@std@@@2@V32@0AAVios_base@2@AAHPAUtm@@@Z 00422f3f f i libcpmt:xlocale.obj
 0001:000223c6       ?do_get_monthname@?$time_get@DV?$istreambuf_iterator@DU?$char_traits@D@std@@@std@@@std@@MBE?AV?$istreambuf_iterator@DU?$char_traits@D@std@@@2@V32@0AAVios_base@2@AAHPAUtm@@@Z 004233c6 f i libcpmt:xlocale.obj
 0001:00022408       ?do_get_time@?$time_get@DV?$istreambuf_iterator@DU?$char_traits@D@std@@@std@@@std@@MBE?AV?$istreambuf_iterator@DU?$char_traits@D@std@@@2@V32@0AAVios_base@2@AAHPAUtm@@@Z 00423408 f i libcpmt:xlocale.obj
 0001:0002252a       ?do_get_weekday@?$time_get@DV?$istreambuf_iterator@DU?$char_traits@D@std@@@std@@@std@@MBE?AV?$istreambuf_iterator@DU?$char_traits@D@std@@@2@V32@0AAVios_base@2@AAHPAUtm@@@Z 0042352a f i libcpmt:xlocale.obj
 0001:0002256c       ?do_get_year@?$time_get@DV?$istreambuf_iterator@DU?$char_traits@D@std@@@std@@@std@@MBE?AV?$istreambuf_iterator@DU?$char_traits@D@std@@@2@V32@0AAVios_base@2@AAHPAUtm@@@Z 0042356c f i libcpmt:xlocale.obj
 0001:00022601       ?do_grouping@?$_Mpunct@D@std@@MBE?AV?$basic_string@DU?$char_traits@D@std@@V?$allocator@D@2@@2@XZ 00423601 f i libcpmt:xlocale.obj
 0001:00022617       ?do_hash@?$collate@D@std@@MBEJPBD0@Z 00423617 f i libcpmt:xlocale.obj
 0001:00022635       ?do_neg_format@?$_Mpunct@D@std@@MBE?AUpattern@money_base@2@XZ 00423635 f i libcpmt:xlocale.obj
 0001:00022644       ?do_negative_sign@?$_Mpunct@D@std@@MBE?AV?$basic_string@DU?$char_traits@D@std@@V?$allocator@D@2@@2@XZ 00423644 f i libcpmt:xlocale.obj
 0001:0002265a       ?do_open@?$messages@D@std@@MBEHABV?$basic_string@DU?$char_traits@D@std@@V?$allocator@D@2@@2@ABVlocale@2@@Z 0042365a f i libcpmt:xlocale.obj
 0001:00022660       ?do_pos_format@?$_Mpunct@D@std@@MBE?AUpattern@money_base@2@XZ 00423660 f i libcpmt:xlocale.obj
 0001:0002266f       ?do_positive_sign@?$_Mpunct@D@std@@MBE?AV?$basic_string@DU?$char_traits@D@std@@V?$allocator@D@2@@2@XZ 0042366f f i libcpmt:xlocale.obj
 0001:00022685       ?do_put@?$money_put@DV?$ostreambuf_iterator@DU?$char_traits@D@std@@@std@@@std@@MBE?AV?$ostreambuf_iterator@DU?$char_traits@D@std@@@2@V32@_NAAVios_base@2@DABV?$basic_string@DU?$char_traits@D@std@@V?$allocator@D@2@@2@@Z 00423685 f i libcpmt:xlocale.obj
 0001:000227b2       ?do_put@?$money_put@DV?$ostreambuf_iterator@DU?$char_traits@D@std@@@std@@@std@@MBE?AV?$ostreambuf_iterator@DU?$char_traits@D@std@@@2@V32@_NAAVios_base@2@DO@Z 004237b2 f i libcpmt:xlocale.obj
 0001:00022925       ?do_put@?$time_put@DV?$ostreambuf_iterator@DU?$char_traits@D@std@@@std@@@std@@MBE?AV?$ostreambuf_iterator@DU?$char_traits@D@std@@@2@V32@AAVios_base@2@DPBUtm@@DD@Z 00423925 f i libcpmt:xlocale.obj
 0001:00022a85       ?do_thousands_sep@?$_Mpunct@D@std@@MBEDXZ 00423a85 f i libcpmt:xlocale.obj
 0001:00022a89       ?do_transform@?$collate@D@std@@MBE?AV?$basic_string@DU?$char_traits@D@std@@V?$allocator@D@2@@2@PBD0@Z 00423a89 f i libcpmt:xlocale.obj
 0001:00022b0f       ?end@?$basic_string@DU?$char_traits@D@std@@V?$allocator@D@2@@std@@QAE?AV?$_String_iterator@V?$_String_val@U?$_Simple_types@D@std@@@std@@@2@XZ 00423b0f f i libcpmt:xlocale.obj
 0001:00022b2a       ?frac_digits@?$_Mpunct@D@std@@QBEHXZ 00423b2a f i libcpmt:xlocale.obj
 0001:00022b42       ?get_monthname@?$time_get@DV?$istreambuf_iterator@DU?$char_traits@D@std@@@std@@@std@@QBE?AV?$istreambuf_iterator@DU?$char_traits@D@std@@@2@V32@0AAVios_base@2@AAHPAUtm@@@Z 00423b42 f i libcpmt:xlocale.obj
 0001:00022b7a       ?get_weekday@?$time_get@DV?$istreambuf_iterator@DU?$char_traits@D@std@@@std@@@std@@QBE?AV?$istreambuf_iterator@DU?$char_traits@D@std@@@2@V32@0AAVios_base@2@AAHPAUtm@@@Z 00423b7a f i libcpmt:xlocale.obj
 0001:00022bb2       ?get_year@?$time_get@DV?$istreambuf_iterator@DU?$char_traits@D@std@@@std@@@std@@QBE?AV?$istreambuf_iterator@DU?$char_traits@D@std@@@2@V32@0AAVios_base@2@AAHPAUtm@@@Z 00423bb2 f i libcpmt:xlocale.obj
 0001:00022bea       ?grouping@?$_Mpunct@D@std@@QBE?AV?$basic_string@DU?$char_traits@D@std@@V?$allocator@D@2@@2@XZ 00423bea f i libcpmt:xlocale.obj
 0001:00022c0f       ?is@?$ctype@D@std@@QBE_NFD@Z 00423c0f f i libcpmt:xlocale.obj
 0001:00022c28       ?narrow@?$ctype@D@std@@QBEDDD@Z 00423c28 f i libcpmt:xlocale.obj
 0001:00022c4c       ?neg_format@?$_Mpunct@D@std@@QBE?AUpattern@money_base@2@XZ 00423c4c f i libcpmt:xlocale.obj
 0001:00022c70       ?negative_sign@?$_Mpunct@D@std@@QBE?AV?$basic_string@DU?$char_traits@D@std@@V?$allocator@D@2@@2@XZ 00423c70 f i libcpmt:xlocale.obj
 0001:00022c95       ?pos_format@?$_Mpunct@D@std@@QBE?AUpattern@money_base@2@XZ 00423c95 f i libcpmt:xlocale.obj
 0001:00022cb9       ?positive_sign@?$_Mpunct@D@std@@QBE?AV?$basic_string@DU?$char_traits@D@std@@V?$allocator@D@2@@2@XZ 00423cb9 f i libcpmt:xlocale.obj
 0001:00022cde       ?thousands_sep@?$_Mpunct@D@std@@QBEDXZ 00423cde f i libcpmt:xlocale.obj
 0001:00022cf6       __Getcoll                  00423cf6 f   libcpmt:xstrcoll.obj
 0001:00022d17       __Strcoll                  00423d17 f   libcpmt:xstrcoll.obj
 0001:00022daa       __Getdateorder             00423daa f   libcpmt:xdateord.obj
 0001:00022e16       __Mbrtowc                  00423e16 f   libcpmt:xmbtowc.obj
 0001:00022f9f       __Wcscoll                  00423f9f f   libcpmt:xwcscoll.obj
 0001:00023027       _wmemcmp                   00424027 f i libcpmt:xwcscoll.obj
 0001:00023064       ??$?RE@__crt_internal_free_policy@@QBEXQBE@Z 00424064 f i libcpmt:xwcsxfrm.obj
 0001:00023074       ??0?$__crt_unique_heap_ptr@EU__crt_internal_free_policy@@@@QAE@QAE@Z 00424074 f i libcpmt:xwcsxfrm.obj
 0001:00023082       ??1?$__crt_unique_heap_ptr@EU__crt_internal_free_policy@@@@QAE@XZ 00424082 f i libcpmt:xwcsxfrm.obj
 0001:00023092       ??B?$__crt_unique_heap_ptr@EU__crt_internal_free_policy@@@@QBE_NXZ 00424092 f i libcpmt:xwcsxfrm.obj
 0001:00023099       ?get@?$__crt_unique_heap_ptr@EU__crt_internal_free_policy@@@@QBEPAEXZ 00424099 f i libcpmt:xwcsxfrm.obj
 0001:0002309c       ?is_valid@?$__crt_unique_heap_ptr@EU__crt_internal_free_policy@@@@QBE_NXZ 0042409c f i libcpmt:xwcsxfrm.obj
 0001:000230a3       ?release@?$__crt_unique_heap_ptr@EU__crt_internal_free_policy@@@@QAEXXZ 004240a3 f i libcpmt:xwcsxfrm.obj
 0001:000230b3       __Wcsxfrm                  004240b3 f   libcpmt:xwcsxfrm.obj
 0001:0002317d       __Getwctype                0042417d f   libcpmt:xgetwctype.obj
 0001:0002319d       __Getwctypes               0042419d f   libcpmt:xgetwctype.obj
 0001:000231bc       __Towlower                 004241bc f   libcpmt:xtowlower.obj
 0001:0002321c       __Towupper                 0042421c f   libcpmt:xtowupper.obj
 0001:00023280       __Strxfrm                  00424280 f   libcpmt:xstrxfrm.obj
 0001:0002332a       ___crtCompareStringA       0042432a f   libcpmt:StlCompareStringA.obj
 0001:00023590       ___crtCompareStringW       00424590 f   libcpmt:StlCompareStringW.obj
 0001:000235f4       ___crtLCMapStringW         004245f4 f   libcpmt:StlLCMapStringW.obj
 0001:00023631       ??2@YAPAXI@Z               00424631 f   LIBCMT:new_scalar.obj
 0001:00023661       ??3@YAXPAXI@Z              00424661 f   LIBCMT:delete_scalar_size.obj
 0001:0002366f       ??_V@YAXPAX@Z              0042466f f   LIBCMT:delete_array.obj
 0001:00023674       @__security_check_cookie@4 00424674 f   LIBCMT:secchk.obj
 0001:00023690       __alldiv                   00424690 f   LIBCMT:lldiv.obj
 0001:00023740       __allmul                   00424740 f   LIBCMT:llmul.obj
 0001:00023780       __allrem                   00424780 f   LIBCMT:llrem.obj
 0001:00023832       ??1type_info@@UAE@XZ       00424832 f   LIBCMT:std_type_info_static.obj
 0001:00023839       ??_Etype_info@@UAEPAXI@Z   00424839 f i LIBCMT:std_type_info_static.obj
 0001:00023839       ??_Gtype_info@@UAEPAXI@Z   00424839 f i LIBCMT:std_type_info_static.obj
 0001:00023aad       ?configure_argv@__scrt_narrow_argv_policy@@SAHXZ 00424aad f i LIBCMT:exe_main.obj
 0001:00023aba       ?initialize_environment@__scrt_narrow_environment_policy@@SAHXZ 00424aba f i LIBCMT:exe_main.obj
 0001:00023ae3       ?set_app_type@__scrt_main_policy@@SAXXZ 00424ae3 f i LIBCMT:exe_main.obj
 0001:00023aec       ?set_commode@__scrt_file_policy@@SAXXZ 00424aec f i LIBCMT:exe_main.obj
 0001:00023afd       ?set_fmode@__scrt_file_policy@@SAXXZ 00424afd f i LIBCMT:exe_main.obj
 0001:00023b0a       _mainCRTStartup            00424b0a f   LIBCMT:exe_main.obj
 0001:00023b8b       _NtCurrentTeb              00424b8b f i LIBCMT:utility.obj
 0001:00023b92       ___scrt_acquire_startup_lock 00424b92 f   LIBCMT:utility.obj
 0001:00023bc4       ___scrt_dllmain_after_initialize_c 00424bc4 f   LIBCMT:utility.obj
 0001:00023bef       ___scrt_dllmain_before_initialize_c 00424bef f   LIBCMT:utility.obj
 0001:00023bfd       ___scrt_dllmain_crt_thread_attach 00424bfd f   LIBCMT:utility.obj
 0001:00023c1c       ___scrt_dllmain_crt_thread_detach 00424c1c f   LIBCMT:utility.obj
 0001:00023c29       ___scrt_dllmain_exception_filter 00424c29 f   LIBCMT:utility.obj
 0001:00023c5d       ___scrt_dllmain_uninitialize_c 00424c5d f   LIBCMT:utility.obj
 0001:00023c80       ___scrt_dllmain_uninitialize_critical 00424c80 f   LIBCMT:utility.obj
 0001:00023c8d       ___scrt_initialize_crt     00424c8d f   LIBCMT:utility.obj
 0001:00023cc6       ___scrt_initialize_onexit_tables 00424cc6 f   LIBCMT:utility.obj
 0001:00023d4d       ___scrt_is_nonwritable_in_current_image 00424d4d f   LIBCMT:utility.obj
 0001:00023de1       ___scrt_release_startup_lock 00424de1 f   LIBCMT:utility.obj
 0001:00023dfe       ___scrt_uninitialize_crt   00424dfe f   LIBCMT:utility.obj
 0001:00023e26       __onexit                   00424e26 f   LIBCMT:utility.obj
 0001:00023e53       _at_quick_exit             00424e53 f   LIBCMT:utility.obj
 0001:00023e76       _atexit                    00424e76 f   LIBCMT:utility.obj
 0001:00023e90       __aulldiv                  00424e90 f   LIBCMT:ulldiv.obj
 0001:00023f00       __aullrem                  00424f00 f   LIBCMT:ullrem.obj
 0001:00023f75       __EH_epilog3               00424f75 f   LIBCMT:ehprolg3.obj
 0001:00023f89       __EH_epilog3_GS            00424f89 f   LIBCMT:ehprolg3.obj
 0001:00023f98       __EH_epilog3_catch_GS      00424f98 f   LIBCMT:ehprolg3.obj
 0001:00023fa7       __EH_prolog3               00424fa7 f   LIBCMT:ehprolg3.obj
 0001:00023fda       __EH_prolog3_GS            00424fda f   LIBCMT:ehprolg3.obj
 0001:00024010       __EH_prolog3_catch         00425010 f   LIBCMT:ehprolg3.obj
 0001:00024046       __EH_prolog3_catch_GS      00425046 f   LIBCMT:ehprolg3.obj
 0001:0002407f       @_guard_check_icall_nop@4  0042507f f i LIBCMT:guard_support.obj
 0001:00024082       _ReadNoFence               00425082 f i LIBCMT:guard_support.obj
 0001:0002408c       _ReadPointerNoFence        0042508c f i LIBCMT:guard_support.obj
 0001:00024096       ___castguard_check_failure_debugbreak 00425096 f i LIBCMT:guard_support.obj
 0001:000240b1       ___castguard_check_failure_fastfail 004250b1 f i LIBCMT:guard_support.obj
 0001:000240d0       ___castguard_check_failure_nop 004250d0 f i LIBCMT:guard_support.obj
 0001:000240d3       ___castguard_check_failure_os_handled 004250d3 f i LIBCMT:guard_support.obj
 0001:0002412f       ___castguard_slow_path_check_debugbreak 0042512f f i LIBCMT:guard_support.obj
 0001:0002415c       ___castguard_slow_path_check_fastfail 0042515c f i LIBCMT:guard_support.obj
 0001:0002418d       ___castguard_slow_path_check_nop 0042518d f i LIBCMT:guard_support.obj
 0001:00024190       ___castguard_slow_path_check_os_handled 00425190 f i LIBCMT:guard_support.obj
 0001:000241eb       __guard_icall_checks_enforced 004251eb f i LIBCMT:guard_support.obj
 0001:00024200       __alloca_probe_16          00425200 f   LIBCMT:alloca16.obj
 0001:00024216       __alloca_probe_8           00425216     LIBCMT:alloca16.obj
 0001:0002422c       ?__scrt_throw_std_bad_alloc@@YAXXZ 0042522c f   LIBCMT:throw_bad_alloc.obj
 0001:00024249       ?__scrt_throw_std_bad_array_new_length@@YAXXZ 00425249 f   LIBCMT:throw_bad_alloc.obj
 0001:00024266       ??3@YAXPAX@Z               00425266 f   LIBCMT:delete_scalar.obj
 0001:0002426b       ___raise_securityfailure   0042526b f   LIBCMT:gs_report.obj
 0001:00024293       ___report_gsfailure        00425293 f   LIBCMT:gs_report.obj
 0001:0002438d       ___report_rangecheckfailure 0042538d f   LIBCMT:gs_report.obj
 0001:00024399       ___report_securityfailure  00425399 f   LIBCMT:gs_report.obj
 0001:00024468       ___report_securityfailureEx 00425468 f   LIBCMT:gs_report.obj
 0001:000245ca       ___security_init_cookie    004255ca f   LIBCMT:gs_support.obj
 0001:00024615       __matherr                  00425615 f   LIBCMT:matherr.obj
 0001:00024618       __get_startup_argv_mode    00425618 f   LIBCMT:argv_mode.obj
 0001:0002461c       __get_startup_commit_mode  0042561c f   LIBCMT:commit_mode.obj
 0001:0002461f       __get_startup_file_mode    0042561f f   LIBCMT:file_mode.obj
 0001:00024625       __get_startup_new_mode     00425625 f   LIBCMT:new_mode.obj
 0001:00024628       __get_startup_thread_locale_mode 00425628 f   LIBCMT:thread_locale.obj
 0001:0002462b       ?__scrt_initialize_type_info@@YAXXZ 0042562b f   LIBCMT:tncleanup.obj
 0001:00024637       ?__scrt_uninitialize_type_info@@YAXXZ 00425637 f   LIBCMT:tncleanup.obj
 0001:00024643       __should_initialize_environment 00425643 f   LIBCMT:env_mode.obj
 0001:00024646       __initialize_default_precision 00425646 f   LIBCMT:default_precision.obj
 0001:00024667       __initialize_invalid_parameter_handler 00425667 f   LIBCMT:invalid_parameter_handler.obj
 0001:0002466a       __initialize_denormal_control 0042566a f   LIBCMT:denormal_control.obj
 0001:0002466d       ___local_stdio_scanf_options 0042566d f i LIBCMT:default_local_stdio_options.obj
 0001:00024673       ___scrt_initialize_default_local_stdio_options 00425673 f   LIBCMT:default_local_stdio_options.obj
 0001:00024690       ___scrt_is_user_matherr_present 00425690 f   LIBCMT:matherr_detection.obj
 0001:0002469c       ___scrt_get_dyn_tls_init_callback 0042569c f   LIBCMT:dyn_tls_init.obj
 0001:000246a2       ___scrt_get_dyn_tls_dtor_callback 004256a2 f   LIBCMT:dyn_tls_dtor.obj
 0001:000246a8       ___scrt_fastfail           004256a8 f   LIBCMT:utility_desktop.obj
 0001:000247c3       ___scrt_get_show_window_mode 004257c3 f   LIBCMT:utility_desktop.obj
 0001:000247f4       ___scrt_initialize_mta     004257f4 f   LIBCMT:utility_desktop.obj
 0001:000247f9       ___scrt_initialize_winrt   004257f9 f   LIBCMT:utility_desktop.obj
 0001:000247fc       ___scrt_is_managed_app     004257fc f   LIBCMT:utility_desktop.obj
 0001:0002483e       ___scrt_set_unhandled_exception_filter 0042583e f   LIBCMT:utility_desktop.obj
 0001:0002484a       ___scrt_stub_for_initialize_mta 0042584a f   LIBCMT:utility_desktop.obj
 0001:0002484a       ___scrt_exe_initialize_mta 0042584a f   LIBCMT:utility_desktop.obj
 0001:0002484d       ___scrt_unhandled_exception_filter@4 0042584d f   LIBCMT:utility_desktop.obj
 0001:000248a3       __crt_debugger_hook        004258a3 f   LIBCMT:utility_desktop.obj
 0001:000248ab       __RTC_Initialize           004258ab f   LIBCMT:initsect.obj
 0001:000248d7       __RTC_Terminate            004258d7 f   LIBCMT:initsect.obj
 0001:00024910       __SEH_prolog4              00425910 f   LIBCMT:sehprolg4.obj
 0001:00024960       __SEH_epilog4              00425960 f   LIBCMT:sehprolg4.obj
 0001:00024974       ___isa_available_init      00425974 f   LIBCMT:cpu_disp.obj
 0001:00024b48       ___scrt_is_ucrt_dll_in_use 00425b48 f   LIBCMT:ucrt_detection.obj
 0001:00024b60       __chkstk                   00425b60 f   LIBCMT:chkstk.obj
 0001:00024b60       __alloca_probe             00425b60 f   LIBCMT:chkstk.obj
 0001:00024b8b       ??$__crt_interlocked_exchange_pointer@$$A6AXXZP6AXXZ@@YAP6AXXZPDS6AXXZQ6AXXZ@Z 00425b8b f i libvcruntime:purevirt.obj
 0001:00024b98       ??$__crt_interlocked_read_pointer@$$A6AXXZ@@YAP6AXXZPDS6AXXZ@Z 00425b98 f i libvcruntime:purevirt.obj
 0001:00024ba3       ?__crt_interlocked_read_32@@YAHPDH@Z 00425ba3 f i libvcruntime:purevirt.obj
 0001:00024bae       __get_purecall_handler     00425bae f   libvcruntime:purevirt.obj
 0001:00024bb5       __purecall                 00425bb5 f   libvcruntime:purevirt.obj
 0001:00024bd1       __set_purecall_handler     00425bd1 f   libvcruntime:purevirt.obj
 0001:00024be0       ___DestructExceptionObject 00425be0 f   libvcruntime:ehhelpers.obj
 0001:00024c81       ?_CallMemberFunction0@@YGXQAX0@Z 00425c81 f i libvcruntime:ehhelpers.obj
 0001:00024ce6       ?raw_name@type_info@@QBEPBDXZ 00425ce6 f i libvcruntime:ehhelpers.obj
 0001:00024cea       __IsExceptionObjectToBeDestroyed 00425cea f   libvcruntime:ehhelpers.obj
 0001:00024d10       __SetWinRTOutOfMemoryExceptionCallback 00425d10 f   libvcruntime:ehhelpers.obj
 0001:00024d1d       ___AdjustPointer           00425d1d f   libvcruntime:ehhelpers.obj
 0001:00024d42       ___FrameUnwindFilter       00425d42 f   libvcruntime:ehhelpers.obj
 0001:00024d98       ___GetPlatformExceptionInfo 00425d98 f   libvcruntime:ehhelpers.obj
 0001:00024de4       ___current_exception       00425de4 f   libvcruntime:ehhelpers.obj
 0001:00024ded       ___current_exception_context 00425ded f   libvcruntime:ehhelpers.obj
 0001:00024df6       ___processing_throw        00425df6 f   libvcruntime:ehhelpers.obj
 0001:00024dff       ___std_terminate           00425dff f   libvcruntime:ehhelpers.obj
 0001:00024e04       __is_exception_typeof      00425e04 f   libvcruntime:ehhelpers.obj
 0001:00024ea8       ??$?RD@__crt_public_free_policy@@QBEXQBD@Z 00425ea8 f i libvcruntime:std_exception.obj
 0001:00024eb8       ??0?$__crt_unique_heap_ptr@DU__crt_public_free_policy@@@@QAE@QAD@Z 00425eb8 f i libvcruntime:std_exception.obj
 0001:00024ec6       ??1?$__crt_unique_heap_ptr@DU__crt_public_free_policy@@@@QAE@XZ 00425ec6 f i libvcruntime:std_exception.obj
 0001:00024ed6       ??B?$__crt_unique_heap_ptr@DU__crt_public_free_policy@@@@QBE_NXZ 00425ed6 f i libvcruntime:std_exception.obj
 0001:00024edd       ?detach@?$__crt_unique_heap_ptr@DU__crt_public_free_policy@@@@QAEPADXZ 00425edd f i libvcruntime:std_exception.obj
 0001:00024ee3       ?get@?$__crt_unique_heap_ptr@DU__crt_public_free_policy@@@@QBEPADXZ 00425ee3 f i libvcruntime:std_exception.obj
 0001:00024ee6       ?is_valid@?$__crt_unique_heap_ptr@DU__crt_public_free_policy@@@@QBE_NXZ 00425ee6 f i libvcruntime:std_exception.obj
 0001:00024eed       ?release@?$__crt_unique_heap_ptr@DU__crt_public_free_policy@@@@QAEXXZ 00425eed f i libvcruntime:std_exception.obj
 0001:00024efd       ___std_exception_copy      00425efd f   libvcruntime:std_exception.obj
 0001:00024f60       ___std_exception_destroy   00425f60 f   libvcruntime:std_exception.obj
 0001:00024f7f       __CxxThrowException@8      00425f7f f   libvcruntime:throw.obj
 0001:00024feb       ??$?0AAViterator@TryBlockMap@__FrameHandler3@@AAV012@$0A@@?$pair@Viterator@TryBlockMap@__FrameHandler3@@V123@@std@@QAE@AAViterator@TryBlockMap@__FrameHandler3@@0@Z 00425feb f i libvcruntime:trnsctrl.obj
 0001:0002500f       ??$forward@AAViterator@TryBlockMap@__FrameHandler3@@@std@@YAAAViterator@TryBlockMap@__FrameHandler3@@AAV123@@Z 0042600f f i libvcruntime:trnsctrl.obj
 0001:00025017       ??0iterator@TryBlockMap@__FrameHandler3@@QAE@AAV12@I@Z 00426017 f i libvcruntime:trnsctrl.obj
 0001:0002502b       ?GetRangeOfTrysToCheck@__FrameHandler3@@SA?AU?$pair@Viterator@TryBlockMap@__FrameHandler3@@V123@@std@@AAVTryBlockMap@1@HPAXPBU_s_FuncInfo@@H@Z 0042602b f   libvcruntime:trnsctrl.obj
 0001:0002509b       ?_CallCatchBlock2@@YAPAXPAUEHRegistrationNode@@PBU_s_FuncInfo@@PAXHK@Z 0042609b f   libvcruntime:trnsctrl.obj
 0001:000250f8       ?_CallSETranslator@@YAHPAUEHExceptionRecord@@PAUEHRegistrationNode@@PAX2PBU_s_FuncInfo@@H1@Z 004260f8 f   libvcruntime:trnsctrl.obj
 0001:000251ee       ?_JumpToContinuation@@YGXPAXPAUEHRegistrationNode@@@Z 004261ee f   libvcruntime:trnsctrl.obj
 0001:0002521e       ?_UnwindNestedFrames@@YGXPAUEHRegistrationNode@@PAUEHExceptionRecord@@@Z 0042621e f   libvcruntime:trnsctrl.obj
 0001:00025271       __CatchGuardHandler        00426271 f   libvcruntime:trnsctrl.obj
 0001:000252a2       __CreateFrameInfo          004262a2 f   libvcruntime:trnsctrl.obj
 0001:000252c6       __FindAndUnlinkFrame       004262c6 f   libvcruntime:trnsctrl.obj
 0001:0002530e       __TranslatorGuardHandler   0042630e f   libvcruntime:trnsctrl.obj
 0001:000253ab       ___CxxFrameHandler         004263ab f   libvcruntime:trnsctrl.obj
 0001:000253e1       ___CxxFrameHandler2        004263e1 f   libvcruntime:trnsctrl.obj
 0001:00025417       ___CxxFrameHandler3        00426417 f   libvcruntime:trnsctrl.obj
 0001:0002544d       ___CxxLongjmpUnwind@4      0042644d f   libvcruntime:trnsctrl.obj
 0001:00025480       _memchr                    00426480 f   libvcruntime:memchr.obj
 0001:00025530       _memcpy                    00426530 f   libvcruntime:memcpy.obj
 0001:00025ab0       _memmove                   00426ab0 f   libvcruntime:memmove.obj
 0001:00026030       _memset                    00427030 f   libvcruntime:memset.obj
 0001:0002618a       ___uncaught_exception      0042718a f   libvcruntime:uncaught_exception.obj
 0001:000262bb       _memcmp                    004272bb f   libvcruntime:memcmp.obj
 0001:00028f60       __except_handler4          00429f60 f   libvcruntime:chandler4.obj
 0001:000290be       ___vcrt_initialize         0042a0be f   libvcruntime:initialization.obj
 0001:000290dd       ___vcrt_thread_attach      0042a0dd f   libvcruntime:initialization.obj
 0001:000290e8       ___vcrt_thread_detach      0042a0e8 f   libvcruntime:initialization.obj
 0001:000290f3       ___vcrt_uninitialize       0042a0f3 f   libvcruntime:initialization.obj
 0001:0002910a       ___vcrt_uninitialize_critical 0042a10a f   libvcruntime:initialization.obj
 0001:00029123       ??$?RD@__crt_internal_free_policy@@QBEXQBD@Z 0042a123 f i libvcruntime:std_type_info.obj
 0001:00029133       ??$?RX@__crt_internal_free_policy@@QBEXQBX@Z 0042a133 f i libvcruntime:std_type_info.obj
 0001:00029143       ??$__crt_interlocked_compare_exchange_pointer@$$CBDPAD$$T@@YAPBDPDSBDQAD$$T@Z 0042a143 f i libvcruntime:std_type_info.obj
 0001:00029155       ??$__crt_interlocked_read_pointer@$$CBD@@YAPBDPDSBD@Z 0042a155 f i libvcruntime:std_type_info.obj
 0001:00029160       ??0?$__crt_unique_heap_ptr@DU__crt_internal_free_policy@@@@QAE@QAD@Z 0042a160 f i libvcruntime:std_type_info.obj
 0001:0002916e       ??0?$__crt_unique_heap_ptr@XU__crt_internal_free_policy@@@@QAE@QAX@Z 0042a16e f i libvcruntime:std_type_info.obj
 0001:0002917c       ??1?$__crt_unique_heap_ptr@DU__crt_internal_free_policy@@@@QAE@XZ 0042a17c f i libvcruntime:std_type_info.obj
 0001:0002918c       ??1?$__crt_unique_heap_ptr@XU__crt_internal_free_policy@@@@QAE@XZ 0042a18c f i libvcruntime:std_type_info.obj
 0001:0002919c       ??B?$__crt_unique_heap_ptr@DU__crt_internal_free_policy@@@@QBE_NXZ 0042a19c f i libvcruntime:std_type_info.obj
 0001:000291a3       ??B?$__crt_unique_heap_ptr@XU__crt_internal_free_policy@@@@QBE_NXZ 0042a1a3 f i libvcruntime:std_type_info.obj
 0001:000291d6       ?detach@?$__crt_unique_heap_ptr@XU__crt_internal_free_policy@@@@QAEPAXXZ 0042a1d6 f i libvcruntime:std_type_info.obj
 0001:000291dc       ?get@?$__crt_unique_heap_ptr@DU__crt_internal_free_policy@@@@QBEPADXZ 0042a1dc f i libvcruntime:std_type_info.obj
 0001:000291df       ?get@?$__crt_unique_heap_ptr@XU__crt_internal_free_policy@@@@QBEPAXXZ 0042a1df f i libvcruntime:std_type_info.obj
 0001:000291e2       ?is_valid@?$__crt_unique_heap_ptr@DU__crt_internal_free_policy@@@@QBE_NXZ 0042a1e2 f i libvcruntime:std_type_info.obj
 0001:000291e9       ?is_valid@?$__crt_unique_heap_ptr@XU__crt_internal_free_policy@@@@QBE_NXZ 0042a1e9 f i libvcruntime:std_type_info.obj
 0001:000291f0       ?release@?$__crt_unique_heap_ptr@DU__crt_internal_free_policy@@@@QAEXXZ 0042a1f0 f i libvcruntime:std_type_info.obj
 0001:00029200       ?release@?$__crt_unique_heap_ptr@XU__crt_internal_free_policy@@@@QAEXXZ 0042a200 f i libvcruntime:std_type_info.obj
 0001:00029210       ___std_type_info_compare   0042a210 f   libvcruntime:std_type_info.obj
 0001:0002924c       ___std_type_info_destroy_list 0042a24c f   libvcruntime:std_type_info.obj
 0001:0002926f       ___std_type_info_hash      0042a26f f   libvcruntime:std_type_info.obj
 0001:00029295       ___std_type_info_name      0042a295 f   libvcruntime:std_type_info.obj
 0001:0002935b       ??$?RU__vcrt_ptd@@@__crt_internal_free_policy@@QBEXQBU__vcrt_ptd@@@Z 0042a35b f i libvcruntime:per_thread_data.obj
 0001:0002936b       ??0?$__crt_unique_heap_ptr@U__vcrt_ptd@@U__crt_internal_free_policy@@@@QAE@QAU__vcrt_ptd@@@Z 0042a36b f i libvcruntime:per_thread_data.obj
 0001:00029388       ??1?$__crt_unique_heap_ptr@U__vcrt_ptd@@U__crt_internal_free_policy@@@@QAE@XZ 0042a388 f i libvcruntime:per_thread_data.obj
 0001:000293a1       ??B?$__crt_unique_heap_ptr@U__vcrt_ptd@@U__crt_internal_free_policy@@@@QBE_NXZ 0042a3a1 f i libvcruntime:per_thread_data.obj
 0001:000293a8       ?detach@?$__crt_unique_heap_ptr@U__vcrt_ptd@@U__crt_internal_free_policy@@@@QAEPAU__vcrt_ptd@@XZ 0042a3a8 f i libvcruntime:per_thread_data.obj
 0001:000293ae       ?get@?$__crt_unique_heap_ptr@U__vcrt_ptd@@U__crt_internal_free_policy@@@@QBEPAU__vcrt_ptd@@XZ 0042a3ae f i libvcruntime:per_thread_data.obj
 0001:000293b1       ?is_valid@?$__crt_unique_heap_ptr@U__vcrt_ptd@@U__crt_internal_free_policy@@@@QBE_NXZ 0042a3b1 f i libvcruntime:per_thread_data.obj
 0001:000293b8       ?release@?$__crt_unique_heap_ptr@U__vcrt_ptd@@U__crt_internal_free_policy@@@@QAEXXZ 0042a3b8 f i libvcruntime:per_thread_data.obj
 0001:000293e2       ___vcrt_freefls@4          0042a3e2 f   libvcruntime:per_thread_data.obj
 0001:000293fe       ___vcrt_freeptd            0042a3fe f   libvcruntime:per_thread_data.obj
 0001:00029434       ___vcrt_getptd             0042a434 f   libvcruntime:per_thread_data.obj
 0001:00029442       ___vcrt_getptd_noexit      0042a442 f   libvcruntime:per_thread_data.obj
 0001:000294d4       ___vcrt_getptd_noinit      0042a4d4 f   libvcruntime:per_thread_data.obj
 0001:0002950b       ___vcrt_initialize_ptd     0042a50b f   libvcruntime:per_thread_data.obj
 0001:0002953e       ___vcrt_uninitialize_ptd   0042a53e f   libvcruntime:per_thread_data.obj
 0001:00029c8b       ??$TypeMatchHelper@V__FrameHandler3@@@@YAHPBU_s_HandlerType@@PBU_s_CatchableType@@PBU_s_ThrowInfo@@@Z 0042ac8b f i libvcruntime:frame.obj
 0001:00029d19       ??$__InternalCxxFrameHandler@V__FrameHandler3@@@@YA?AW4_EXCEPTION_DISPOSITION@@PAUEHExceptionRecord@@PAUEHRegistrationNode@@PAU_CONTEXT@@PAXPBU_s_FuncInfo@@H1E@Z 0042ad19 f i libvcruntime:frame.obj
 0001:00029e1b       ??0HandlerMap@__FrameHandler3@@QAE@PBU_s_TryBlockMapEntry@@II@Z 0042ae1b f i libvcruntime:frame.obj
 0001:00029e32       ??0TryBlockMap@__FrameHandler3@@QAE@PBU_s_FuncInfo@@I@Z 0042ae32 f i libvcruntime:frame.obj
 0001:00029e46       ??0bad_exception@std@@QAE@ABV01@@Z 0042ae46 f i libvcruntime:frame.obj
 0001:00029e61       ??0bad_exception@std@@QAE@XZ 0042ae61 f i libvcruntime:frame.obj
 0001:00029e79       ??0iterator@HandlerMap@__FrameHandler3@@QAE@AAV12@I@Z 0042ae79 f i libvcruntime:frame.obj
 0001:00029e8d       ??1bad_exception@std@@UAE@XZ 0042ae8d f i libvcruntime:frame.obj
 0001:00029e9e       ??8iterator@HandlerMap@__FrameHandler3@@QBE_NABV012@@Z 0042ae9e f i libvcruntime:frame.obj
 0001:00029eb1       ??8type_info@@QBE_NABV0@@Z 0042aeb1 f i libvcruntime:frame.obj
 0001:00029ed0       ??9iterator@HandlerMap@__FrameHandler3@@QBE_NABV012@@Z 0042aed0 f i libvcruntime:frame.obj
 0001:00029ee3       ??Diterator@HandlerMap@__FrameHandler3@@QAE?BU_s_HandlerType@@XZ 0042aee3 f i libvcruntime:frame.obj
 0001:00029f02       ??Diterator@TryBlockMap@__FrameHandler3@@QAE?BU_s_TryBlockMapEntry@@XZ 0042af02 f i libvcruntime:frame.obj
 0001:00029f24       ??Eiterator@HandlerMap@__FrameHandler3@@QAEAAV012@XZ 0042af24 f i libvcruntime:frame.obj
 0001:00029f2a       ??Eiterator@TryBlockMap@__FrameHandler3@@QAEAAV012@XZ 0042af2a f i libvcruntime:frame.obj
 0001:00029f30       ??Miterator@TryBlockMap@__FrameHandler3@@QBE_NABV012@@Z 0042af30 f i libvcruntime:frame.obj
 0001:00029f43       ??_Gbad_exception@std@@UAEPAXI@Z 0042af43 f i libvcruntime:frame.obj
 0001:00029f43       ??_Ebad_exception@std@@UAEPAXI@Z 0042af43 f i libvcruntime:frame.obj
 0001:00029f70       ?BuildCatchObject@__FrameHandler3@@SAXPAUEHExceptionRecord@@PAXPBU_s_HandlerType@@PBU_s_CatchableType@@@Z 0042af70 f   libvcruntime:frame.obj
 0001:00029f75       ?BuildCatchObjectHelper@__FrameHandler3@@SAHPAUEHExceptionRecord@@PAXPBU_s_HandlerType@@PBU_s_CatchableType@@@Z 0042af75 f   libvcruntime:frame.obj
 0001:0002a1d6       ?FrameUnwindToEmptyState@__FrameHandler3@@SAXPAUEHRegistrationNode@@PAXPBU_s_FuncInfo@@@Z 0042b1d6 f   libvcruntime:frame.obj
 0001:0002a1ee       ?FrameUnwindToState@__FrameHandler3@@SAXPAUEHRegistrationNode@@PAXPBU_s_FuncInfo@@H@Z 0042b1ee f   libvcruntime:frame.obj
 0001:0002a2d6       ?GetMaxState@__FrameHandler3@@SAHPAXPBU_s_FuncInfo@@@Z 0042b2d6 f i libvcruntime:frame.obj
 0001:0002a3b4       ?TypeMatch@__FrameHandler3@@SAHPBU_s_HandlerType@@PBU_s_CatchableType@@PBU_s_ThrowInfo@@@Z 0042b3b4 f   libvcruntime:frame.obj
 0001:0002a3bd       ?_CallMemberFunction1@@YGXQAX00@Z 0042b3bd f i libvcruntime:frame.obj
 0001:0002a3cd       ?_CallMemberFunction2@@YGXQAX00H@Z 0042b3cd f i libvcruntime:frame.obj
 0001:0002a3e0       ?begin@HandlerMap@__FrameHandler3@@QAE?AViterator@12@XZ 0042b3e0 f i libvcruntime:frame.obj
 0001:0002a3f0       ?end@HandlerMap@__FrameHandler3@@QAE?AViterator@12@XZ 0042b3f0 f i libvcruntime:frame.obj
 0001:0002a401       ?getESTypes@__FrameHandler3@@SAPBU_s_ESTypeList@@PBU_s_FuncInfo@@@Z 0042b401 f i libvcruntime:frame.obj
 0001:0002a40c       ?getLastEntry@HandlerMap@__FrameHandler3@@QAEPBU_s_HandlerType@@XZ 0042b40c f i libvcruntime:frame.obj
 0001:0002a41a       ?getMagicNum@__FrameHandler3@@SAIPBU_s_FuncInfo@@@Z 0042b41a f i libvcruntime:frame.obj
 0001:0002a429       ?getNumTryBlocks@TryBlockMap@__FrameHandler3@@QAEIXZ 0042b429 f i libvcruntime:frame.obj
 0001:0002a42f       ?isEHs@__FrameHandler3@@SA_NPBU_s_FuncInfo@@@Z 0042b42f f i libvcruntime:frame.obj
 0001:0002a43c       ?isNoExcept@__FrameHandler3@@SA_NPBU_s_FuncInfo@@@Z 0042b43c f i libvcruntime:frame.obj
 0001:0002a44c       ___BuildCatchObject        0042b44c f   libvcruntime:frame.obj
 0001:0002a451       ___BuildCatchObjectHelper  0042b451 f   libvcruntime:frame.obj
 0001:0002a45a       ___TypeMatch               0042b45a f   libvcruntime:frame.obj
 0001:0002a463       ___vcrt_EncodePointer      0042b463 f i libvcruntime:frame.obj
 0001:0002a480       __CallSettingFrame@12      0042b480 f   libvcruntime:lowhelpr.obj
 0001:0002a4a7       __NLG_Return               0042b4a7     libvcruntime:lowhelpr.obj
 0001:0002a4d7       ___except_validate_context_record 0042b4d7 f   libvcruntime:jbcxrval.obj
 0001:0002a507       ___except_validate_jump_buffer 0042b507 f   libvcruntime:jbcxrval.obj
 0001:0002a534       ___except_validate_jump_buffer_common 0042b534 f i libvcruntime:jbcxrval.obj
 0001:0002a570       __local_unwind4            0042b570 f   libvcruntime:exsup4.obj
 0001:0002a660       __seh_longjmp_unwind4@4    0042b660 f   libvcruntime:exsup4.obj
 0001:0002a690       @_EH4_CallFilterFunc@8     0042b690 f   libvcruntime:exsup4.obj
 0001:0002a6b0       @_EH4_TransferToHandler@8  0042b6b0 f   libvcruntime:exsup4.obj
 0001:0002a6d0       @_EH4_GlobalUnwind2@8      0042b6d0 f   libvcruntime:exsup4.obj
 0001:0002a6f0       @_EH4_LocalUnwind@16       0042b6f0 f   libvcruntime:exsup4.obj
 0001:0002a707       ___vcrt_initialize_locks   0042b707 f   libvcruntime:locks.obj
 0001:0002a743       ___vcrt_lock               0042b743 f   libvcruntime:locks.obj
 0001:0002a758       ___vcrt_uninitialize_locks 0042b758 f   libvcruntime:locks.obj
 0001:0002a787       ___vcrt_unlock             0042b787 f   libvcruntime:locks.obj
 0001:0002a79c       ??$?0$00@DName@@QAE@PBDU?$StringLifeSelector@$00@@@Z 0042b79c f i libvcruntime:undname.obj
 0001:0002a7cf       ??$?0$00@pcharNode@@QAE@PBDHU?$StringLifeSelector@$00@@@Z 0042b7cf f i libvcruntime:undname.obj
 0001:0002a7ea       ??$?0$01@DName@@QAE@PBDU?$StringLifeSelector@$01@@@Z 0042b7ea f i libvcruntime:undname.obj
 0001:0002a81d       ??$?0$01@pcharNode@@QAE@PBDHU?$StringLifeSelector@$01@@@Z 0042b81d f i libvcruntime:undname.obj
 0001:0002a85d       ??$?0$0A@@DName@@QAE@PBDU?$StringLifeSelector@$0A@@@@Z 0042b85d f i libvcruntime:undname.obj
 0001:0002a890       ??$?0$0A@@pcharNode@@QAE@PBDHU?$StringLifeSelector@$0A@@@@Z 0042b890 f i libvcruntime:undname.obj
 0001:0002a8d0       ??$?0_K$0A@@?$optional@_K@std@@QAE@$$QA_K@Z 0042b8d0 f i libvcruntime:undname.obj
 0001:0002a8ea       ??$?0_K@?$_Optional_construct_base@_K@std@@QAE@Uin_place_t@1@$$QA_K@Z 0042b8ea f i libvcruntime:undname.obj
 0001:0002a904       ??$?0_K@?$_Optional_destruct_base@_K$00@std@@QAE@Uin_place_t@1@$$QA_K@Z 0042b904 f i libvcruntime:undname.obj
 0001:0002a91e       ??$append@VDNameNode@@@DName@@AAEXPBVDNameNode@@@Z 0042b91e f i libvcruntime:undname.obj
 0001:0002a95f       ??$append@VDNameStatusNode@@@DName@@AAEXPBVDNameStatusNode@@@Z 0042b95f f i libvcruntime:undname.obj
 0001:0002a9a0       ??$append@VcharNode@@@DName@@AAEXPBVcharNode@@@Z 0042b9a0 f i libvcruntime:undname.obj
 0001:0002a9e1       ??$append@VpDNameNode@@@DName@@AAEXPBVpDNameNode@@@Z 0042b9e1 f i libvcruntime:undname.obj
 0001:0002aa22       ??$append@VpcharNode@@@DName@@AAEXPBVpcharNode@@@Z 0042ba22 f i libvcruntime:undname.obj
 0001:0002aa63       ??$doPchar@$00@DName@@AAEXPBDH@Z 0042ba63 f i libvcruntime:undname.obj
 0001:0002aace       ??$doPchar@$01@DName@@AAEXPBDH@Z 0042bace f i libvcruntime:undname.obj
 0001:0002ab3f       ??$doPchar@$0A@@DName@@AAEXPBDH@Z 0042bb3f f i libvcruntime:undname.obj
 0001:0002abb0       ??$forward@_K@std@@YA$$QA_KAA_K@Z 0042bbb0 f i libvcruntime:undname.obj
 0001:0002ac74       ??$size@D$04@std@@YAIAAY04$$CBD@Z 0042bc74 f i libvcruntime:undname.obj
 0001:0002ac78       ??0?$_Optional_construct_base@_K@std@@QAE@XZ 0042bc78 f i libvcruntime:undname.obj
 0001:0002ac7f       ??0?$_Optional_destruct_base@_K$00@std@@QAE@XZ 0042bc7f f i libvcruntime:undname.obj
 0001:0002ac86       ??0?$optional@_K@std@@QAE@XZ 0042bc86 f i libvcruntime:undname.obj
 0001:0002ac8d       ??0Block@_HeapManager@@QAE@XZ 0042bc8d f i libvcruntime:undname.obj
 0001:0002ac93       ??0DName@@QAE@AAPBDD@Z     0042bc93 f   libvcruntime:undname.obj
 0001:0002ad13       ??0DName@@QAE@ABUStringLiteral@@@Z 0042bd13 f   libvcruntime:undname.obj
 0001:0002ad3a       ??0DName@@QAE@ABV0@@Z      0042bd3a f i libvcruntime:undname.obj
 0001:0002ad50       ??0DName@@QAE@D@Z          0042bd50 f   libvcruntime:undname.obj
 0001:0002ad6c       ??0DName@@QAE@PAV0@@Z      0042bd6c f   libvcruntime:undname.obj
 0001:0002adb5       ??0DName@@QAE@W4DNameStatus@@@Z 0042bdb5 f   libvcruntime:undname.obj
 0001:0002adf5       ??0DName@@QAE@XZ           0042bdf5 f i libvcruntime:undname.obj
 0001:0002adff       ??0DName@@QAE@_J@Z         0042bdff f   libvcruntime:undname.obj
 0001:0002ae92       ??0DName@@QAE@_K@Z         0042be92 f   libvcruntime:undname.obj
 0001:0002af04       ??0DNameNode@@IAE@XZ       0042bf04 f i libvcruntime:undname.obj
 0001:0002af0d       ??0Replicator@@QAE@XZ      0042bf0d f i libvcruntime:undname.obj
 0001:0002af1c       ??0UnDecorator@@QAE@PBDP6APADJ@ZK@Z 0042bf1c f i libvcruntime:undname.obj
 0001:0002af68       ??0_Nontrivial_dummy_type@std@@QAE@XZ 0042bf68 f i libvcruntime:undname.obj
 0001:0002af6b       ??0charNode@@QAE@D@Z       0042bf6b f i libvcruntime:undname.obj
 0001:0002af80       ??0pDNameNode@@QAE@PAVDName@@@Z 0042bf80 f   libvcruntime:undname.obj
 0001:0002afa8       ??0pairNode@@QAE@PBVDNameNode@@0@Z 0042bfa8 f i libvcruntime:undname.obj
 0001:0002afce       ??2@YAPAXIAAV_HeapManager@@H@Z 0042bfce f   libvcruntime:undname.obj
 0001:0002afed       ??4DName@@QAEAAV0@ABUStringLiteral@@@Z 0042bfed f   libvcruntime:undname.obj
 0001:0002b00e       ??4DName@@QAEAAV0@ABV0@@Z  0042c00e f   libvcruntime:undname.obj
 0001:0002b024       ??4DName@@QAEAAV0@D@Z      0042c024 f i libvcruntime:undname.obj
 0001:0002b040       ??4DName@@QAEAAV0@PAV0@@Z  0042c040 f   libvcruntime:undname.obj
 0001:0002b083       ??4DName@@QAEAAV0@W4DNameStatus@@@Z 0042c083 f   libvcruntime:undname.obj
 0001:0002b0b5       ??AReplicator@@QBE?AVDName@@H@Z 0042c0b5 f   libvcruntime:undname.obj
 0001:0002b0f1       ??B?$optional@_K@std@@QBE_NXZ 0042c0f1 f i libvcruntime:undname.obj
 0001:0002b0f5       ??D?$optional@_K@std@@QGAEAA_KXZ 0042c0f5 f i libvcruntime:undname.obj
 0001:0002b0f8       ??H@YA?AVDName@@ABUStringLiteral@@ABV0@@Z 0042c0f8 f i libvcruntime:undname.obj
 0001:0002b11a       ??H@YA?AVDName@@DABV0@@Z   0042c11a f i libvcruntime:undname.obj
 0001:0002b145       ??H@YA?AVDName@@W4DNameStatus@@ABV0@@Z 0042c145 f i libvcruntime:undname.obj
 0001:0002b167       ??HDName@@QBE?AV0@ABUStringLiteral@@@Z 0042c167 f   libvcruntime:undname.obj
 0001:0002b189       ??HDName@@QBE?AV0@ABV0@@Z  0042c189 f   libvcruntime:undname.obj
 0001:0002b1ab       ??HDName@@QBE?AV0@D@Z      0042c1ab f   libvcruntime:undname.obj
 0001:0002b1cd       ??HDName@@QBE?AV0@PAV0@@Z  0042c1cd f   libvcruntime:undname.obj
 0001:0002b1ef       ??HDName@@QBE?AV0@W4DNameStatus@@@Z 0042c1ef f   libvcruntime:undname.obj
 0001:0002b211       ??HStringLiteral@@QBE?AU0@H@Z 0042c211 f i libvcruntime:undname.obj
 0001:0002b22b       ??YDName@@QAEAAV0@ABUStringLiteral@@@Z 0042c22b f   libvcruntime:undname.obj
 0001:0002b283       ??YDName@@QAEAAV0@ABV0@@Z  0042c283 f   libvcruntime:undname.obj
 0001:0002b2da       ??YDName@@QAEAAV0@D@Z      0042c2da f   libvcruntime:undname.obj
 0001:0002b32f       ??YDName@@QAEAAV0@PAV0@@Z  0042c32f f   libvcruntime:undname.obj
 0001:0002b393       ??YDName@@QAEAAV0@W4DNameStatus@@@Z 0042c393 f   libvcruntime:undname.obj
 0001:0002b3d3       ??YReplicator@@QAEAAV0@ABVDName@@@Z 0042c3d3 f   libvcruntime:undname.obj
 0001:0002b413       ??_5DName@@QAEAAV0@ABV0@@Z 0042c413 f   libvcruntime:undname.obj
 0001:0002b42f       ??__K_l@@YA?AUStringLiteral@@PBDI@Z 0042c42f f i libvcruntime:undname.obj
 0001:0002b43a       ?Constructor@_HeapManager@@QAEXP6APAXI@ZP6AXPAX@Z@Z 0042c43a f i libvcruntime:undname.obj
 0001:0002b457       ?Destructor@_HeapManager@@QAEXXZ 0042c457 f i libvcruntime:undname.obj
 0001:0002b49b       ?UScore@UnDecorator@@SA?AUStringLiteral@@W4Tokens@@@Z 0042c49b f   libvcruntime:undname.obj
 0001:0002b4c2       ?composeDeclaration@UnDecorator@@CA?AVDName@@ABV2@@Z 0042c4c2 f i libvcruntime:undname.obj
 0001:0002c1ba       ?doAccessSpecifiers@UnDecorator@@SAHXZ 0042d1ba f i libvcruntime:undname.obj
 0001:0002c1c8       ?doAllocationLanguage@UnDecorator@@SAHXZ 0042d1c8 f i libvcruntime:undname.obj
 0001:0002c1d6       ?doAllocationModel@UnDecorator@@SAHXZ 0042d1d6 f i libvcruntime:undname.obj
 0001:0002c1e4       ?doEcsu@UnDecorator@@SAHXZ 0042d1e4 f i libvcruntime:undname.obj
 0001:0002c1f2       ?doEllipsis@UnDecorator@@SAHXZ 0042d1f2 f i libvcruntime:undname.obj
 0001:0002c200       ?doFunctionReturns@UnDecorator@@SAHXZ 0042d200 f i libvcruntime:undname.obj
 0001:0002c20e       ?doMSKeywords@UnDecorator@@SAHXZ 0042d20e f i libvcruntime:undname.obj
 0001:0002c21b       ?doMemberTypes@UnDecorator@@SAHXZ 0042d21b f i libvcruntime:undname.obj
 0001:0002c229       ?doNameOnly@UnDecorator@@SAHXZ 0042d229 f i libvcruntime:undname.obj
 0001:0002c234       ?doNoIdentCharCheck@UnDecorator@@SAHXZ 0042d234 f i libvcruntime:undname.obj
 0001:0002c23f       ?doPchar@DName@@AAEXD@Z    0042d23f f   libvcruntime:undname.obj
 0001:0002c277       ?doPtr64@UnDecorator@@SAHXZ 0042d277 f i libvcruntime:undname.obj
 0001:0002c285       ?doRestrictionSpec@UnDecorator@@SAHXZ 0042d285 f i libvcruntime:undname.obj
 0001:0002c293       ?doThisTypes@UnDecorator@@SAHXZ 0042d293 f i libvcruntime:undname.obj
 0001:0002c2a5       ?doThrowTypes@UnDecorator@@SAHXZ 0042d2a5 f i libvcruntime:undname.obj
 0001:0002c2b3       ?doTypeOnly@UnDecorator@@SAHXZ 0042d2b3 f i libvcruntime:undname.obj
 0001:0002c2be       ?doUnderScore@UnDecorator@@SAHXZ 0042d2be f i libvcruntime:undname.obj
 0001:0002c2c9       ?getAddressOf@UnDecorator@@CA?AVDName@@XZ 0042d2c9 f   libvcruntime:undname.obj
 0001:0002c331       ?getArgumentList@UnDecorator@@CA?AVDName@@XZ 0042d331 f   libvcruntime:undname.obj
 0001:0002c43e       ?getArgumentTypes@UnDecorator@@CA?AVDName@@XZ 0042d43e f   libvcruntime:undname.obj
 0001:0002c546       ?getArrayAccess@UnDecorator@@CA?AVDName@@XZ 0042d546 f   libvcruntime:undname.obj
 0001:0002c5ba       ?getArrayObject@UnDecorator@@CA?AVDName@@XZ 0042d5ba f   libvcruntime:undname.obj
 0001:0002c645       ?getArrayType@UnDecorator@@CA?AVDName@@ABV2@@Z 0042d645 f i libvcruntime:undname.obj
 0001:0002c7e2       ?getBasedType@UnDecorator@@CA?AVDName@@XZ 0042d7e2 f   libvcruntime:undname.obj
 0001:0002c898       ?getBasicDataType@UnDecorator@@CA?AVDName@@ABV2@@Z 0042d898 f   libvcruntime:undname.obj
 0001:0002cdcc       ?getCHPEName@UnDecorator@@QAEPADPADH@Z 0042ddcc f i libvcruntime:undname.obj
 0001:0002cea9       ?getCallIndex@UnDecorator@@CA?AVDName@@XZ 0042dea9 f i libvcruntime:undname.obj
 0001:0002cebd       ?getCallingConvention@UnDecorator@@CA?AVDName@@XZ 0042debd f   libvcruntime:undname.obj
 0001:0002cf92       ?getDataIndirectType@UnDecorator@@CA?AVDName@@ABV2@W4IndirectionKind@@0H@Z 0042df92 f   libvcruntime:undname.obj
 0001:0002d630       ?getDataIndirectType@UnDecorator@@CA?AVDName@@XZ 0042e630 f i libvcruntime:undname.obj
 0001:0002d65e       ?getDataType@UnDecorator@@CA?AVDName@@PAV2@@Z 0042e65e f   libvcruntime:undname.obj
 0001:0002d735       ?getDecoratedName@UnDecorator@@CA?AVDName@@XZ 0042e735 f   libvcruntime:undname.obj
 0001:0002d989       ?getDimension@UnDecorator@@CA?AVDName@@_N@Z 0042e989 f   libvcruntime:undname.obj
 0001:0002da97       ?getDispatchTarget@UnDecorator@@CA?AVDName@@XZ 0042ea97 f   libvcruntime:undname.obj
 0001:0002daea       ?getDisplacement@UnDecorator@@CA?AVDName@@XZ 0042eaea f i libvcruntime:undname.obj
 0001:0002dafe       ?getECSUDataType@UnDecorator@@CA?AVDName@@XZ 0042eafe f   libvcruntime:undname.obj
 0001:0002dc90       ?getECSUName@UnDecorator@@CA?AVDName@@XZ 0042ec90 f i libvcruntime:undname.obj
 0001:0002dca1       ?getEnumType@UnDecorator@@CA?AVDName@@XZ 0042eca1 f i libvcruntime:undname.obj
 0001:0002ddb5       ?getExtendedDataIndirectType@UnDecorator@@CA?AVDName@@AAW4IndirectionKind@@AA_NH@Z 0042edb5 f   libvcruntime:undname.obj
 0001:0002df60       ?getExternalDataType@UnDecorator@@CA?AVDName@@ABV2@@Z 0042ef60 f i libvcruntime:undname.obj
 0001:0002dfc5       ?getFloatingPoint@UnDecorator@@CA?AVDName@@H@Z 0042efc5 f   libvcruntime:undname.obj
 0001:0002e083       ?getFunctionIndirectType@UnDecorator@@CA?AVDName@@ABV2@@Z 0042f083 f   libvcruntime:undname.obj
 0001:0002e42d       ?getGuardNumber@UnDecorator@@CA?AVDName@@XZ 0042f42d f i libvcruntime:undname.obj
 0001:0002e441       ?getLastChar@DName@@QBEDXZ 0042f441 f i libvcruntime:undname.obj
 0001:0002e461       ?getLastChar@DNameStatusNode@@UBEDXZ 0042f461 f i libvcruntime:undname.obj
 0001:0002e46d       ?getLastChar@charNode@@UBEDXZ 0042f46d f i libvcruntime:undname.obj
 0001:0002e471       ?getLastChar@pDNameNode@@UBEDXZ 0042f471 f i libvcruntime:undname.obj
 0001:0002e47f       ?getLastChar@pairNode@@UBEDXZ 0042f47f f i libvcruntime:undname.obj
 0001:0002e4b4       ?getLastChar@pcharNode@@UBEDXZ 0042f4b4 f i libvcruntime:undname.obj
 0001:0002e4c6       ?getLexicalFrame@UnDecorator@@CA?AVDName@@XZ 0042f4c6 f i libvcruntime:undname.obj
 0001:0002e4f7       ?getMemberAccess@UnDecorator@@CA?AVDName@@XZ 0042f4f7 f   libvcruntime:undname.obj
 0001:0002e567       ?getMemoryWithBuffer@_HeapManager@@QAEPAXI@Z 0042f567 f   libvcruntime:undname.obj
 0001:0002e5d1       ?getMemoryWithoutBuffer@_HeapManager@@QAEPAXI@Z 0042f5d1 f   libvcruntime:undname.obj
 0001:0002e5f1       ?getNoexcept@UnDecorator@@CA?AVDName@@XZ 0042f5f1 f   libvcruntime:undname.obj
 0001:0002e645       ?getNumberOfDimensions@UnDecorator@@CAHXZ 0042f645 f   libvcruntime:undname.obj
 0001:0002e6a7       ?getOperatorName@UnDecorator@@CA?AVDName@@_NPA_N@Z 0042f6a7 f i libvcruntime:undname.obj
 0001:0002ede1       ?getPointerToMember@UnDecorator@@CA?AVDName@@XZ 0042fde1 f   libvcruntime:undname.obj
 0001:0002ee9d       ?getPointerType@UnDecorator@@CA?AVDName@@ABV2@0@Z 0042fe9d f i libvcruntime:undname.obj
 0001:0002eeb8       ?getPointerTypeArray@UnDecorator@@CA?AVDName@@ABV2@0@Z 0042feb8 f i libvcruntime:undname.obj
 0001:0002eed3       ?getPrimaryDataType@UnDecorator@@CA?AVDName@@ABV2@@Z 0042fed3 f   libvcruntime:undname.obj
 0001:0002f121       ?getPtrRefDataType@UnDecorator@@CA?AVDName@@ABV2@H@Z 00430121 f   libvcruntime:undname.obj
 0001:0002f28e       ?getPtrRefType@UnDecorator@@CA?AVDName@@ABV2@0W4IndirectionKind@@@Z 0043028e f   libvcruntime:undname.obj
 0001:0002f39f       ?getReferenceType@UnDecorator@@CA?AVDName@@ABV2@0W4IndirectionKind@@@Z 0043039f f i libvcruntime:undname.obj
 0001:0002f3bb       ?getRestrictionSpec@UnDecorator@@CA?AVDName@@XZ 004303bb f   libvcruntime:undname.obj
 0001:0002f4e0       ?getReturnType@UnDecorator@@CA?AVDName@@PAV2@@Z 004304e0 f   libvcruntime:undname.obj
 0001:0002f50f       ?getScope@UnDecorator@@CA?AVDName@@XZ 0043050f f   libvcruntime:undname.obj
 0001:0002f8cd       ?getScopedName@UnDecorator@@CA?AVDName@@XZ 004308cd f   libvcruntime:undname.obj
 0001:0002f9c0       ?getSignedDimension@UnDecorator@@CA?AVDName@@XZ 004309c0 f   libvcruntime:undname.obj
 0001:0002fa11       ?getStorageConvention@UnDecorator@@CA?AVDName@@XZ 00430a11 f i libvcruntime:undname.obj
 0001:0002fa22       ?getString@DName@@QBEPADPAD0@Z 00430a22 f i libvcruntime:undname.obj
 0001:0002fa4f       ?getString@DName@@QBEPADPADH@Z 00430a4f f i libvcruntime:undname.obj
 0001:0002faa4       ?getString@DNameStatusNode@@UBEPADPAD0@Z 00430aa4 f i libvcruntime:undname.obj
 0001:0002faeb       ?getString@charNode@@UBEPADPAD0@Z 00430aeb f i libvcruntime:undname.obj
 0001:0002fb00       ?getString@pDNameNode@@UBEPADPAD0@Z 00430b00 f i libvcruntime:undname.obj
 0001:0002fb17       ?getString@pairNode@@UBEPADPAD0@Z 00430b17 f i libvcruntime:undname.obj
 0001:0002fb5d       ?getString@pcharNode@@UBEPADPAD0@Z 00430b5d f i libvcruntime:undname.obj
 0001:0002fb78       ?getStringEncoding@UnDecorator@@CA?AVDName@@W4PrefixKind@@H@Z 00430b78 f   libvcruntime:undname.obj
 0001:0002fc15       ?getStringHelper@@YAPADPADPBD1H@Z 00430c15 f i libvcruntime:undname.obj
 0001:0002fc3f       ?getStringObject@UnDecorator@@CA?AVDName@@XZ 00430c3f f   libvcruntime:undname.obj
 0001:0002fc8a       ?getSymbolName@UnDecorator@@CA?AVDName@@XZ 00430c8a f i libvcruntime:undname.obj
 0001:0002fcd2       ?getTemplateArgumentList@UnDecorator@@CA?AVDName@@XZ 00430cd2 f   libvcruntime:undname.obj
 0001:0002fe82       ?getTemplateName@UnDecorator@@CA?AVDName@@_N@Z 00430e82 f   libvcruntime:undname.obj
 0001:0002ffe2       ?getTemplateNonTypeArgument@UnDecorator@@CA?AVDName@@XZ 00430fe2 f   libvcruntime:undname.obj
 0001:000303b2       ?getTemplateTypeArgument@UnDecorator@@CA?AVDName@@XZ 004313b2 f   libvcruntime:undname.obj
 0001:000304b8       ?getThisType@UnDecorator@@CA?AVDName@@XZ 004314b8 f i libvcruntime:undname.obj
 0001:000304e7       ?getThrowTypes@UnDecorator@@CA?AVDName@@XZ 004314e7 f   libvcruntime:undname.obj
 0001:0003050a       ?getTypeEncoding@UnDecorator@@CAHXZ 0043150a f i libvcruntime:undname.obj
 0001:00030842       ?getUndecoratedName@UnDecorator@@QAEPADPADH@Z 00431842 f i libvcruntime:undname.obj
 0001:00030961       ?getUnionObject@UnDecorator@@CA?AVDName@@XZ 00431961 f   libvcruntime:undname.obj
 0001:00030a08       ?getVCallThunkType@UnDecorator@@CA?AVDName@@XZ 00431a08 f i libvcruntime:undname.obj
 0001:00030a52       ?getValue@UnDecorator@@CA?AV?$optional@_K@std@@XZ 00431a52 f   libvcruntime:undname.obj
 0001:00030ada       ?getValueObject@UnDecorator@@CA?AVDName@@XZ 00431ada f   libvcruntime:undname.obj
 0001:00030bd4       ?getVbTableType@UnDecorator@@CA?AVDName@@ABV2@@Z 00431bd4 f i libvcruntime:undname.obj
 0001:00030be9       ?getVdispMapType@UnDecorator@@CA?AVDName@@ABV2@@Z 00431be9 f i libvcruntime:undname.obj
 0001:00030c4a       ?getVfTableType@UnDecorator@@CA?AVDName@@ABV2@@Z 00431c4a f i libvcruntime:undname.obj
 0001:00030d9e       ?getZName@UnDecorator@@CA?AVDName@@_N0@Z 00431d9e f   libvcruntime:undname.obj
 0001:00030fb3       ?haveTemplateParameters@UnDecorator@@SAHXZ 00431fb3 f i libvcruntime:undname.obj
 0001:00030fbe       ?isArray@DName@@QBEHXZ     00431fbe f i libvcruntime:undname.obj
 0001:00030fc8       ?isComArray@DName@@QBEHXZ  00431fc8 f i libvcruntime:undname.obj
 0001:00030fd2       ?isEmpty@DName@@QBEHXZ     00431fd2 f i libvcruntime:undname.obj
 0001:00030fda       ?isFull@Replicator@@QBEHXZ 00431fda f i libvcruntime:undname.obj
 0001:00030fe3       ?isNoTE@DName@@QBEHXZ      00431fe3 f i libvcruntime:undname.obj
 0001:00030fed       ?isPinPtr@DName@@QBEHXZ    00431fed f i libvcruntime:undname.obj
 0001:00030ff7       ?isPtrRef@DName@@QBEHXZ    00431ff7 f i libvcruntime:undname.obj
 0001:00031001       ?isUDC@DName@@QBEHXZ       00432001 f i libvcruntime:undname.obj
 0001:00031012       ?isUDTThunk@DName@@QBEHXZ  00432012 f i libvcruntime:undname.obj
 0001:00031023       ?isVCallThunk@DName@@QBEHXZ 00432023 f i libvcruntime:undname.obj
 0001:0003102d       ?isValid@DName@@QBEHXZ     0043202d f i libvcruntime:undname.obj
 0001:00031037       ?length@DName@@QBEHXZ      00432037 f i libvcruntime:undname.obj
 0001:00031056       ?length@DNameStatusNode@@UBEHXZ 00432056 f i libvcruntime:undname.obj
 0001:0003105a       ?length@charNode@@UBEHXZ   0043205a f i libvcruntime:undname.obj
 0001:0003105e       ?length@pDNameNode@@UBEHXZ 0043205e f i libvcruntime:undname.obj
 0001:0003106c       ?length@pairNode@@UBEHXZ   0043206c f i libvcruntime:undname.obj
 0001:000310b5       ?length@pcharNode@@UBEHXZ  004320b5 f i libvcruntime:undname.obj
 0001:000310b9       ?make@DNameStatusNode@@SAPBV1@W4DNameStatus@@@Z 004320b9 f i libvcruntime:undname.obj
 0001:000310d5       ?parseDecoratedName@UnDecorator@@CA?AVDName@@XZ 004320d5 f   libvcruntime:undname.obj
 0001:000311cf       ?raw_length@DNameStatusNode@@UBEHXZ 004321cf f i libvcruntime:undname.obj
 0001:000311d3       ?raw_length@charNode@@UBEHXZ 004321d3 f i libvcruntime:undname.obj
 0001:000311d7       ?raw_length@pDNameNode@@UBEHXZ 004321d7 f i libvcruntime:undname.obj
 0001:000311db       ?raw_length@pairNode@@UBEHXZ 004321db f i libvcruntime:undname.obj
 0001:000311df       ?raw_length@pcharNode@@UBEHXZ 004321df f i libvcruntime:undname.obj
 0001:000311e3       ?setIsArray@DName@@QAEXXZ  004321e3 f i libvcruntime:undname.obj
 0001:000311eb       ?setIsComArray@DName@@QAEXXZ 004321eb f i libvcruntime:undname.obj
 0001:000311f3       ?setIsNoTE@DName@@QAEXXZ   004321f3 f i libvcruntime:undname.obj
 0001:000311fb       ?setIsPinPtr@DName@@QAEXXZ 004321fb f i libvcruntime:undname.obj
 0001:00031203       ?setIsUDC@DName@@QAEXXZ    00432203 f i libvcruntime:undname.obj
 0001:00031210       ?setIsVCallThunk@DName@@QAEXXZ 00432210 f i libvcruntime:undname.obj
 0001:00031218       ?setPtrRef@DName@@QAEAAV1@XZ 00432218 f i libvcruntime:undname.obj
 0001:00031222       ?status@DName@@QBE?AW4DNameStatus@@XZ 00432222 f i libvcruntime:undname.obj
 0001:0003128e       ___unDName                 0043228e f   libvcruntime:undname.obj
 0001:000312b1       ___unDNameEx               004322b1 f   libvcruntime:undname.obj
 0001:00031350       _snprintf                  00432350 f i libvcruntime:undname.obj
 0001:0003136a       _unDNameGenerateCHPE       0043236a f   libvcruntime:undname.obj
 0001:00031407       _vsnprintf                 00432407 f i libvcruntime:undname.obj
 0001:00031437       ??$__crt_interlocked_exchange_pointer@UHINSTANCE__@@PAU1@@@YAPAUHINSTANCE__@@PDSAU0@QAU0@@Z 00432437 f i libvcruntime:winapi_downlevel.obj
 0001:00031444       ??$__crt_interlocked_exchange_pointer@UHINSTANCE__@@PAX@@YAPAUHINSTANCE__@@PDSAU0@QAX@Z 00432444 f i libvcruntime:winapi_downlevel.obj
 0001:00031451       ??$__crt_interlocked_exchange_pointer@XPAX@@YAPAXPDSAXQAX@Z 00432451 f i libvcruntime:winapi_downlevel.obj
 0001:0003145e       ??$__crt_interlocked_read_pointer@UHINSTANCE__@@@@YAPAUHINSTANCE__@@PDSAU0@@Z 0043245e f i libvcruntime:winapi_downlevel.obj
 0001:00031469       ??$__crt_interlocked_read_pointer@X@@YAPAXPDSAX@Z 00432469 f i libvcruntime:winapi_downlevel.obj
 0001:0003169c       ___vcrt_FlsAlloc           0043269c f   libvcruntime:winapi_downlevel.obj
 0001:000316d7       ___vcrt_FlsFree            004326d7 f   libvcruntime:winapi_downlevel.obj
 0001:00031712       ___vcrt_FlsGetValue        00432712 f   libvcruntime:winapi_downlevel.obj
 0001:0003174d       ___vcrt_FlsSetValue        0043274d f   libvcruntime:winapi_downlevel.obj
 0001:0003178b       ___vcrt_InitializeCriticalSectionEx 0043278b f   libvcruntime:winapi_downlevel.obj
 0001:000317e6       __get_unexpected           004327e6 f   libvcruntime:unexpected.obj
 0001:000317f8       _set_unexpected            004327f8 f   libvcruntime:unexpected.obj
 0001:00031816       _unexpected                00432816 f   libvcruntime:unexpected.obj
 0001:00031833       ?GetCurrentState@__FrameHandler3@@SAHPAUEHRegistrationNode@@PAXPBU_s_FuncInfo@@@Z 00432833 f   libvcruntime:ehstate.obj
 0001:00031850       ?SetState@__FrameHandler3@@SAXPAUEHRegistrationNode@@PBU_s_FuncInfo@@H@Z 00432850 f   libvcruntime:ehstate.obj
 0001:00031860       __global_unwind2           00432860 f   libvcruntime:exsup.obj
 0001:000318e0       __local_unwind2            004328e0 f   libvcruntime:exsup.obj
 0001:00031980       __abnormal_termination     00432980 f   libvcruntime:exsup.obj
 0001:000319b0       __NLG_Notify1              004329b0 f   libvcruntime:exsup.obj
 0001:000319c0       __NLG_Notify               004329c0 f   libvcruntime:exsup.obj
 0001:000319d7       __NLG_Dispatch2            004329d7     libvcruntime:exsup.obj
 0001:000319d7       __NLG_Dispatch             004329d7     libvcruntime:exsup.obj
 0001:000319e0       __NLG_Call                 004329e0 f   libvcruntime:exsup.obj
 0001:000319e2       __NLG_Return2              004329e2     libvcruntime:exsup.obj
 0001:000319e3       ??$__crt_fast_decode_pointer@P6AXPB_W00II@Z@@YAP6AXPB_W00II@ZQ6AX000II@Z@Z 004329e3 f i libucrt:invalid_parameter.obj
 0001:000319f9       ??$__crt_fast_encode_pointer@P6AXPB_W00II@Z@@YAP6AXPB_W00II@ZQ6AX000II@Z@Z 004329f9 f i libucrt:invalid_parameter.obj
 0001:00031a18       ??$initialize_from_array@$$BY00Q6AXPB_W00II@Z@?$dual_state_global@P6AXPB_W00II@Z@__crt_state_management@@QAAXAAY00Q6AXPB_W00II@Z@Z 00432a18 f i libucrt:invalid_parameter.obj
 0001:00031a29       ?__crt_rotate_pointer_value@@YAIIH@Z 00432a29 f i libucrt:invalid_parameter.obj
 0001:00031a38       ?dangerous_get_state_array@?$dual_state_global@P6AXPB_W00II@Z@__crt_state_management@@QAEPAP6AXPB_W00II@ZXZ 00432a38 f i libucrt:invalid_parameter.obj
 0001:00031a3b       ?get_current_state_index@__crt_state_management@@YAIXZ 00432a3b f i libucrt:invalid_parameter.obj
 0001:00031a3e       ?value@?$dual_state_global@P6AXPB_W00II@Z@__crt_state_management@@QAEAAP6AXPB_W00II@ZXZ 00432a3e f i libucrt:invalid_parameter.obj
 0001:00031a41       ___acrt_call_reportfault   00432a41 f   libucrt:invalid_parameter.obj
 0001:00031b7a       ___acrt_initialize_invalid_parameter_handler 00432b7a f   libucrt:invalid_parameter.obj
 0001:00031b89       __get_invalid_parameter_handler 00432b89 f   libucrt:invalid_parameter.obj
 0001:00031b9c       __get_thread_local_invalid_parameter_handler 00432b9c f   libucrt:invalid_parameter.obj
 0001:00031bad       __invalid_parameter        00432bad f   libucrt:invalid_parameter.obj
 0001:00031c11       __invalid_parameter_noinfo 00432c11 f   libucrt:invalid_parameter.obj
 0001:00031c21       __invalid_parameter_noinfo_noreturn 00432c21 f   libucrt:invalid_parameter.obj
 0001:00031c3e       __invoke_watson            00432c3e f   libucrt:invalid_parameter.obj
 0001:00031c72       __set_invalid_parameter_handler 00432c72 f   libucrt:invalid_parameter.obj
 0001:00031ca2       __set_thread_local_invalid_parameter_handler 00432ca2 f   libucrt:invalid_parameter.obj
 0001:00031cbf       _calloc                    00432cbf f   libucrt:calloc.obj
 0001:00031cca       _free                      00432cca f   libucrt:free.obj
 0001:00031ce5       ___acrt_errno_from_os_error 00432ce5 f   libucrt:errno.obj
 0001:00031d28       ___acrt_errno_map_os_error 00432d28 f   libucrt:errno.obj
 0001:00031d4b       ___doserrno                00432d4b f   libucrt:errno.obj
 0001:00031d5e       __errno                    00432d5e f   libucrt:errno.obj
 0001:00031d71       __get_doserrno             00432d71 f   libucrt:errno.obj
 0001:00031d96       __get_errno                00432d96 f   libucrt:errno.obj
 0001:00031dbb       __set_doserrno             00432dbb f   libucrt:errno.obj
 0001:00031ddc       __set_errno                00432ddc f   libucrt:errno.obj
 0001:00031dfd       ??$?B$$A6GXPAXK0@Z@__crt_fast_encoded_nullptr_t@@QBEP6GXPAXK0@ZXZ 00432dfd f i libucrt:exit.obj
 0001:00031e76       ??$__crt_fast_decode_pointer@P6GXPAXK0@Z@@YAP6GXPAXK0@ZQ6GX0K0@Z@Z 00432e76 f i libucrt:exit.obj
 0001:00031e8c       ??$__crt_fast_encode_pointer@P6GXPAXK0@Z@@YAP6GXPAXK0@ZQ6GX0K0@Z@Z 00432e8c f i libucrt:exit.obj
 0001:00031eab       ??$__crt_get_proc_address@P6GXI@Z@@YAP6GXI@ZQAUHINSTANCE__@@QBD@Z 00432eab f i libucrt:exit.obj
 0001:00031ebe       ??$__crt_interlocked_read@J@@YAJPDJ@Z 00432ebe f i libucrt:exit.obj
 0001:00031f0b       ??0?$__crt_unique_handle_t@U__crt_hmodule_traits@@@@QAE@QAUHINSTANCE__@@@Z 00432f0b f i libucrt:exit.obj
 0001:00031f1b       ??1?$__crt_unique_handle_t@U__crt_hmodule_traits@@@@QAE@XZ 00432f1b f i libucrt:exit.obj
 0001:0003201e       ?__acrt_select_exit_lock@@YA?AW4__acrt_lock_id@@XZ 0043301e f i libucrt:exit.obj
 0001:00032022       ?__crt_fast_encode_pointer@@YA?AU__crt_fast_encoded_nullptr_t@@$$T@Z 00433022 f i libucrt:exit.obj
 0001:00032040       ?close@?$__crt_unique_handle_t@U__crt_hmodule_traits@@@@QAEXXZ 00433040 f i libucrt:exit.obj
 0001:00032057       ?close@__crt_hmodule_traits@@SA_NPAUHINSTANCE__@@@Z 00433057 f i libucrt:exit.obj
 0001:00032112       ?get@?$__crt_unique_handle_t@U__crt_hmodule_traits@@@@QBEPAUHINSTANCE__@@XZ 00433112 f i libucrt:exit.obj
 0001:00032115       ?get_address_of@?$__crt_unique_handle_t@U__crt_hmodule_traits@@@@QAEPAPAUHINSTANCE__@@XZ 00433115 f i libucrt:exit.obj
 0001:00032118       ?get_invalid_value@__crt_hmodule_traits@@SAPAUHINSTANCE__@@XZ 00433118 f i libucrt:exit.obj
 0001:000321d3       __Exit                     004331d3 f   libucrt:exit.obj
 0001:000321e9       ___acrt_initialize_thread_local_exit_callback 004331e9 f   libucrt:exit.obj
 0001:000321f8       __c_exit                   004331f8 f   libucrt:exit.obj
 0001:00032207       __cexit                    00433207 f   libucrt:exit.obj
 0001:00032216       __exit                     00433216 f   libucrt:exit.obj
 0001:0003222c       __is_c_termination_complete 0043322c f   libucrt:exit.obj
 0001:00032233       __register_thread_local_exe_atexit_callback 00433233 f   libucrt:exit.obj
 0001:00032259       _exit                      00433259 f   libucrt:exit.obj
 0001:0003226f       _quick_exit                0043326f f   libucrt:exit.obj
 0001:00032285       ??$assemble_floating_point_ind@M@__crt_strtox@@YAXAAM@Z 00433285 f i libucrt:strtod.obj
 0001:00032295       ??$assemble_floating_point_ind@N@__crt_strtox@@YAXAAN@Z 00433295 f i libucrt:strtod.obj
 0001:000322a9       ??$assemble_floating_point_infinity@M@__crt_strtox@@YAX_NAAM@Z 004332a9 f i libucrt:strtod.obj
 0001:000322c2       ??$assemble_floating_point_infinity@N@__crt_strtox@@YAX_NAAN@Z 004332c2 f i libucrt:strtod.obj
 0001:000322df       ??$assemble_floating_point_qnan@M@__crt_strtox@@YAX_NAAM@Z 004332df f i libucrt:strtod.obj
 0001:000322f8       ??$assemble_floating_point_qnan@N@__crt_strtox@@YAX_NAAN@Z 004332f8 f i libucrt:strtod.obj
 0001:00032315       ??$assemble_floating_point_snan@M@__crt_strtox@@YAX_NAAM@Z 00433315 f i libucrt:strtod.obj
 0001:0003232e       ??$assemble_floating_point_snan@N@__crt_strtox@@YAX_NAAN@Z 0043332e f i libucrt:strtod.obj
 0001:0003234f       ??$assemble_floating_point_value_t@M@__crt_strtox@@YA?AW4SLD_STATUS@@_NH_KAAM@Z 0043334f f i libucrt:strtod.obj
 0001:0003237f       ??$assemble_floating_point_value_t@N@__crt_strtox@@YA?AW4SLD_STATUS@@_NH_KAAN@Z 0043337f f i libucrt:strtod.obj
 0001:000323c1       ??$assemble_floating_point_zero@M@__crt_strtox@@YAX_NAAM@Z 004333c1 f i libucrt:strtod.obj
 0001:000323d4       ??$assemble_floating_point_zero@N@__crt_strtox@@YAX_NAAN@Z 004333d4 f i libucrt:strtod.obj
 0001:0003261c       ??$convert_decimal_string_to_floating_type@M@__crt_strtox@@YA?AW4SLD_STATUS@@ABUfloating_point_string@0@AAM@Z 0043361c f i libucrt:strtod.obj
 0001:0003263d       ??$convert_decimal_string_to_floating_type@N@__crt_strtox@@YA?AW4SLD_STATUS@@ABUfloating_point_string@0@AAN@Z 0043363d f i libucrt:strtod.obj
 0001:0003265e       ??$convert_hexadecimal_string_to_floating_type@M@__crt_strtox@@YA?AW4SLD_STATUS@@ABUfloating_point_string@0@AAM@Z 0043365e f i libucrt:strtod.obj
 0001:0003267f       ??$convert_hexadecimal_string_to_floating_type@N@__crt_strtox@@YA?AW4SLD_STATUS@@ABUfloating_point_string@0@AAN@Z 0043367f f i libucrt:strtod.obj
 0001:000326a0       ??$make_c_string_character_source@DPAPAD@__crt_strtox@@YA?AV?$c_string_character_source@D@0@QBDQAPAD@Z 004336a0 f i libucrt:strtod.obj
 0001:000326bb       ??$make_c_string_character_source@_WPAPA_W@__crt_strtox@@YA?AV?$c_string_character_source@_W@0@QB_WQAPA_W@Z 004336bb f i libucrt:strtod.obj
 0001:000326d6       ??$parse_floating_point@V?$c_string_character_source@D@__crt_strtox@@M@__crt_strtox@@YA?AW4SLD_STATUS@@QAU__crt_locale_pointers@@V?$c_string_character_source@D@0@QAM@Z 004336d6 f i libucrt:strtod.obj
 0001:0003274a       ??$parse_floating_point@V?$c_string_character_source@D@__crt_strtox@@N@__crt_strtox@@YA?AW4SLD_STATUS@@QAU__crt_locale_pointers@@V?$c_string_character_source@D@0@QAN@Z 0043374a f i libucrt:strtod.obj
 0001:000327be       ??$parse_floating_point@V?$c_string_character_source@_W@__crt_strtox@@M@__crt_strtox@@YA?AW4SLD_STATUS@@QAU__crt_locale_pointers@@V?$c_string_character_source@_W@0@QAM@Z 004337be f i libucrt:strtod.obj
 0001:00032832       ??$parse_floating_point@V?$c_string_character_source@_W@__crt_strtox@@N@__crt_strtox@@YA?AW4SLD_STATUS@@QAU__crt_locale_pointers@@V?$c_string_character_source@_W@0@QAN@Z 00433832 f i libucrt:strtod.obj
 0001:000328a6       ??$parse_floating_point_from_source@V?$c_string_character_source@D@__crt_strtox@@@__crt_strtox@@YA?AW4floating_point_parse_result@0@QAU__crt_locale_pointers@@AAV?$c_string_character_source@D@0@AAUfloating_point_string@0@@Z 004338a6 f i libucrt:strtod.obj
 0001:00032c8f       ??$parse_floating_point_from_source@V?$c_string_character_source@_W@__crt_strtox@@@__crt_strtox@@YA?AW4floating_point_parse_result@0@QAU__crt_locale_pointers@@AAV?$c_string_character_source@_W@0@AAUfloating_point_string@0@@Z 00433c8f f i libucrt:strtod.obj
 0001:00033ab2       ??$parse_floating_point_possible_infinity@DV?$c_string_character_source@D@__crt_strtox@@PBD@__crt_strtox@@YA?AW4floating_point_parse_result@0@AADAAV?$c_string_character_source@D@0@PBD@Z 00434ab2 f i libucrt:strtod.obj
 0001:00033b54       ??$parse_floating_point_possible_infinity@_WV?$c_string_character_source@_W@__crt_strtox@@PB_W@__crt_strtox@@YA?AW4floating_point_parse_result@0@AA_WAAV?$c_string_character_source@_W@0@PB_W@Z 00434b54 f i libucrt:strtod.obj
 0001:00033c2b       ??$parse_floating_point_possible_nan@DV?$c_string_character_source@D@__crt_strtox@@PBD@__crt_strtox@@YA?AW4floating_point_parse_result@0@AADAAV?$c_string_character_source@D@0@PBD@Z 00434c2b f i libucrt:strtod.obj
 0001:00033d3a       ??$parse_floating_point_possible_nan@_WV?$c_string_character_source@_W@__crt_strtox@@PB_W@__crt_strtox@@YA?AW4floating_point_parse_result@0@AA_WAAV?$c_string_character_source@_W@0@PB_W@Z 00434d3a f i libucrt:strtod.obj
 0001:00033e88       ??$parse_floating_point_possible_nan_is_ind@DV?$c_string_character_source@D@__crt_strtox@@@__crt_strtox@@YA_NAADAAV?$c_string_character_source@D@0@@Z 00434e88 f i libucrt:strtod.obj
 0001:00033ec4       ??$parse_floating_point_possible_nan_is_ind@_WV?$c_string_character_source@_W@__crt_strtox@@@__crt_strtox@@YA_NAA_WAAV?$c_string_character_source@_W@0@@Z 00434ec4 f i libucrt:strtod.obj
 0001:00033f0b       ??$parse_floating_point_possible_nan_is_snan@DV?$c_string_character_source@D@__crt_strtox@@@__crt_strtox@@YA_NAADAAV?$c_string_character_source@D@0@@Z 00434f0b f i libucrt:strtod.obj
 0001:00033f47       ??$parse_floating_point_possible_nan_is_snan@_WV?$c_string_character_source@_W@__crt_strtox@@@__crt_strtox@@YA_NAA_WAAV?$c_string_character_source@_W@0@@Z 00434f47 f i libucrt:strtod.obj
 0001:00033f8e       ??$parse_floating_point_write_result@M@__crt_strtox@@YA?AW4SLD_STATUS@@W4floating_point_parse_result@0@ABUfloating_point_string@0@QAM@Z 00434f8e f i libucrt:strtod.obj
 0001:000340fa       ??$parse_floating_point_write_result@N@__crt_strtox@@YA?AW4SLD_STATUS@@W4floating_point_parse_result@0@ABUfloating_point_string@0@QAN@Z 004350fa f i libucrt:strtod.obj
 0001:0003421e       ??$parse_next_characters_from_source@DV?$c_string_character_source@D@__crt_strtox@@@__crt_strtox@@YA_NQBD0IAADAAV?$c_string_character_source@D@0@@Z 0043521e f i libucrt:strtod.obj
 0001:00034267       ??$parse_next_characters_from_source@_WV?$c_string_character_source@_W@__crt_strtox@@@__crt_strtox@@YA_NQB_W0IAA_WAAV?$c_string_character_source@_W@0@@Z 00435267 f i libucrt:strtod.obj
 0001:00034363       ??0?$c_string_character_source@D@__crt_strtox@@QAE@QBDQAPBD@Z 00435363 f i libucrt:strtod.obj
 0001:0003437f       ??0?$c_string_character_source@_W@__crt_strtox@@QAE@QB_WQAPB_W@Z 0043537f f i libucrt:strtod.obj
 0001:0003439b       ??0_LocaleUpdate@@QAE@QAU__crt_locale_pointers@@@Z 0043539b f i libucrt:strtod.obj
 0001:00034420       ??0big_integer@__crt_strtox@@QAE@ABU01@@Z 00435420 f i libucrt:strtod.obj
 0001:00034460       ??0big_integer@__crt_strtox@@QAE@XZ 00435460 f i libucrt:strtod.obj
 0001:00034469       ??0floating_point_value@__crt_strtox@@QAE@QAM@Z 00435469 f i libucrt:strtod.obj
 0001:0003447d       ??0floating_point_value@__crt_strtox@@QAE@QAN@Z 0043547d f i libucrt:strtod.obj
 0001:00034491       ??1?$c_string_character_source@D@__crt_strtox@@QAE@XZ 00435491 f i libucrt:strtod.obj
 0001:0003449d       ??1?$c_string_character_source@_W@__crt_strtox@@QAE@XZ 0043549d f i libucrt:strtod.obj
 0001:000344a9       ??1_LocaleUpdate@@QAE@XZ   004354a9 f i libucrt:strtod.obj
 0001:000344c0       ??4big_integer@__crt_strtox@@QAEAAU01@ABU01@@Z 004354c0 f i libucrt:strtod.obj
 0001:00034500       ??M__crt_strtox@@YA_NABUbig_integer@0@0@Z 00435500 f i libucrt:strtod.obj
 0001:0003463f       ?GetLocaleT@_LocaleUpdate@@QAEPAU__crt_locale_pointers@@XZ 0043563f f i libucrt:strtod.obj
 0001:00034643       ?accumulate_decimal_digits_into_big_integer@__crt_strtox@@YAXQBE0AAUbig_integer@1@@Z 00435643 f i libucrt:strtod.obj
 0001:00034c60       ?add@__crt_strtox@@YA_NAAUbig_integer@1@I@Z 00435c60 f i libucrt:strtod.obj
 0001:00034ce0       ?add_carry@__crt_strtox@@YAIAAIII@Z 00435ce0 f i libucrt:strtod.obj
 0001:00034d00       ?add_multiply_carry@__crt_strtox@@YAIAAIIII@Z 00435d00 f i libucrt:strtod.obj
 0001:00034d24       ?as_double@floating_point_value@__crt_strtox@@QBEAANXZ 00435d24 f i libucrt:strtod.obj
 0001:00034d49       ?as_float@floating_point_value@__crt_strtox@@QBEAAMXZ 00435d49 f i libucrt:strtod.obj
 0001:00034d6e       ?assemble_floating_point_infinity@__crt_strtox@@YAX_NABVfloating_point_value@1@@Z 00435d6e f i libucrt:strtod.obj
 0001:00034dae       ?assemble_floating_point_value@__crt_strtox@@YA?AW4SLD_STATUS@@_KH_N1ABVfloating_point_value@1@@Z 00435dae f i libucrt:strtod.obj
 0001:00035103       ?assemble_floating_point_value_from_big_integer@__crt_strtox@@YA?AW4SLD_STATUS@@ABUbig_integer@1@I_N1ABVfloating_point_value@1@@Z 00436103 f i libucrt:strtod.obj
 0001:00035297       ?assemble_floating_point_zero@__crt_strtox@@YAX_NABVfloating_point_value@1@@Z 00436297 f i libucrt:strtod.obj
 0001:000352d0       ?bit_scan_reverse@__crt_strtox@@YAIABUbig_integer@1@@Z 004362d0 f i libucrt:strtod.obj
 0001:00035310       ?bit_scan_reverse@__crt_strtox@@YAII@Z 00436310 f i libucrt:strtod.obj
 0001:00035330       ?bit_scan_reverse@__crt_strtox@@YAI_K@Z 00436330 f i libucrt:strtod.obj
 0001:00035377       ?convert_decimal_string_to_floating_type_common@__crt_strtox@@YA?AW4SLD_STATUS@@ABUfloating_point_string@1@ABVfloating_point_value@1@@Z 00436377 f i libucrt:strtod.obj
 0001:0003704b       ?convert_hexadecimal_string_to_floating_type_common@__crt_strtox@@YA?AW4SLD_STATUS@@ABUfloating_point_string@1@ABVfloating_point_value@1@@Z 0043804b f i libucrt:strtod.obj
 0001:00037100       ?count_sequential_high_zeroes@__crt_strtox@@YAII@Z 00438100 f i libucrt:strtod.obj
 0001:0003711b       ?denormal_mantissa_mask@floating_point_value@__crt_strtox@@QBE_KXZ 0043811b f i libucrt:strtod.obj
 0001:00037140       ?divide@__crt_strtox@@YA_KAAUbig_integer@1@ABU21@@Z 00438140 f i libucrt:strtod.obj
 0001:000375d8       ?exponent_bias@floating_point_value@__crt_strtox@@QBEHXZ 004385d8 f i libucrt:strtod.obj
 0001:000375ea       ?get@?$c_string_character_source@D@__crt_strtox@@QAEDXZ 004385ea f i libucrt:strtod.obj
 0001:000375f2       ?get@?$c_string_character_source@_W@__crt_strtox@@QAE_WXZ 004385f2 f i libucrt:strtod.obj
 0001:000375fd       ?is_digit_or_nondigit@__crt_strtox@@YA_NH@Z 004385fd f i libucrt:strtod.obj
 0001:0003762a       ?is_double@floating_point_value@__crt_strtox@@QBE_NXZ 0043862a f i libucrt:strtod.obj
 0001:0003762e       ?is_space@__crt_strtox@@YA_NDQAU__crt_locale_pointers@@@Z 0043862e f i libucrt:strtod.obj
 0001:0003764c       ?is_space@__crt_strtox@@YA_N_WPAU__crt_locale_pointers@@@Z 0043864c f i libucrt:strtod.obj
 0001:00037670       ?make_big_integer@__crt_strtox@@YA?AUbig_integer@1@_K@Z 00438670 f i libucrt:strtod.obj
 0001:00037690       ?mantissa_bits@floating_point_value@__crt_strtox@@QBEHXZ 00438690 f i libucrt:strtod.obj
 0001:000376a0       ?maximum_binary_exponent@floating_point_value@__crt_strtox@@QBEHXZ 004386a0 f i libucrt:strtod.obj
 0001:000376b2       ?minimum_binary_exponent@floating_point_value@__crt_strtox@@QBEHXZ 004386b2 f i libucrt:strtod.obj
 0001:000376d0       ?multiply@__crt_strtox@@YA_NAAUbig_integer@1@ABU21@@Z 004386d0 f i libucrt:strtod.obj
 0001:00037a10       ?multiply@__crt_strtox@@YA_NAAUbig_integer@1@I@Z 00438a10 f i libucrt:strtod.obj
 0001:00037ae0       ?multiply_64_32@__crt_strtox@@YA_K_KI@Z 00438ae0 f i libucrt:strtod.obj
 0001:00037b00       ?multiply_by_power_of_ten@__crt_strtox@@YA_NAAUbig_integer@1@I@Z 00438b00 f i libucrt:strtod.obj
 0001:00038030       ?multiply_core@__crt_strtox@@YAIQAIII@Z 00439030 f i libucrt:strtod.obj
 0001:0003806e       ?normal_mantissa_mask@floating_point_value@__crt_strtox@@QBE_KXZ 0043906e f i libucrt:strtod.obj
 0001:00038085       ?parse_digit@__crt_strtox@@YAID@Z 00439085 f i libucrt:strtod.obj
 0001:000380bf       ?parse_digit@__crt_strtox@@YAI_W@Z 004390bf f i libucrt:strtod.obj
 0001:0003829e       ?restore_state@?$c_string_character_source@D@__crt_strtox@@QAE_NQBD@Z 0043929e f i libucrt:strtod.obj
 0001:000382ae       ?restore_state@?$c_string_character_source@_W@__crt_strtox@@QAE_NQB_W@Z 004392ae f i libucrt:strtod.obj
 0001:000382be       ?right_shift_with_rounding@__crt_strtox@@YA_K_N_KI0@Z 004392be f i libucrt:strtod.obj
 0001:000383a9       ?save_state@?$c_string_character_source@D@__crt_strtox@@QBEPBDXZ 004393a9 f i libucrt:strtod.obj
 0001:000383ac       ?save_state@?$c_string_character_source@_W@__crt_strtox@@QBEPB_WXZ 004393ac f i libucrt:strtod.obj
 0001:000383b0       ?shift_left@__crt_strtox@@YA_NAAUbig_integer@1@I@Z 004393b0 f i libucrt:strtod.obj
 0001:000384df       ?should_round_up@__crt_strtox@@YA_N_N000@Z 004394df f i libucrt:strtod.obj
 0001:0003852c       ?unget@?$c_string_character_source@D@__crt_strtox@@QAEXD@Z 0043952c f i libucrt:strtod.obj
 0001:00038555       ?unget@?$c_string_character_source@_W@__crt_strtox@@QAEX_W@Z 00439555 f i libucrt:strtod.obj
 0001:00038583       ?validate@?$c_string_character_source@D@__crt_strtox@@QBE_NXZ 00439583 f i libucrt:strtod.obj
 0001:0003859e       ?validate@?$c_string_character_source@_W@__crt_strtox@@QBE_NXZ 0043959e f i libucrt:strtod.obj
 0001:000385b9       ?wide_character_to_digit@__crt_strtox@@YAH_W@Z 004395b9 f i libucrt:strtod.obj
 0001:0003875a       ___acrt_disable_global_locale_sync 0043975a f i libucrt:strtod.obj
 0001:0003876d       ___acrt_enable_global_locale_sync 0043976d f i libucrt:strtod.obj
 0001:00038782       ___acrt_get_locale_data_prefix 00439782 f i libucrt:strtod.obj
 0001:0003878e       ___acrt_locale_changed     0043978e f i libucrt:strtod.obj
 0001:00038799       ___acrt_locale_get_ctype_array_value 00439799 f i libucrt:strtod.obj
 0001:000387bb       ___ascii_iswalpha          004397bb f i libucrt:strtod.obj
 0001:000387de       ___ascii_toupper           004397de f i libucrt:strtod.obj
 0001:000387f5       ___ascii_towupper          004397f5 f i libucrt:strtod.obj
 0001:0003880c       __chvalidchk_l             0043980c f i libucrt:strtod.obj
 0001:00038834       __ischartype_l             00439834 f i libucrt:strtod.obj
 0001:00038888       __strtod_l                 00439888 f   libucrt:strtod.obj
 0001:00038893       __strtof_l                 00439893 f   libucrt:strtod.obj
 0001:0003889e       __strtold_l                0043989e f   libucrt:strtod.obj
 0001:000388a9       __wcstod_l                 004398a9 f   libucrt:strtod.obj
 0001:000388b4       __wcstof_l                 004398b4 f   libucrt:strtod.obj
 0001:000388bf       __wcstold_l                004398bf f   libucrt:strtod.obj
 0001:0003894b       _strtod                    0043994b f   libucrt:strtod.obj
 0001:00038962       _strtof                    00439962 f   libucrt:strtod.obj
 0001:00038979       _strtold                   00439979 f   libucrt:strtod.obj
 0001:00038990       _wcstod                    00439990 f   libucrt:strtod.obj
 0001:000389a7       _wcstof                    004399a7 f   libucrt:strtod.obj
 0001:000389be       _wcstold                   004399be f   libucrt:strtod.obj
 0001:000389d5       ??$?RPAU__crt_stdio_stream_data@@@__crt_internal_free_policy@@QBEXQBQAU__crt_stdio_stream_data@@@Z 004399d5 f i libucrt:_file.obj
 0001:000389e7       ??0?$__crt_unique_heap_ptr@PAU__crt_stdio_stream_data@@U__crt_internal_free_policy@@@@QAE@QAPAU__crt_stdio_stream_data@@@Z 004399e7 f i libucrt:_file.obj
 0001:000389f7       ??0__crt_stdio_stream@@QAE@QAU_iobuf@@@Z 004399f7 f i libucrt:_file.obj
 0001:00038a07       ??1?$__crt_unique_heap_ptr@PAU__crt_stdio_stream_data@@U__crt_internal_free_policy@@@@QAE@XZ 00439a07 f i libucrt:_file.obj
 0001:00038a19       ??C__crt_stdio_stream@@QBEPAU__crt_stdio_stream_data@@XZ 00439a19 f i libucrt:_file.obj
 0001:00038a1c       ?detach@?$__crt_unique_heap_ptr@PAU__crt_stdio_stream_data@@U__crt_internal_free_policy@@@@QAEPAPAU__crt_stdio_stream_data@@XZ 00439a1c f i libucrt:_file.obj
 0001:00038a22       ?release@?$__crt_unique_heap_ptr@PAU__crt_stdio_stream_data@@U__crt_internal_free_policy@@@@QAEXXZ 00439a22 f i libucrt:_file.obj
 0001:00038a34       ___acrt_initialize_stdio   00439a34 f   libucrt:_file.obj
 0001:00038afc       ___acrt_iob_func           00439afc f   libucrt:_file.obj
 0001:00038b0c       ___acrt_uninitialize_stdio 00439b0c f   libucrt:_file.obj
 0001:00038b58       __get_stream_buffer_pointers 00439b58 f   libucrt:_file.obj
 0001:00038b9e       __lock_file                00439b9e f   libucrt:_file.obj
 0001:00038bb2       __unlock_file              00439bb2 f   libucrt:_file.obj
 0001:00038bc6       ?get_flags@__crt_stdio_stream@@QBEJXZ 00439bc6 f i libucrt:fgetc.obj
 0001:00038bcd       ?is_string_backed@__crt_stdio_stream@@QBE_NXZ 00439bcd f i libucrt:fgetc.obj
 0001:00038bd9       ?public_stream@__crt_stdio_stream@@QBEPAU_iobuf@@XZ 00439bd9 f i libucrt:fgetc.obj
 0001:00038bdc       ?valid@__crt_stdio_stream@@QBE_NXZ 00439bdc f i libucrt:fgetc.obj
 0001:00038be3       __fgetc_nolock             00439be3 f   libucrt:fgetc.obj
 0001:00038c1f       __fgetchar                 00439c1f f   libucrt:fgetc.obj
 0001:00038c2f       __getc_nolock              00439c2f f   libucrt:fgetc.obj
 0001:00038c3a       _fgetc                     00439c3a f   libucrt:fgetc.obj
 0001:00038d42       _getc                      00439d42 f   libucrt:fgetc.obj
 0001:00038d4d       _getchar                   00439d4d f   libucrt:fgetc.obj
 0001:00038d52       ??$?0ABV?$stream_output_adapter@D@__crt_stdio_output@@AB_KABQBDABQAU__crt_locale_pointers@@ABQAD@?$format_validation_base@DV?$stream_output_adapter@D@__crt_stdio_output@@@__crt_stdio_output@@IAE@ABV?$stream_output_adapter@D@1@AB_KABQBDABQAU__crt_locale_pointers@@ABQAD@Z 00439d52 f i libucrt:output.obj
 0001:00038d75       ??$?0ABV?$stream_output_adapter@D@__crt_stdio_output@@AB_KABQBDABQAU__crt_locale_pointers@@ABQAD@?$positional_parameter_base@DV?$stream_output_adapter@D@__crt_stdio_output@@@__crt_stdio_output@@IAE@ABV?$stream_output_adapter@D@1@AB_KABQBDABQAU__crt_locale_pointers@@ABQAD@Z 00439d75 f i libucrt:output.obj
 0001:00038dbd       ??$?0ABV?$stream_output_adapter@D@__crt_stdio_output@@AB_KABQBDABQAU__crt_locale_pointers@@ABQAD@?$standard_base@DV?$stream_output_adapter@D@__crt_stdio_output@@@__crt_stdio_output@@IAE@ABV?$stream_output_adapter@D@1@AB_KABQBDABQAU__crt_locale_pointers@@ABQAD@Z 00439dbd f i libucrt:output.obj
 0001:00038df2       ??$?0ABV?$stream_output_adapter@_W@__crt_stdio_output@@AB_KABQB_WABQAU__crt_locale_pointers@@ABQAD@?$format_validation_base@_WV?$stream_output_adapter@_W@__crt_stdio_output@@@__crt_stdio_output@@IAE@ABV?$stream_output_adapter@_W@1@AB_KABQB_WABQAU__crt_locale_pointers@@ABQAD@Z 00439df2 f i libucrt:output.obj
 0001:00038e15       ??$?0ABV?$stream_output_adapter@_W@__crt_stdio_output@@AB_KABQB_WABQAU__crt_locale_pointers@@ABQAD@?$positional_parameter_base@_WV?$stream_output_adapter@_W@__crt_stdio_output@@@__crt_stdio_output@@IAE@ABV?$stream_output_adapter@_W@1@AB_KABQB_WABQAU__crt_locale_pointers@@ABQAD@Z 00439e15 f i libucrt:output.obj
 0001:00038e5d       ??$?0ABV?$stream_output_adapter@_W@__crt_stdio_output@@AB_KABQB_WABQAU__crt_locale_pointers@@ABQAD@?$standard_base@_WV?$stream_output_adapter@_W@__crt_stdio_output@@@__crt_stdio_output@@IAE@ABV?$stream_output_adapter@_W@1@AB_KABQB_WABQAU__crt_locale_pointers@@ABQAD@Z 00439e5d f i libucrt:output.obj
 0001:00038e92       ??$?0ABV?$string_output_adapter@D@__crt_stdio_output@@AB_KABQBDABQAU__crt_locale_pointers@@ABQAD@?$format_validation_base@DV?$string_output_adapter@D@__crt_stdio_output@@@__crt_stdio_output@@IAE@ABV?$string_output_adapter@D@1@AB_KABQBDABQAU__crt_locale_pointers@@ABQAD@Z 00439e92 f i libucrt:output.obj
 0001:00038eb5       ??$?0ABV?$string_output_adapter@D@__crt_stdio_output@@AB_KABQBDABQAU__crt_locale_pointers@@ABQAD@?$positional_parameter_base@DV?$string_output_adapter@D@__crt_stdio_output@@@__crt_stdio_output@@IAE@ABV?$string_output_adapter@D@1@AB_KABQBDABQAU__crt_locale_pointers@@ABQAD@Z 00439eb5 f i libucrt:output.obj
 0001:00038efd       ??$?0ABV?$string_output_adapter@D@__crt_stdio_output@@AB_KABQBDABQAU__crt_locale_pointers@@ABQAD@?$standard_base@DV?$string_output_adapter@D@__crt_stdio_output@@@__crt_stdio_output@@IAE@ABV?$string_output_adapter@D@1@AB_KABQBDABQAU__crt_locale_pointers@@ABQAD@Z 00439efd f i libucrt:output.obj
 0001:00038f32       ??$?0ABV?$string_output_adapter@_W@__crt_stdio_output@@AB_KABQB_WABQAU__crt_locale_pointers@@ABQAD@?$format_validation_base@_WV?$string_output_adapter@_W@__crt_stdio_output@@@__crt_stdio_output@@IAE@ABV?$string_output_adapter@_W@1@AB_KABQB_WABQAU__crt_locale_pointers@@ABQAD@Z 00439f32 f i libucrt:output.obj
 0001:00038f55       ??$?0ABV?$string_output_adapter@_W@__crt_stdio_output@@AB_KABQB_WABQAU__crt_locale_pointers@@ABQAD@?$positional_parameter_base@_WV?$string_output_adapter@_W@__crt_stdio_output@@@__crt_stdio_output@@IAE@ABV?$string_output_adapter@_W@1@AB_KABQB_WABQAU__crt_locale_pointers@@ABQAD@Z 00439f55 f i libucrt:output.obj
 0001:00038f9d       ??$?0ABV?$string_output_adapter@_W@__crt_stdio_output@@AB_KABQB_WABQAU__crt_locale_pointers@@ABQAD@?$standard_base@_WV?$string_output_adapter@_W@__crt_stdio_output@@@__crt_stdio_output@@IAE@ABV?$string_output_adapter@_W@1@AB_KABQB_WABQAU__crt_locale_pointers@@ABQAD@Z 00439f9d f i libucrt:output.obj
 0001:0003a197       ??$count@D@formatting_buffer@__crt_stdio_output@@QBEIXZ 0043b197 f i libucrt:output.obj
 0001:0003a1af       ??$count@_W@formatting_buffer@__crt_stdio_output@@QBEIXZ 0043b1af f i libucrt:output.obj
 0001:0003a1c8       ??$data@D@formatting_buffer@__crt_stdio_output@@QAEPADXZ 0043b1c8 f i libucrt:output.obj
 0001:0003a1d5       ??$data@_W@formatting_buffer@__crt_stdio_output@@QAEPA_WXZ 0043b1d5 f i libucrt:output.obj
 0001:0003a1e2       ??$ensure_buffer_is_big_enough@D@formatting_buffer@__crt_stdio_output@@QAE_NI@Z 0043b1e2 f i libucrt:output.obj
 0001:0003a25f       ??$ensure_buffer_is_big_enough@_W@formatting_buffer@__crt_stdio_output@@QAE_NI@Z 0043b25f f i libucrt:output.obj
 0001:0003a2dd       ??$extract_argument_from_va_list@C_J@?$positional_parameter_base@DV?$stream_output_adapter@D@__crt_stdio_output@@@__crt_stdio_output@@IAE_NAA_J@Z 0043b2dd f i libucrt:output.obj
 0001:0003a356       ??$extract_argument_from_va_list@C_J@?$positional_parameter_base@DV?$string_output_adapter@D@__crt_stdio_output@@@__crt_stdio_output@@IAE_NAA_J@Z 0043b356 f i libucrt:output.obj
 0001:0003a3cf       ??$extract_argument_from_va_list@C_J@?$positional_parameter_base@_WV?$stream_output_adapter@_W@__crt_stdio_output@@@__crt_stdio_output@@IAE_NAA_J@Z 0043b3cf f i libucrt:output.obj
 0001:0003a448       ??$extract_argument_from_va_list@C_J@?$positional_parameter_base@_WV?$string_output_adapter@_W@__crt_stdio_output@@@__crt_stdio_output@@IAE_NAA_J@Z 0043b448 f i libucrt:output.obj
 0001:0003a4c1       ??$extract_argument_from_va_list@C_J@?$standard_base@DV?$stream_output_adapter@D@__crt_stdio_output@@@__crt_stdio_output@@IAE_NAA_J@Z 0043b4c1 f i libucrt:output.obj
 0001:0003a4e0       ??$extract_argument_from_va_list@C_J@?$standard_base@DV?$string_output_adapter@D@__crt_stdio_output@@@__crt_stdio_output@@IAE_NAA_J@Z 0043b4e0 f i libucrt:output.obj
 0001:0003a4ff       ??$extract_argument_from_va_list@C_J@?$standard_base@_WV?$stream_output_adapter@_W@__crt_stdio_output@@@__crt_stdio_output@@IAE_NAA_J@Z 0043b4ff f i libucrt:output.obj
 0001:0003a51e       ??$extract_argument_from_va_list@C_J@?$standard_base@_WV?$string_output_adapter@_W@__crt_stdio_output@@@__crt_stdio_output@@IAE_NAA_J@Z 0043b51e f i libucrt:output.obj
 0001:0003a53d       ??$extract_argument_from_va_list@E_J@?$positional_parameter_base@DV?$stream_output_adapter@D@__crt_stdio_output@@@__crt_stdio_output@@IAE_NAA_J@Z 0043b53d f i libucrt:output.obj
 0001:0003a5b6       ??$extract_argument_from_va_list@E_J@?$positional_parameter_base@DV?$string_output_adapter@D@__crt_stdio_output@@@__crt_stdio_output@@IAE_NAA_J@Z 0043b5b6 f i libucrt:output.obj
 0001:0003a62f       ??$extract_argument_from_va_list@E_J@?$positional_parameter_base@_WV?$stream_output_adapter@_W@__crt_stdio_output@@@__crt_stdio_output@@IAE_NAA_J@Z 0043b62f f i libucrt:output.obj
 0001:0003a6a8       ??$extract_argument_from_va_list@E_J@?$positional_parameter_base@_WV?$string_output_adapter@_W@__crt_stdio_output@@@__crt_stdio_output@@IAE_NAA_J@Z 0043b6a8 f i libucrt:output.obj
 0001:0003a721       ??$extract_argument_from_va_list@E_J@?$standard_base@DV?$stream_output_adapter@D@__crt_stdio_output@@@__crt_stdio_output@@IAE_NAA_J@Z 0043b721 f i libucrt:output.obj
 0001:0003a740       ??$extract_argument_from_va_list@E_J@?$standard_base@DV?$string_output_adapter@D@__crt_stdio_output@@@__crt_stdio_output@@IAE_NAA_J@Z 0043b740 f i libucrt:output.obj
 0001:0003a75f       ??$extract_argument_from_va_list@E_J@?$standard_base@_WV?$stream_output_adapter@_W@__crt_stdio_output@@@__crt_stdio_output@@IAE_NAA_J@Z 0043b75f f i libucrt:output.obj
 0001:0003a77e       ??$extract_argument_from_va_list@E_J@?$standard_base@_WV?$string_output_adapter@_W@__crt_stdio_output@@@__crt_stdio_output@@IAE_NAA_J@Z 0043b77e f i libucrt:output.obj
 0001:0003a79d       ??$extract_argument_from_va_list@F_J@?$positional_parameter_base@DV?$stream_output_adapter@D@__crt_stdio_output@@@__crt_stdio_output@@IAE_NAA_J@Z 0043b79d f i libucrt:output.obj
 0001:0003a816       ??$extract_argument_from_va_list@F_J@?$positional_parameter_base@DV?$string_output_adapter@D@__crt_stdio_output@@@__crt_stdio_output@@IAE_NAA_J@Z 0043b816 f i libucrt:output.obj
 0001:0003a88f       ??$extract_argument_from_va_list@F_J@?$positional_parameter_base@_WV?$stream_output_adapter@_W@__crt_stdio_output@@@__crt_stdio_output@@IAE_NAA_J@Z 0043b88f f i libucrt:output.obj
 0001:0003a908       ??$extract_argument_from_va_list@F_J@?$positional_parameter_base@_WV?$string_output_adapter@_W@__crt_stdio_output@@@__crt_stdio_output@@IAE_NAA_J@Z 0043b908 f i libucrt:output.obj
 0001:0003a981       ??$extract_argument_from_va_list@F_J@?$standard_base@DV?$stream_output_adapter@D@__crt_stdio_output@@@__crt_stdio_output@@IAE_NAA_J@Z 0043b981 f i libucrt:output.obj
 0001:0003a9a0       ??$extract_argument_from_va_list@F_J@?$standard_base@DV?$string_output_adapter@D@__crt_stdio_output@@@__crt_stdio_output@@IAE_NAA_J@Z 0043b9a0 f i libucrt:output.obj
 0001:0003a9bf       ??$extract_argument_from_va_list@F_J@?$standard_base@_WV?$stream_output_adapter@_W@__crt_stdio_output@@@__crt_stdio_output@@IAE_NAA_J@Z 0043b9bf f i libucrt:output.obj
 0001:0003a9de       ??$extract_argument_from_va_list@F_J@?$standard_base@_WV?$string_output_adapter@_W@__crt_stdio_output@@@__crt_stdio_output@@IAE_NAA_J@Z 0043b9de f i libucrt:output.obj
 0001:0003a9fd       ??$extract_argument_from_va_list@GD@?$positional_parameter_base@DV?$stream_output_adapter@D@__crt_stdio_output@@@__crt_stdio_output@@IAE_NAAD@Z 0043b9fd f i libucrt:output.obj
 0001:0003aa75       ??$extract_argument_from_va_list@GD@?$positional_parameter_base@DV?$string_output_adapter@D@__crt_stdio_output@@@__crt_stdio_output@@IAE_NAAD@Z 0043ba75 f i libucrt:output.obj
 0001:0003aaed       ??$extract_argument_from_va_list@GD@?$standard_base@DV?$stream_output_adapter@D@__crt_stdio_output@@@__crt_stdio_output@@IAE_NAAD@Z 0043baed f i libucrt:output.obj
 0001:0003ab07       ??$extract_argument_from_va_list@GD@?$standard_base@DV?$string_output_adapter@D@__crt_stdio_output@@@__crt_stdio_output@@IAE_NAAD@Z 0043bb07 f i libucrt:output.obj
 0001:0003ab21       ??$extract_argument_from_va_list@G_J@?$positional_parameter_base@DV?$stream_output_adapter@D@__crt_stdio_output@@@__crt_stdio_output@@IAE_NAA_J@Z 0043bb21 f i libucrt:output.obj
 0001:0003ab9a       ??$extract_argument_from_va_list@G_J@?$positional_parameter_base@DV?$string_output_adapter@D@__crt_stdio_output@@@__crt_stdio_output@@IAE_NAA_J@Z 0043bb9a f i libucrt:output.obj
 0001:0003ac13       ??$extract_argument_from_va_list@G_J@?$positional_parameter_base@_WV?$stream_output_adapter@_W@__crt_stdio_output@@@__crt_stdio_output@@IAE_NAA_J@Z 0043bc13 f i libucrt:output.obj
 0001:0003ac8c       ??$extract_argument_from_va_list@G_J@?$positional_parameter_base@_WV?$string_output_adapter@_W@__crt_stdio_output@@@__crt_stdio_output@@IAE_NAA_J@Z 0043bc8c f i libucrt:output.obj
 0001:0003ad05       ??$extract_argument_from_va_list@G_J@?$standard_base@DV?$stream_output_adapter@D@__crt_stdio_output@@@__crt_stdio_output@@IAE_NAA_J@Z 0043bd05 f i libucrt:output.obj
 0001:0003ad24       ??$extract_argument_from_va_list@G_J@?$standard_base@DV?$string_output_adapter@D@__crt_stdio_output@@@__crt_stdio_output@@IAE_NAA_J@Z 0043bd24 f i libucrt:output.obj
 0001:0003ad43       ??$extract_argument_from_va_list@G_J@?$standard_base@_WV?$stream_output_adapter@_W@__crt_stdio_output@@@__crt_stdio_output@@IAE_NAA_J@Z 0043bd43 f i libucrt:output.obj
 0001:0003ad62       ??$extract_argument_from_va_list@G_J@?$standard_base@_WV?$string_output_adapter@_W@__crt_stdio_output@@@__crt_stdio_output@@IAE_NAA_J@Z 0043bd62 f i libucrt:output.obj
 0001:0003ad81       ??$extract_argument_from_va_list@H_J@?$positional_parameter_base@DV?$stream_output_adapter@D@__crt_stdio_output@@@__crt_stdio_output@@IAE_NAA_J@Z 0043bd81 f i libucrt:output.obj
 0001:0003adf8       ??$extract_argument_from_va_list@H_J@?$positional_parameter_base@DV?$string_output_adapter@D@__crt_stdio_output@@@__crt_stdio_output@@IAE_NAA_J@Z 0043bdf8 f i libucrt:output.obj
 0001:0003ae6f       ??$extract_argument_from_va_list@H_J@?$positional_parameter_base@_WV?$stream_output_adapter@_W@__crt_stdio_output@@@__crt_stdio_output@@IAE_NAA_J@Z 0043be6f f i libucrt:output.obj
 0001:0003aee6       ??$extract_argument_from_va_list@H_J@?$positional_parameter_base@_WV?$string_output_adapter@_W@__crt_stdio_output@@@__crt_stdio_output@@IAE_NAA_J@Z 0043bee6 f i libucrt:output.obj
 0001:0003af5d       ??$extract_argument_from_va_list@H_J@?$standard_base@DV?$stream_output_adapter@D@__crt_stdio_output@@@__crt_stdio_output@@IAE_NAA_J@Z 0043bf5d f i libucrt:output.obj
 0001:0003af7b       ??$extract_argument_from_va_list@H_J@?$standard_base@DV?$string_output_adapter@D@__crt_stdio_output@@@__crt_stdio_output@@IAE_NAA_J@Z 0043bf7b f i libucrt:output.obj
 0001:0003af99       ??$extract_argument_from_va_list@H_J@?$standard_base@_WV?$stream_output_adapter@_W@__crt_stdio_output@@@__crt_stdio_output@@IAE_NAA_J@Z 0043bf99 f i libucrt:output.obj
 0001:0003afb7       ??$extract_argument_from_va_list@H_J@?$standard_base@_WV?$string_output_adapter@_W@__crt_stdio_output@@@__crt_stdio_output@@IAE_NAA_J@Z 0043bfb7 f i libucrt:output.obj
 0001:0003afd5       ??$extract_argument_from_va_list@I_J@?$positional_parameter_base@DV?$stream_output_adapter@D@__crt_stdio_output@@@__crt_stdio_output@@IAE_NAA_J@Z 0043bfd5 f i libucrt:output.obj
 0001:0003b055       ??$extract_argument_from_va_list@I_J@?$positional_parameter_base@DV?$string_output_adapter@D@__crt_stdio_output@@@__crt_stdio_output@@IAE_NAA_J@Z 0043c055 f i libucrt:output.obj
 0001:0003b0d5       ??$extract_argument_from_va_list@I_J@?$positional_parameter_base@_WV?$stream_output_adapter@_W@__crt_stdio_output@@@__crt_stdio_output@@IAE_NAA_J@Z 0043c0d5 f i libucrt:output.obj
 0001:0003b155       ??$extract_argument_from_va_list@I_J@?$positional_parameter_base@_WV?$string_output_adapter@_W@__crt_stdio_output@@@__crt_stdio_output@@IAE_NAA_J@Z 0043c155 f i libucrt:output.obj
 0001:0003b1d5       ??$extract_argument_from_va_list@I_J@?$standard_base@DV?$stream_output_adapter@D@__crt_stdio_output@@@__crt_stdio_output@@IAE_NAA_J@Z 0043c1d5 f i libucrt:output.obj
 0001:0003b1f3       ??$extract_argument_from_va_list@I_J@?$standard_base@DV?$string_output_adapter@D@__crt_stdio_output@@@__crt_stdio_output@@IAE_NAA_J@Z 0043c1f3 f i libucrt:output.obj
 0001:0003b211       ??$extract_argument_from_va_list@I_J@?$standard_base@_WV?$stream_output_adapter@_W@__crt_stdio_output@@@__crt_stdio_output@@IAE_NAA_J@Z 0043c211 f i libucrt:output.obj
 0001:0003b22f       ??$extract_argument_from_va_list@I_J@?$standard_base@_WV?$string_output_adapter@_W@__crt_stdio_output@@@__crt_stdio_output@@IAE_NAA_J@Z 0043c22f f i libucrt:output.obj
 0001:0003b24d       ??$extract_argument_from_va_list@PADPAD@?$positional_parameter_base@DV?$stream_output_adapter@D@__crt_stdio_output@@@__crt_stdio_output@@IAE_NAAPAD@Z 0043c24d f i libucrt:output.obj
 0001:0003b2c5       ??$extract_argument_from_va_list@PADPAD@?$positional_parameter_base@DV?$string_output_adapter@D@__crt_stdio_output@@@__crt_stdio_output@@IAE_NAAPAD@Z 0043c2c5 f i libucrt:output.obj
 0001:0003b33d       ??$extract_argument_from_va_list@PADPAD@?$positional_parameter_base@_WV?$stream_output_adapter@_W@__crt_stdio_output@@@__crt_stdio_output@@IAE_NAAPAD@Z 0043c33d f i libucrt:output.obj
 0001:0003b3b5       ??$extract_argument_from_va_list@PADPAD@?$positional_parameter_base@_WV?$string_output_adapter@_W@__crt_stdio_output@@@__crt_stdio_output@@IAE_NAAPAD@Z 0043c3b5 f i libucrt:output.obj
 0001:0003b42d       ??$extract_argument_from_va_list@PADPAD@?$standard_base@DV?$stream_output_adapter@D@__crt_stdio_output@@@__crt_stdio_output@@IAE_NAAPAD@Z 0043c42d f i libucrt:output.obj
 0001:0003b447       ??$extract_argument_from_va_list@PADPAD@?$standard_base@DV?$string_output_adapter@D@__crt_stdio_output@@@__crt_stdio_output@@IAE_NAAPAD@Z 0043c447 f i libucrt:output.obj
 0001:0003b461       ??$extract_argument_from_va_list@PADPAD@?$standard_base@_WV?$stream_output_adapter@_W@__crt_stdio_output@@@__crt_stdio_output@@IAE_NAAPAD@Z 0043c461 f i libucrt:output.obj
 0001:0003b47b       ??$extract_argument_from_va_list@PADPAD@?$standard_base@_WV?$string_output_adapter@_W@__crt_stdio_output@@@__crt_stdio_output@@IAE_NAAPAD@Z 0043c47b f i libucrt:output.obj
 0001:0003b495       ??$extract_argument_from_va_list@PAUansi_string@?1??type_case_Z@?$output_processor@DV?$stream_output_adapter@D@__crt_stdio_output@@V?$format_validation_base@DV?$stream_output_adapter@D@__crt_stdio_output@@@2@@__crt_stdio_output@@AAE_NXZ@PAU1?1??234@AAE_NXZ@@?$standard_base@DV?$stream_output_adapter@D@__crt_stdio_output@@@__crt_stdio_output@@IAE_NAAPAUansi_string@?1??type_case_Z@?$output_processor@DV?$stream_output_adapter@D@__crt_stdio_output@@V?$format_validation_base@DV?$stream_output_adapter@D@__crt_stdio_output@@@2@@1@AAE_NXZ@@Z 0043c495 f i libucrt:output.obj
 0001:0003b4af       ??$extract_argument_from_va_list@PAUansi_string@?1??type_case_Z@?$output_processor@DV?$stream_output_adapter@D@__crt_stdio_output@@V?$positional_parameter_base@DV?$stream_output_adapter@D@__crt_stdio_output@@@2@@__crt_stdio_output@@AAE_NXZ@PAU1?1??234@AAE_NXZ@@?$positional_parameter_base@DV?$stream_output_adapter@D@__crt_stdio_output@@@__crt_stdio_output@@IAE_NAAPAUansi_string@?1??type_case_Z@?$output_processor@DV?$stream_output_adapter@D@__crt_stdio_output@@V?$positional_parameter_base@DV?$stream_output_adapter@D@__crt_stdio_output@@@2@@1@AAE_NXZ@@Z 0043c4af f i libucrt:output.obj
 0001:0003b527       ??$extract_argument_from_va_list@PAUansi_string@?1??type_case_Z@?$output_processor@DV?$stream_output_adapter@D@__crt_stdio_output@@V?$positional_parameter_base@DV?$stream_output_adapter@D@__crt_stdio_output@@@2@@__crt_stdio_output@@AAE_NXZ@PAU1?1??234@AAE_NXZ@@?$standard_base@DV?$stream_output_adapter@D@__crt_stdio_output@@@__crt_stdio_output@@IAE_NAAPAUansi_string@?1??type_case_Z@?$output_processor@DV?$stream_output_adapter@D@__crt_stdio_output@@V?$positional_parameter_base@DV?$stream_output_adapter@D@__crt_stdio_output@@@2@@1@AAE_NXZ@@Z 0043c527 f i libucrt:output.obj
 0001:0003b541       ??$extract_argument_from_va_list@PAUansi_string@?1??type_case_Z@?$output_processor@DV?$stream_output_adapter@D@__crt_stdio_output@@V?$standard_base@DV?$stream_output_adapter@D@__crt_stdio_output@@@2@@__crt_stdio_output@@AAE_NXZ@PAU1?1??234@AAE_NXZ@@?$standard_base@DV?$stream_output_adapter@D@__crt_stdio_output@@@__crt_stdio_output@@IAE_NAAPAUansi_string@?1??type_case_Z@?$output_processor@DV?$stream_output_adapter@D@__crt_stdio_output@@V?$standard_base@DV?$stream_output_adapter@D@__crt_stdio_output@@@2@@1@AAE_NXZ@@Z 0043c541 f i libucrt:output.obj
 0001:0003b55b       ??$extract_argument_from_va_list@PAUansi_string@?1??type_case_Z@?$output_processor@DV?$string_output_adapter@D@__crt_stdio_output@@V?$format_validation_base@DV?$string_output_adapter@D@__crt_stdio_output@@@2@@__crt_stdio_output@@AAE_NXZ@PAU1?1??234@AAE_NXZ@@?$standard_base@DV?$string_output_adapter@D@__crt_stdio_output@@@__crt_stdio_output@@IAE_NAAPAUansi_string@?1??type_case_Z@?$output_processor@DV?$string_output_adapter@D@__crt_stdio_output@@V?$format_validation_base@DV?$string_output_adapter@D@__crt_stdio_output@@@2@@1@AAE_NXZ@@Z 0043c55b f i libucrt:output.obj
 0001:0003b575       ??$extract_argument_from_va_list@PAUansi_string@?1??type_case_Z@?$output_processor@DV?$string_output_adapter@D@__crt_stdio_output@@V?$positional_parameter_base@DV?$string_output_adapter@D@__crt_stdio_output@@@2@@__crt_stdio_output@@AAE_NXZ@PAU1?1??234@AAE_NXZ@@?$positional_parameter_base@DV?$string_output_adapter@D@__crt_stdio_output@@@__crt_stdio_output@@IAE_NAAPAUansi_string@?1??type_case_Z@?$output_processor@DV?$string_output_adapter@D@__crt_stdio_output@@V?$positional_parameter_base@DV?$string_output_adapter@D@__crt_stdio_output@@@2@@1@AAE_NXZ@@Z 0043c575 f i libucrt:output.obj
 0001:0003b5ed       ??$extract_argument_from_va_list@PAUansi_string@?1??type_case_Z@?$output_processor@DV?$string_output_adapter@D@__crt_stdio_output@@V?$positional_parameter_base@DV?$string_output_adapter@D@__crt_stdio_output@@@2@@__crt_stdio_output@@AAE_NXZ@PAU1?1??234@AAE_NXZ@@?$standard_base@DV?$string_output_adapter@D@__crt_stdio_output@@@__crt_stdio_output@@IAE_NAAPAUansi_string@?1??type_case_Z@?$output_processor@DV?$string_output_adapter@D@__crt_stdio_output@@V?$positional_parameter_base@DV?$string_output_adapter@D@__crt_stdio_output@@@2@@1@AAE_NXZ@@Z 0043c5ed f i libucrt:output.obj
 0001:0003b607       ??$extract_argument_from_va_list@PAUansi_string@?1??type_case_Z@?$output_processor@DV?$string_output_adapter@D@__crt_stdio_output@@V?$standard_base@DV?$string_output_adapter@D@__crt_stdio_output@@@2@@__crt_stdio_output@@AAE_NXZ@PAU1?1??234@AAE_NXZ@@?$standard_base@DV?$string_output_adapter@D@__crt_stdio_output@@@__crt_stdio_output@@IAE_NAAPAUansi_string@?1??type_case_Z@?$output_processor@DV?$string_output_adapter@D@__crt_stdio_output@@V?$standard_base@DV?$string_output_adapter@D@__crt_stdio_output@@@2@@1@AAE_NXZ@@Z 0043c607 f i libucrt:output.obj
 0001:0003b621       ??$extract_argument_from_va_list@PAUansi_string@?1??type_case_Z@?$output_processor@_WV?$stream_output_adapter@_W@__crt_stdio_output@@V?$format_validation_base@_WV?$stream_output_adapter@_W@__crt_stdio_output@@@2@@__crt_stdio_output@@AAE_NXZ@PAU1?1??234@AAE_NXZ@@?$standard_base@_WV?$stream_output_adapter@_W@__crt_stdio_output@@@__crt_stdio_output@@IAE_NAAPAUansi_string@?1??type_case_Z@?$output_processor@_WV?$stream_output_adapter@_W@__crt_stdio_output@@V?$format_validation_base@_WV?$stream_output_adapter@_W@__crt_stdio_output@@@2@@1@AAE_NXZ@@Z 0043c621 f i libucrt:output.obj
 0001:0003b63b       ??$extract_argument_from_va_list@PAUansi_string@?1??type_case_Z@?$output_processor@_WV?$stream_output_adapter@_W@__crt_stdio_output@@V?$positional_parameter_base@_WV?$stream_output_adapter@_W@__crt_stdio_output@@@2@@__crt_stdio_output@@AAE_NXZ@PAU1?1??234@AAE_NXZ@@?$positional_parameter_base@_WV?$stream_output_adapter@_W@__crt_stdio_output@@@__crt_stdio_output@@IAE_NAAPAUansi_string@?1??type_case_Z@?$output_processor@_WV?$stream_output_adapter@_W@__crt_stdio_output@@V?$positional_parameter_base@_WV?$stream_output_adapter@_W@__crt_stdio_output@@@2@@1@AAE_NXZ@@Z 0043c63b f i libucrt:output.obj
 0001:0003b6b3       ??$extract_argument_from_va_list@PAUansi_string@?1??type_case_Z@?$output_processor@_WV?$stream_output_adapter@_W@__crt_stdio_output@@V?$positional_parameter_base@_WV?$stream_output_adapter@_W@__crt_stdio_output@@@2@@__crt_stdio_output@@AAE_NXZ@PAU1?1??234@AAE_NXZ@@?$standard_base@_WV?$stream_output_adapter@_W@__crt_stdio_output@@@__crt_stdio_output@@IAE_NAAPAUansi_string@?1??type_case_Z@?$output_processor@_WV?$stream_output_adapter@_W@__crt_stdio_output@@V?$positional_parameter_base@_WV?$stream_output_adapter@_W@__crt_stdio_output@@@2@@1@AAE_NXZ@@Z 0043c6b3 f i libucrt:output.obj
 0001:0003b6cd       ??$extract_argument_from_va_list@PAUansi_string@?1??type_case_Z@?$output_processor@_WV?$stream_output_adapter@_W@__crt_stdio_output@@V?$standard_base@_WV?$stream_output_adapter@_W@__crt_stdio_output@@@2@@__crt_stdio_output@@AAE_NXZ@PAU1?1??234@AAE_NXZ@@?$standard_base@_WV?$stream_output_adapter@_W@__crt_stdio_output@@@__crt_stdio_output@@IAE_NAAPAUansi_string@?1??type_case_Z@?$output_processor@_WV?$stream_output_adapter@_W@__crt_stdio_output@@V?$standard_base@_WV?$stream_output_adapter@_W@__crt_stdio_output@@@2@@1@AAE_NXZ@@Z 0043c6cd f i libucrt:output.obj
 0001:0003b6e7       ??$extract_argument_from_va_list@PAUansi_string@?1??type_case_Z@?$output_processor@_WV?$string_output_adapter@_W@__crt_stdio_output@@V?$format_validation_base@_WV?$string_output_adapter@_W@__crt_stdio_output@@@2@@__crt_stdio_output@@AAE_NXZ@PAU1?1??234@AAE_NXZ@@?$standard_base@_WV?$string_output_adapter@_W@__crt_stdio_output@@@__crt_stdio_output@@IAE_NAAPAUansi_string@?1??type_case_Z@?$output_processor@_WV?$string_output_adapter@_W@__crt_stdio_output@@V?$format_validation_base@_WV?$string_output_adapter@_W@__crt_stdio_output@@@2@@1@AAE_NXZ@@Z 0043c6e7 f i libucrt:output.obj
 0001:0003b701       ??$extract_argument_from_va_list@PAUansi_string@?1??type_case_Z@?$output_processor@_WV?$string_output_adapter@_W@__crt_stdio_output@@V?$positional_parameter_base@_WV?$string_output_adapter@_W@__crt_stdio_output@@@2@@__crt_stdio_output@@AAE_NXZ@PAU1?1??234@AAE_NXZ@@?$positional_parameter_base@_WV?$string_output_adapter@_W@__crt_stdio_output@@@__crt_stdio_output@@IAE_NAAPAUansi_string@?1??type_case_Z@?$output_processor@_WV?$string_output_adapter@_W@__crt_stdio_output@@V?$positional_parameter_base@_WV?$string_output_adapter@_W@__crt_stdio_output@@@2@@1@AAE_NXZ@@Z 0043c701 f i libucrt:output.obj
 0001:0003b779       ??$extract_argument_from_va_list@PAUansi_string@?1??type_case_Z@?$output_processor@_WV?$string_output_adapter@_W@__crt_stdio_output@@V?$positional_parameter_base@_WV?$string_output_adapter@_W@__crt_stdio_output@@@2@@__crt_stdio_output@@AAE_NXZ@PAU1?1??234@AAE_NXZ@@?$standard_base@_WV?$string_output_adapter@_W@__crt_stdio_output@@@__crt_stdio_output@@IAE_NAAPAUansi_string@?1??type_case_Z@?$output_processor@_WV?$string_output_adapter@_W@__crt_stdio_output@@V?$positional_parameter_base@_WV?$string_output_adapter@_W@__crt_stdio_output@@@2@@1@AAE_NXZ@@Z 0043c779 f i libucrt:output.obj
 0001:0003b793       ??$extract_argument_from_va_list@PAUansi_string@?1??type_case_Z@?$output_processor@_WV?$string_output_adapter@_W@__crt_stdio_output@@V?$standard_base@_WV?$string_output_adapter@_W@__crt_stdio_output@@@2@@__crt_stdio_output@@AAE_NXZ@PAU1?1??234@AAE_NXZ@@?$standard_base@_WV?$string_output_adapter@_W@__crt_stdio_output@@@__crt_stdio_output@@IAE_NAAPAUansi_string@?1??type_case_Z@?$output_processor@_WV?$string_output_adapter@_W@__crt_stdio_output@@V?$standard_base@_WV?$string_output_adapter@_W@__crt_stdio_output@@@2@@1@AAE_NXZ@@Z 0043c793 f i libucrt:output.obj
 0001:0003b7ad       ??$extract_argument_from_va_list@PAXPAX@?$positional_parameter_base@DV?$stream_output_adapter@D@__crt_stdio_output@@@__crt_stdio_output@@IAE_NAAPAX@Z 0043c7ad f i libucrt:output.obj
 0001:0003b825       ??$extract_argument_from_va_list@PAXPAX@?$positional_parameter_base@DV?$string_output_adapter@D@__crt_stdio_output@@@__crt_stdio_output@@IAE_NAAPAX@Z 0043c825 f i libucrt:output.obj
 0001:0003b89d       ??$extract_argument_from_va_list@PAXPAX@?$positional_parameter_base@_WV?$stream_output_adapter@_W@__crt_stdio_output@@@__crt_stdio_output@@IAE_NAAPAX@Z 0043c89d f i libucrt:output.obj
 0001:0003b915       ??$extract_argument_from_va_list@PAXPAX@?$positional_parameter_base@_WV?$string_output_adapter@_W@__crt_stdio_output@@@__crt_stdio_output@@IAE_NAAPAX@Z 0043c915 f i libucrt:output.obj
 0001:0003b98d       ??$extract_argument_from_va_list@PAXPAX@?$standard_base@DV?$stream_output_adapter@D@__crt_stdio_output@@@__crt_stdio_output@@IAE_NAAPAX@Z 0043c98d f i libucrt:output.obj
 0001:0003b9a7       ??$extract_argument_from_va_list@PAXPAX@?$standard_base@DV?$string_output_adapter@D@__crt_stdio_output@@@__crt_stdio_output@@IAE_NAAPAX@Z 0043c9a7 f i libucrt:output.obj
 0001:0003b9c1       ??$extract_argument_from_va_list@PAXPAX@?$standard_base@_WV?$stream_output_adapter@_W@__crt_stdio_output@@@__crt_stdio_output@@IAE_NAAPAX@Z 0043c9c1 f i libucrt:output.obj
 0001:0003b9db       ??$extract_argument_from_va_list@PAXPAX@?$standard_base@_WV?$string_output_adapter@_W@__crt_stdio_output@@@__crt_stdio_output@@IAE_NAAPAX@Z 0043c9db f i libucrt:output.obj
 0001:0003b9f5       ??$extract_argument_from_va_list@U_CRT_DOUBLE@@U1@@?$positional_parameter_base@DV?$stream_output_adapter@D@__crt_stdio_output@@@__crt_stdio_output@@IAE_NAAU_CRT_DOUBLE@@@Z 0043c9f5 f i libucrt:output.obj
 0001:0003ba7b       ??$extract_argument_from_va_list@U_CRT_DOUBLE@@U1@@?$positional_parameter_base@DV?$string_output_adapter@D@__crt_stdio_output@@@__crt_stdio_output@@IAE_NAAU_CRT_DOUBLE@@@Z 0043ca7b f i libucrt:output.obj
 0001:0003bb01       ??$extract_argument_from_va_list@U_CRT_DOUBLE@@U1@@?$positional_parameter_base@_WV?$stream_output_adapter@_W@__crt_stdio_output@@@__crt_stdio_output@@IAE_NAAU_CRT_DOUBLE@@@Z 0043cb01 f i libucrt:output.obj
 0001:0003bb87       ??$extract_argument_from_va_list@U_CRT_DOUBLE@@U1@@?$positional_parameter_base@_WV?$string_output_adapter@_W@__crt_stdio_output@@@__crt_stdio_output@@IAE_NAAU_CRT_DOUBLE@@@Z 0043cb87 f i libucrt:output.obj
 0001:0003bc0d       ??$extract_argument_from_va_list@U_CRT_DOUBLE@@U1@@?$standard_base@DV?$stream_output_adapter@D@__crt_stdio_output@@@__crt_stdio_output@@IAE_NAAU_CRT_DOUBLE@@@Z 0043cc0d f i libucrt:output.obj
 0001:0003bc2d       ??$extract_argument_from_va_list@U_CRT_DOUBLE@@U1@@?$standard_base@DV?$string_output_adapter@D@__crt_stdio_output@@@__crt_stdio_output@@IAE_NAAU_CRT_DOUBLE@@@Z 0043cc2d f i libucrt:output.obj
 0001:0003bc4d       ??$extract_argument_from_va_list@U_CRT_DOUBLE@@U1@@?$standard_base@_WV?$stream_output_adapter@_W@__crt_stdio_output@@@__crt_stdio_output@@IAE_NAAU_CRT_DOUBLE@@@Z 0043cc4d f i libucrt:output.obj
 0001:0003bc6d       ??$extract_argument_from_va_list@U_CRT_DOUBLE@@U1@@?$standard_base@_WV?$string_output_adapter@_W@__crt_stdio_output@@@__crt_stdio_output@@IAE_NAAU_CRT_DOUBLE@@@Z 0043cc6d f i libucrt:output.obj
 0001:0003bc8d       ??$extract_argument_from_va_list@_J_J@?$positional_parameter_base@DV?$stream_output_adapter@D@__crt_stdio_output@@@__crt_stdio_output@@IAE_NAA_J@Z 0043cc8d f i libucrt:output.obj
 0001:0003bd13       ??$extract_argument_from_va_list@_J_J@?$positional_parameter_base@DV?$string_output_adapter@D@__crt_stdio_output@@@__crt_stdio_output@@IAE_NAA_J@Z 0043cd13 f i libucrt:output.obj
 0001:0003bd99       ??$extract_argument_from_va_list@_J_J@?$positional_parameter_base@_WV?$stream_output_adapter@_W@__crt_stdio_output@@@__crt_stdio_output@@IAE_NAA_J@Z 0043cd99 f i libucrt:output.obj
 0001:0003be1f       ??$extract_argument_from_va_list@_J_J@?$positional_parameter_base@_WV?$string_output_adapter@_W@__crt_stdio_output@@@__crt_stdio_output@@IAE_NAA_J@Z 0043ce1f f i libucrt:output.obj
 0001:0003bea5       ??$extract_argument_from_va_list@_J_J@?$standard_base@DV?$stream_output_adapter@D@__crt_stdio_output@@@__crt_stdio_output@@IAE_NAA_J@Z 0043cea5 f i libucrt:output.obj
 0001:0003bec5       ??$extract_argument_from_va_list@_J_J@?$standard_base@DV?$string_output_adapter@D@__crt_stdio_output@@@__crt_stdio_output@@IAE_NAA_J@Z 0043cec5 f i libucrt:output.obj
 0001:0003bee5       ??$extract_argument_from_va_list@_J_J@?$standard_base@_WV?$stream_output_adapter@_W@__crt_stdio_output@@@__crt_stdio_output@@IAE_NAA_J@Z 0043cee5 f i libucrt:output.obj
 0001:0003bf05       ??$extract_argument_from_va_list@_J_J@?$standard_base@_WV?$string_output_adapter@_W@__crt_stdio_output@@@__crt_stdio_output@@IAE_NAA_J@Z 0043cf05 f i libucrt:output.obj
 0001:0003bf25       ??$extract_argument_from_va_list@_K_J@?$positional_parameter_base@DV?$stream_output_adapter@D@__crt_stdio_output@@@__crt_stdio_output@@IAE_NAA_J@Z 0043cf25 f i libucrt:output.obj
 0001:0003bfab       ??$extract_argument_from_va_list@_K_J@?$positional_parameter_base@DV?$string_output_adapter@D@__crt_stdio_output@@@__crt_stdio_output@@IAE_NAA_J@Z 0043cfab f i libucrt:output.obj
 0001:0003c031       ??$extract_argument_from_va_list@_K_J@?$positional_parameter_base@_WV?$stream_output_adapter@_W@__crt_stdio_output@@@__crt_stdio_output@@IAE_NAA_J@Z 0043d031 f i libucrt:output.obj
 0001:0003c0b7       ??$extract_argument_from_va_list@_K_J@?$positional_parameter_base@_WV?$string_output_adapter@_W@__crt_stdio_output@@@__crt_stdio_output@@IAE_NAA_J@Z 0043d0b7 f i libucrt:output.obj
 0001:0003c13d       ??$extract_argument_from_va_list@_K_J@?$standard_base@DV?$stream_output_adapter@D@__crt_stdio_output@@@__crt_stdio_output@@IAE_NAA_J@Z 0043d13d f i libucrt:output.obj
 0001:0003c15d       ??$extract_argument_from_va_list@_K_J@?$standard_base@DV?$string_output_adapter@D@__crt_stdio_output@@@__crt_stdio_output@@IAE_NAA_J@Z 0043d15d f i libucrt:output.obj
 0001:0003c17d       ??$extract_argument_from_va_list@_K_J@?$standard_base@_WV?$stream_output_adapter@_W@__crt_stdio_output@@@__crt_stdio_output@@IAE_NAA_J@Z 0043d17d f i libucrt:output.obj
 0001:0003c19d       ??$extract_argument_from_va_list@_K_J@?$standard_base@_WV?$string_output_adapter@_W@__crt_stdio_output@@@__crt_stdio_output@@IAE_NAA_J@Z 0043d19d f i libucrt:output.obj
 0001:0003c1bd       ??$extract_argument_from_va_list@_W_W@?$positional_parameter_base@DV?$stream_output_adapter@D@__crt_stdio_output@@@__crt_stdio_output@@IAE_NAA_W@Z 0043d1bd f i libucrt:output.obj
 0001:0003c239       ??$extract_argument_from_va_list@_W_W@?$positional_parameter_base@DV?$string_output_adapter@D@__crt_stdio_output@@@__crt_stdio_output@@IAE_NAA_W@Z 0043d239 f i libucrt:output.obj
 0001:0003c2b5       ??$extract_argument_from_va_list@_W_W@?$positional_parameter_base@_WV?$stream_output_adapter@_W@__crt_stdio_output@@@__crt_stdio_output@@IAE_NAA_W@Z 0043d2b5 f i libucrt:output.obj
 0001:0003c331       ??$extract_argument_from_va_list@_W_W@?$positional_parameter_base@_WV?$string_output_adapter@_W@__crt_stdio_output@@@__crt_stdio_output@@IAE_NAA_W@Z 0043d331 f i libucrt:output.obj
 0001:0003c3ad       ??$extract_argument_from_va_list@_W_W@?$standard_base@DV?$stream_output_adapter@D@__crt_stdio_output@@@__crt_stdio_output@@IAE_NAA_W@Z 0043d3ad f i libucrt:output.obj
 0001:0003c3c9       ??$extract_argument_from_va_list@_W_W@?$standard_base@DV?$string_output_adapter@D@__crt_stdio_output@@@__crt_stdio_output@@IAE_NAA_W@Z 0043d3c9 f i libucrt:output.obj
 0001:0003c3e5       ??$extract_argument_from_va_list@_W_W@?$standard_base@_WV?$stream_output_adapter@_W@__crt_stdio_output@@@__crt_stdio_output@@IAE_NAA_W@Z 0043d3e5 f i libucrt:output.obj
 0001:0003c401       ??$extract_argument_from_va_list@_W_W@?$standard_base@_WV?$string_output_adapter@_W@__crt_stdio_output@@@__crt_stdio_output@@IAE_NAA_W@Z 0043d401 f i libucrt:output.obj
 0001:0003c41d       ??$get_parameter_type@D@?$positional_parameter_base@DV?$stream_output_adapter@D@__crt_stdio_output@@@__crt_stdio_output@@CA?AW4parameter_type@01@PAD@Z 0043d41d f i libucrt:output.obj
 0001:0003c421       ??$get_parameter_type@D@?$positional_parameter_base@DV?$string_output_adapter@D@__crt_stdio_output@@@__crt_stdio_output@@CA?AW4parameter_type@01@PAD@Z 0043d421 f i libucrt:output.obj
 0001:0003c425       ??$get_parameter_type@D@?$positional_parameter_base@_WV?$stream_output_adapter@_W@__crt_stdio_output@@@__crt_stdio_output@@CA?AW4parameter_type@01@PAD@Z 0043d425 f i libucrt:output.obj
 0001:0003c429       ??$get_parameter_type@D@?$positional_parameter_base@_WV?$string_output_adapter@_W@__crt_stdio_output@@@__crt_stdio_output@@CA?AW4parameter_type@01@PAD@Z 0043d429 f i libucrt:output.obj
 0001:0003c42d       ??$get_parameter_type@Uansi_string@?1??type_case_Z@?$output_processor@DV?$stream_output_adapter@D@__crt_stdio_output@@V?$positional_parameter_base@DV?$stream_output_adapter@D@__crt_stdio_output@@@2@@__crt_stdio_output@@AAE_NXZ@@?$positional_parameter_base@DV?$stream_output_adapter@D@__crt_stdio_output@@@__crt_stdio_output@@CA?AW4parameter_type@01@PAUansi_string@?1??type_case_Z@?$output_processor@DV?$stream_output_adapter@D@__crt_stdio_output@@V?$positional_parameter_base@DV?$stream_output_adapter@D@__crt_stdio_output@@@2@@1@AAE_NXZ@@Z 0043d42d f i libucrt:output.obj
 0001:0003c431       ??$get_parameter_type@Uansi_string@?1??type_case_Z@?$output_processor@DV?$string_output_adapter@D@__crt_stdio_output@@V?$positional_parameter_base@DV?$string_output_adapter@D@__crt_stdio_output@@@2@@__crt_stdio_output@@AAE_NXZ@@?$positional_parameter_base@DV?$string_output_adapter@D@__crt_stdio_output@@@__crt_stdio_output@@CA?AW4parameter_type@01@PAUansi_string@?1??type_case_Z@?$output_processor@DV?$string_output_adapter@D@__crt_stdio_output@@V?$positional_parameter_base@DV?$string_output_adapter@D@__crt_stdio_output@@@2@@1@AAE_NXZ@@Z 0043d431 f i libucrt:output.obj
 0001:0003c435       ??$get_parameter_type@Uansi_string@?1??type_case_Z@?$output_processor@_WV?$stream_output_adapter@_W@__crt_stdio_output@@V?$positional_parameter_base@_WV?$stream_output_adapter@_W@__crt_stdio_output@@@2@@__crt_stdio_output@@AAE_NXZ@@?$positional_parameter_base@_WV?$stream_output_adapter@_W@__crt_stdio_output@@@__crt_stdio_output@@CA?AW4parameter_type@01@PAUansi_string@?1??type_case_Z@?$output_processor@_WV?$stream_output_adapter@_W@__crt_stdio_output@@V?$positional_parameter_base@_WV?$stream_output_adapter@_W@__crt_stdio_output@@@2@@1@AAE_NXZ@@Z 0043d435 f i libucrt:output.obj
 0001:0003c439       ??$get_parameter_type@Uansi_string@?1??type_case_Z@?$output_processor@_WV?$string_output_adapter@_W@__crt_stdio_output@@V?$positional_parameter_base@_WV?$string_output_adapter@_W@__crt_stdio_output@@@2@@__crt_stdio_output@@AAE_NXZ@@?$positional_parameter_base@_WV?$string_output_adapter@_W@__crt_stdio_output@@@__crt_stdio_output@@CA?AW4parameter_type@01@PAUansi_string@?1??type_case_Z@?$output_processor@_WV?$string_output_adapter@_W@__crt_stdio_output@@V?$positional_parameter_base@_WV?$string_output_adapter@_W@__crt_stdio_output@@@2@@1@AAE_NXZ@@Z 0043d439 f i libucrt:output.obj
 0001:0003c43d       ??$get_parameter_type@X@?$positional_parameter_base@DV?$stream_output_adapter@D@__crt_stdio_output@@@__crt_stdio_output@@CA?AW4parameter_type@01@PAX@Z 0043d43d f i libucrt:output.obj
 0001:0003c441       ??$get_parameter_type@X@?$positional_parameter_base@DV?$string_output_adapter@D@__crt_stdio_output@@@__crt_stdio_output@@CA?AW4parameter_type@01@PAX@Z 0043d441 f i libucrt:output.obj
 0001:0003c445       ??$get_parameter_type@X@?$positional_parameter_base@_WV?$stream_output_adapter@_W@__crt_stdio_output@@@__crt_stdio_output@@CA?AW4parameter_type@01@PAX@Z 0043d445 f i libucrt:output.obj
 0001:0003c449       ??$get_parameter_type@X@?$positional_parameter_base@_WV?$string_output_adapter@_W@__crt_stdio_output@@@__crt_stdio_output@@CA?AW4parameter_type@01@PAX@Z 0043d449 f i libucrt:output.obj
 0001:0003c44d       ??$is_character_specifier@D@?$positional_parameter_base@DV?$stream_output_adapter@D@__crt_stdio_output@@@__crt_stdio_output@@CA_ND@Z 0043d44d f i libucrt:output.obj
 0001:0003c465       ??$is_character_specifier@D@?$positional_parameter_base@DV?$string_output_adapter@D@__crt_stdio_output@@@__crt_stdio_output@@CA_ND@Z 0043d465 f i libucrt:output.obj
 0001:0003c47d       ??$is_character_specifier@_W@?$positional_parameter_base@_WV?$stream_output_adapter@_W@__crt_stdio_output@@@__crt_stdio_output@@CA_N_W@Z 0043d47d f i libucrt:output.obj
 0001:0003c498       ??$is_character_specifier@_W@?$positional_parameter_base@_WV?$string_output_adapter@_W@__crt_stdio_output@@@__crt_stdio_output@@CA_N_W@Z 0043d498 f i libucrt:output.obj
 0001:0003c4b3       ??$is_integral_specifier@D@?$positional_parameter_base@DV?$stream_output_adapter@D@__crt_stdio_output@@@__crt_stdio_output@@CA_ND@Z 0043d4b3 f i libucrt:output.obj
 0001:0003c4df       ??$is_integral_specifier@D@?$positional_parameter_base@DV?$string_output_adapter@D@__crt_stdio_output@@@__crt_stdio_output@@CA_ND@Z 0043d4df f i libucrt:output.obj
 0001:0003c50b       ??$is_integral_specifier@_W@?$positional_parameter_base@_WV?$stream_output_adapter@_W@__crt_stdio_output@@@__crt_stdio_output@@CA_N_W@Z 0043d50b f i libucrt:output.obj
 0001:0003c546       ??$is_integral_specifier@_W@?$positional_parameter_base@_WV?$string_output_adapter@_W@__crt_stdio_output@@@__crt_stdio_output@@CA_N_W@Z 0043d546 f i libucrt:output.obj
 0001:0003c581       ??$is_pointer_specifier@D@?$positional_parameter_base@DV?$stream_output_adapter@D@__crt_stdio_output@@@__crt_stdio_output@@CA_ND@Z 0043d581 f i libucrt:output.obj
 0001:0003c58f       ??$is_pointer_specifier@D@?$positional_parameter_base@DV?$string_output_adapter@D@__crt_stdio_output@@@__crt_stdio_output@@CA_ND@Z 0043d58f f i libucrt:output.obj
 0001:0003c59d       ??$is_pointer_specifier@_W@?$positional_parameter_base@_WV?$stream_output_adapter@_W@__crt_stdio_output@@@__crt_stdio_output@@CA_N_W@Z 0043d59d f i libucrt:output.obj
 0001:0003c5ac       ??$is_pointer_specifier@_W@?$positional_parameter_base@_WV?$string_output_adapter@_W@__crt_stdio_output@@@__crt_stdio_output@@CA_N_W@Z 0043d5ac f i libucrt:output.obj
 0001:0003c5bb       ??$is_string_specifier@D@?$positional_parameter_base@DV?$stream_output_adapter@D@__crt_stdio_output@@@__crt_stdio_output@@CA_ND@Z 0043d5bb f i libucrt:output.obj
 0001:0003c5d3       ??$is_string_specifier@D@?$positional_parameter_base@DV?$string_output_adapter@D@__crt_stdio_output@@@__crt_stdio_output@@CA_ND@Z 0043d5d3 f i libucrt:output.obj
 0001:0003c5eb       ??$is_string_specifier@_W@?$positional_parameter_base@_WV?$stream_output_adapter@_W@__crt_stdio_output@@@__crt_stdio_output@@CA_N_W@Z 0043d5eb f i libucrt:output.obj
 0001:0003c606       ??$is_string_specifier@_W@?$positional_parameter_base@_WV?$string_output_adapter@_W@__crt_stdio_output@@@__crt_stdio_output@@CA_N_W@Z 0043d606 f i libucrt:output.obj
 0001:0003c621       ??$is_wide_character_specifier@D@__crt_stdio_output@@YA_N_KDW4length_modifier@0@@Z 0043d621 f i libucrt:output.obj
 0001:0003c652       ??$is_wide_character_specifier@_W@__crt_stdio_output@@YA_N_K_WW4length_modifier@0@@Z 0043d652 f i libucrt:output.obj
 0001:0003c6a0       ??$peek_va_arg@C@__crt_stdio_output@@YACPAD@Z 0043d6a0 f i libucrt:output.obj
 0001:0003c6ac       ??$peek_va_arg@E@__crt_stdio_output@@YAEPAD@Z 0043d6ac f i libucrt:output.obj
 0001:0003c6b8       ??$peek_va_arg@F@__crt_stdio_output@@YAFPAD@Z 0043d6b8 f i libucrt:output.obj
 0001:0003c6c5       ??$peek_va_arg@G@__crt_stdio_output@@YAGPAD@Z 0043d6c5 f i libucrt:output.obj
 0001:0003c6d2       ??$peek_va_arg@H@__crt_stdio_output@@YAHPAD@Z 0043d6d2 f i libucrt:output.obj
 0001:0003c6de       ??$peek_va_arg@I@__crt_stdio_output@@YAIPAD@Z 0043d6de f i libucrt:output.obj
 0001:0003c6ea       ??$peek_va_arg@PAD@__crt_stdio_output@@YAPADPAD@Z 0043d6ea f i libucrt:output.obj
 0001:0003c6f6       ??$peek_va_arg@PAUansi_string@?1??type_case_Z@?$output_processor@DV?$stream_output_adapter@D@__crt_stdio_output@@V?$positional_parameter_base@DV?$stream_output_adapter@D@__crt_stdio_output@@@2@@__crt_stdio_output@@AAE_NXZ@@__crt_stdio_output@@YAPAUansi_string@?1??type_case_Z@?$output_processor@DV?$stream_output_adapter@D@__crt_stdio_output@@V?$positional_parameter_base@DV?$stream_output_adapter@D@__crt_stdio_output@@@2@@0@AAE_NXZ@PAD@Z 0043d6f6 f i libucrt:output.obj
 0001:0003c702       ??$peek_va_arg@PAUansi_string@?1??type_case_Z@?$output_processor@DV?$string_output_adapter@D@__crt_stdio_output@@V?$positional_parameter_base@DV?$string_output_adapter@D@__crt_stdio_output@@@2@@__crt_stdio_output@@AAE_NXZ@@__crt_stdio_output@@YAPAUansi_string@?1??type_case_Z@?$output_processor@DV?$string_output_adapter@D@__crt_stdio_output@@V?$positional_parameter_base@DV?$string_output_adapter@D@__crt_stdio_output@@@2@@0@AAE_NXZ@PAD@Z 0043d702 f i libucrt:output.obj
 0001:0003c70e       ??$peek_va_arg@PAUansi_string@?1??type_case_Z@?$output_processor@_WV?$stream_output_adapter@_W@__crt_stdio_output@@V?$positional_parameter_base@_WV?$stream_output_adapter@_W@__crt_stdio_output@@@2@@__crt_stdio_output@@AAE_NXZ@@__crt_stdio_output@@YAPAUansi_string@?1??type_case_Z@?$output_processor@_WV?$stream_output_adapter@_W@__crt_stdio_output@@V?$positional_parameter_base@_WV?$stream_output_adapter@_W@__crt_stdio_output@@@2@@0@AAE_NXZ@PAD@Z 0043d70e f i libucrt:output.obj
 0001:0003c71a       ??$peek_va_arg@PAUansi_string@?1??type_case_Z@?$output_processor@_WV?$string_output_adapter@_W@__crt_stdio_output@@V?$positional_parameter_base@_WV?$string_output_adapter@_W@__crt_stdio_output@@@2@@__crt_stdio_output@@AAE_NXZ@@__crt_stdio_output@@YAPAUansi_string@?1??type_case_Z@?$output_processor@_WV?$string_output_adapter@_W@__crt_stdio_output@@V?$positional_parameter_base@_WV?$string_output_adapter@_W@__crt_stdio_output@@@2@@0@AAE_NXZ@PAD@Z 0043d71a f i libucrt:output.obj
 0001:0003c726       ??$peek_va_arg@PAX@__crt_stdio_output@@YAPAXPAD@Z 0043d726 f i libucrt:output.obj
 0001:0003c732       ??$peek_va_arg@U_CRT_DOUBLE@@@__crt_stdio_output@@YA?AU_CRT_DOUBLE@@PAD@Z 0043d732 f i libucrt:output.obj
 0001:0003c741       ??$peek_va_arg@_J@__crt_stdio_output@@YA_JPAD@Z 0043d741 f i libucrt:output.obj
 0001:0003c750       ??$peek_va_arg@_K@__crt_stdio_output@@YA_KPAD@Z 0043d750 f i libucrt:output.obj
 0001:0003c75f       ??$peek_va_arg@_W@__crt_stdio_output@@YA_WPAD@Z 0043d75f f i libucrt:output.obj
 0001:0003c76c       ??$puttc_nolock@ABDPAU_iobuf@@@?$__crt_char_traits@D@@SAHABD$$QAPAU_iobuf@@@Z 0043d76c f i libucrt:output.obj
 0001:0003c786       ??$puttc_nolock@AB_WPAU_iobuf@@@?$__crt_char_traits@_W@@SAGAB_W$$QAPAU_iobuf@@@Z 0043d786 f i libucrt:output.obj
 0001:0003c7a0       ??$read_va_arg@C@__crt_stdio_output@@YACAAPAD@Z 0043d7a0 f i libucrt:output.obj
 0001:0003c7b2       ??$read_va_arg@E@__crt_stdio_output@@YAEAAPAD@Z 0043d7b2 f i libucrt:output.obj
 0001:0003c7c4       ??$read_va_arg@F@__crt_stdio_output@@YAFAAPAD@Z 0043d7c4 f i libucrt:output.obj
 0001:0003c7d7       ??$read_va_arg@G@__crt_stdio_output@@YAGAAPAD@Z 0043d7d7 f i libucrt:output.obj
 0001:0003c7ea       ??$read_va_arg@H@__crt_stdio_output@@YAHAAPAD@Z 0043d7ea f i libucrt:output.obj
 0001:0003c7fc       ??$read_va_arg@I@__crt_stdio_output@@YAIAAPAD@Z 0043d7fc f i libucrt:output.obj
 0001:0003c80e       ??$read_va_arg@PAD@__crt_stdio_output@@YAPADAAPAD@Z 0043d80e f i libucrt:output.obj
 0001:0003c820       ??$read_va_arg@PAUansi_string@?1??type_case_Z@?$output_processor@DV?$stream_output_adapter@D@__crt_stdio_output@@V?$format_validation_base@DV?$stream_output_adapter@D@__crt_stdio_output@@@2@@__crt_stdio_output@@AAE_NXZ@@__crt_stdio_output@@YAPAUansi_string@?1??type_case_Z@?$output_processor@DV?$stream_output_adapter@D@__crt_stdio_output@@V?$format_validation_base@DV?$stream_output_adapter@D@__crt_stdio_output@@@2@@0@AAE_NXZ@AAPAD@Z 0043d820 f i libucrt:output.obj
 0001:0003c832       ??$read_va_arg@PAUansi_string@?1??type_case_Z@?$output_processor@DV?$stream_output_adapter@D@__crt_stdio_output@@V?$positional_parameter_base@DV?$stream_output_adapter@D@__crt_stdio_output@@@2@@__crt_stdio_output@@AAE_NXZ@@__crt_stdio_output@@YAPAUansi_string@?1??type_case_Z@?$output_processor@DV?$stream_output_adapter@D@__crt_stdio_output@@V?$positional_parameter_base@DV?$stream_output_adapter@D@__crt_stdio_output@@@2@@0@AAE_NXZ@AAPAD@Z 0043d832 f i libucrt:output.obj
 0001:0003c844       ??$read_va_arg@PAUansi_string@?1??type_case_Z@?$output_processor@DV?$stream_output_adapter@D@__crt_stdio_output@@V?$standard_base@DV?$stream_output_adapter@D@__crt_stdio_output@@@2@@__crt_stdio_output@@AAE_NXZ@@__crt_stdio_output@@YAPAUansi_string@?1??type_case_Z@?$output_processor@DV?$stream_output_adapter@D@__crt_stdio_output@@V?$standard_base@DV?$stream_output_adapter@D@__crt_stdio_output@@@2@@0@AAE_NXZ@AAPAD@Z 0043d844 f i libucrt:output.obj
 0001:0003c856       ??$read_va_arg@PAUansi_string@?1??type_case_Z@?$output_processor@DV?$string_output_adapter@D@__crt_stdio_output@@V?$format_validation_base@DV?$string_output_adapter@D@__crt_stdio_output@@@2@@__crt_stdio_output@@AAE_NXZ@@__crt_stdio_output@@YAPAUansi_string@?1??type_case_Z@?$output_processor@DV?$string_output_adapter@D@__crt_stdio_output@@V?$format_validation_base@DV?$string_output_adapter@D@__crt_stdio_output@@@2@@0@AAE_NXZ@AAPAD@Z 0043d856 f i libucrt:output.obj
 0001:0003c868       ??$read_va_arg@PAUansi_string@?1??type_case_Z@?$output_processor@DV?$string_output_adapter@D@__crt_stdio_output@@V?$positional_parameter_base@DV?$string_output_adapter@D@__crt_stdio_output@@@2@@__crt_stdio_output@@AAE_NXZ@@__crt_stdio_output@@YAPAUansi_string@?1??type_case_Z@?$output_processor@DV?$string_output_adapter@D@__crt_stdio_output@@V?$positional_parameter_base@DV?$string_output_adapter@D@__crt_stdio_output@@@2@@0@AAE_NXZ@AAPAD@Z 0043d868 f i libucrt:output.obj
 0001:0003c87a       ??$read_va_arg@PAUansi_string@?1??type_case_Z@?$output_processor@DV?$string_output_adapter@D@__crt_stdio_output@@V?$standard_base@DV?$string_output_adapter@D@__crt_stdio_output@@@2@@__crt_stdio_output@@AAE_NXZ@@__crt_stdio_output@@YAPAUansi_string@?1??type_case_Z@?$output_processor@DV?$string_output_adapter@D@__crt_stdio_output@@V?$standard_base@DV?$string_output_adapter@D@__crt_stdio_output@@@2@@0@AAE_NXZ@AAPAD@Z 0043d87a f i libucrt:output.obj
 0001:0003c88c       ??$read_va_arg@PAUansi_string@?1??type_case_Z@?$output_processor@_WV?$stream_output_adapter@_W@__crt_stdio_output@@V?$format_validation_base@_WV?$stream_output_adapter@_W@__crt_stdio_output@@@2@@__crt_stdio_output@@AAE_NXZ@@__crt_stdio_output@@YAPAUansi_string@?1??type_case_Z@?$output_processor@_WV?$stream_output_adapter@_W@__crt_stdio_output@@V?$format_validation_base@_WV?$stream_output_adapter@_W@__crt_stdio_output@@@2@@0@AAE_NXZ@AAPAD@Z 0043d88c f i libucrt:output.obj
 0001:0003c89e       ??$read_va_arg@PAUansi_string@?1??type_case_Z@?$output_processor@_WV?$stream_output_adapter@_W@__crt_stdio_output@@V?$positional_parameter_base@_WV?$stream_output_adapter@_W@__crt_stdio_output@@@2@@__crt_stdio_output@@AAE_NXZ@@__crt_stdio_output@@YAPAUansi_string@?1??type_case_Z@?$output_processor@_WV?$stream_output_adapter@_W@__crt_stdio_output@@V?$positional_parameter_base@_WV?$stream_output_adapter@_W@__crt_stdio_output@@@2@@0@AAE_NXZ@AAPAD@Z 0043d89e f i libucrt:output.obj
 0001:0003c8b0       ??$read_va_arg@PAUansi_string@?1??type_case_Z@?$output_processor@_WV?$stream_output_adapter@_W@__crt_stdio_output@@V?$standard_base@_WV?$stream_output_adapter@_W@__crt_stdio_output@@@2@@__crt_stdio_output@@AAE_NXZ@@__crt_stdio_output@@YAPAUansi_string@?1??type_case_Z@?$output_processor@_WV?$stream_output_adapter@_W@__crt_stdio_output@@V?$standard_base@_WV?$stream_output_adapter@_W@__crt_stdio_output@@@2@@0@AAE_NXZ@AAPAD@Z 0043d8b0 f i libucrt:output.obj
 0001:0003c8c2       ??$read_va_arg@PAUansi_string@?1??type_case_Z@?$output_processor@_WV?$string_output_adapter@_W@__crt_stdio_output@@V?$format_validation_base@_WV?$string_output_adapter@_W@__crt_stdio_output@@@2@@__crt_stdio_output@@AAE_NXZ@@__crt_stdio_output@@YAPAUansi_string@?1??type_case_Z@?$output_processor@_WV?$string_output_adapter@_W@__crt_stdio_output@@V?$format_validation_base@_WV?$string_output_adapter@_W@__crt_stdio_output@@@2@@0@AAE_NXZ@AAPAD@Z 0043d8c2 f i libucrt:output.obj
 0001:0003c8d4       ??$read_va_arg@PAUansi_string@?1??type_case_Z@?$output_processor@_WV?$string_output_adapter@_W@__crt_stdio_output@@V?$positional_parameter_base@_WV?$string_output_adapter@_W@__crt_stdio_output@@@2@@__crt_stdio_output@@AAE_NXZ@@__crt_stdio_output@@YAPAUansi_string@?1??type_case_Z@?$output_processor@_WV?$string_output_adapter@_W@__crt_stdio_output@@V?$positional_parameter_base@_WV?$string_output_adapter@_W@__crt_stdio_output@@@2@@0@AAE_NXZ@AAPAD@Z 0043d8d4 f i libucrt:output.obj
 0001:0003c8e6       ??$read_va_arg@PAUansi_string@?1??type_case_Z@?$output_processor@_WV?$string_output_adapter@_W@__crt_stdio_output@@V?$standard_base@_WV?$string_output_adapter@_W@__crt_stdio_output@@@2@@__crt_stdio_output@@AAE_NXZ@@__crt_stdio_output@@YAPAUansi_string@?1??type_case_Z@?$output_processor@_WV?$string_output_adapter@_W@__crt_stdio_output@@V?$standard_base@_WV?$string_output_adapter@_W@__crt_stdio_output@@@2@@0@AAE_NXZ@AAPAD@Z 0043d8e6 f i libucrt:output.obj
 0001:0003c8f8       ??$read_va_arg@PAX@__crt_stdio_output@@YAPAXAAPAD@Z 0043d8f8 f i libucrt:output.obj
 0001:0003c90a       ??$read_va_arg@U_CRT_DOUBLE@@@__crt_stdio_output@@YA?AU_CRT_DOUBLE@@AAPAD@Z 0043d90a f i libucrt:output.obj
 0001:0003c920       ??$read_va_arg@_J@__crt_stdio_output@@YA_JAAPAD@Z 0043d920 f i libucrt:output.obj
 0001:0003c935       ??$read_va_arg@_K@__crt_stdio_output@@YA_KAAPAD@Z 0043d935 f i libucrt:output.obj
 0001:0003c94a       ??$read_va_arg@_W@__crt_stdio_output@@YA_WAAPAD@Z 0043d94a f i libucrt:output.obj
 0001:0003c95d       ??$scratch_count@D@formatting_buffer@__crt_stdio_output@@QBEIXZ 0043d95d f i libucrt:output.obj
 0001:0003c962       ??$scratch_data@D@formatting_buffer@__crt_stdio_output@@QAEPADXZ 0043d962 f i libucrt:output.obj
 0001:0003c980       ??$tcstol@AAPBDPAPADH@?$__crt_char_traits@D@@SAJAAPBD$$QAPAPAD$$QAH@Z 0043d980 f i libucrt:output.obj
 0001:0003c99e       ??$tcstol@AAPB_WPAPA_WH@?$__crt_char_traits@_W@@SAJAAPB_W$$QAPAPA_W$$QAH@Z 0043d99e f i libucrt:output.obj
 0001:0003c9bc       ??$tcstol@PBDPAPADH@?$__crt_char_traits@D@@SAJ$$QAPBD$$QAPAPAD$$QAH@Z 0043d9bc f i libucrt:output.obj
 0001:0003c9da       ??$tcstol@PB_WPAPA_WH@?$__crt_char_traits@_W@@SAJ$$QAPB_W$$QAPAPA_W$$QAH@Z 0043d9da f i libucrt:output.obj
 0001:0003c9f8       ??$type_case_integer_parse_into_buffer@I@?$output_processor@DV?$stream_output_adapter@D@__crt_stdio_output@@V?$format_validation_base@DV?$stream_output_adapter@D@__crt_stdio_output@@@2@@__crt_stdio_output@@AAEXII_N@Z 0043d9f8 f i libucrt:output.obj
 0001:0003ca6b       ??$type_case_integer_parse_into_buffer@I@?$output_processor@DV?$stream_output_adapter@D@__crt_stdio_output@@V?$positional_parameter_base@DV?$stream_output_adapter@D@__crt_stdio_output@@@2@@__crt_stdio_output@@AAEXII_N@Z 0043da6b f i libucrt:output.obj
 0001:0003cade       ??$type_case_integer_parse_into_buffer@I@?$output_processor@DV?$stream_output_adapter@D@__crt_stdio_output@@V?$standard_base@DV?$stream_output_adapter@D@__crt_stdio_output@@@2@@__crt_stdio_output@@AAEXII_N@Z 0043dade f i libucrt:output.obj
 0001:0003cb51       ??$type_case_integer_parse_into_buffer@I@?$output_processor@DV?$string_output_adapter@D@__crt_stdio_output@@V?$format_validation_base@DV?$string_output_adapter@D@__crt_stdio_output@@@2@@__crt_stdio_output@@AAEXII_N@Z 0043db51 f i libucrt:output.obj
 0001:0003cbc4       ??$type_case_integer_parse_into_buffer@I@?$output_processor@DV?$string_output_adapter@D@__crt_stdio_output@@V?$positional_parameter_base@DV?$string_output_adapter@D@__crt_stdio_output@@@2@@__crt_stdio_output@@AAEXII_N@Z 0043dbc4 f i libucrt:output.obj
 0001:0003cc37       ??$type_case_integer_parse_into_buffer@I@?$output_processor@DV?$string_output_adapter@D@__crt_stdio_output@@V?$standard_base@DV?$string_output_adapter@D@__crt_stdio_output@@@2@@__crt_stdio_output@@AAEXII_N@Z 0043dc37 f i libucrt:output.obj
 0001:0003ccaa       ??$type_case_integer_parse_into_buffer@I@?$output_processor@_WV?$stream_output_adapter@_W@__crt_stdio_output@@V?$format_validation_base@_WV?$stream_output_adapter@_W@__crt_stdio_output@@@2@@__crt_stdio_output@@AAEXII_N@Z 0043dcaa f i libucrt:output.obj
 0001:0003cd31       ??$type_case_integer_parse_into_buffer@I@?$output_processor@_WV?$stream_output_adapter@_W@__crt_stdio_output@@V?$positional_parameter_base@_WV?$stream_output_adapter@_W@__crt_stdio_output@@@2@@__crt_stdio_output@@AAEXII_N@Z 0043dd31 f i libucrt:output.obj
 0001:0003cdb8       ??$type_case_integer_parse_into_buffer@I@?$output_processor@_WV?$stream_output_adapter@_W@__crt_stdio_output@@V?$standard_base@_WV?$stream_output_adapter@_W@__crt_stdio_output@@@2@@__crt_stdio_output@@AAEXII_N@Z 0043ddb8 f i libucrt:output.obj
 0001:0003ce3f       ??$type_case_integer_parse_into_buffer@I@?$output_processor@_WV?$string_output_adapter@_W@__crt_stdio_output@@V?$format_validation_base@_WV?$string_output_adapter@_W@__crt_stdio_output@@@2@@__crt_stdio_output@@AAEXII_N@Z 0043de3f f i libucrt:output.obj
 0001:0003cec6       ??$type_case_integer_parse_into_buffer@I@?$output_processor@_WV?$string_output_adapter@_W@__crt_stdio_output@@V?$positional_parameter_base@_WV?$string_output_adapter@_W@__crt_stdio_output@@@2@@__crt_stdio_output@@AAEXII_N@Z 0043dec6 f i libucrt:output.obj
 0001:0003cf4d       ??$type_case_integer_parse_into_buffer@I@?$output_processor@_WV?$string_output_adapter@_W@__crt_stdio_output@@V?$standard_base@_WV?$string_output_adapter@_W@__crt_stdio_output@@@2@@__crt_stdio_output@@AAEXII_N@Z 0043df4d f i libucrt:output.obj
 0001:0003cfd4       ??$type_case_integer_parse_into_buffer@_K@?$output_processor@DV?$stream_output_adapter@D@__crt_stdio_output@@V?$format_validation_base@DV?$stream_output_adapter@D@__crt_stdio_output@@@2@@__crt_stdio_output@@AAEX_KI_N@Z 0043dfd4 f i libucrt:output.obj
 0001:0003d062       ??$type_case_integer_parse_into_buffer@_K@?$output_processor@DV?$stream_output_adapter@D@__crt_stdio_output@@V?$positional_parameter_base@DV?$stream_output_adapter@D@__crt_stdio_output@@@2@@__crt_stdio_output@@AAEX_KI_N@Z 0043e062 f i libucrt:output.obj
 0001:0003d0f0       ??$type_case_integer_parse_into_buffer@_K@?$output_processor@DV?$stream_output_adapter@D@__crt_stdio_output@@V?$standard_base@DV?$stream_output_adapter@D@__crt_stdio_output@@@2@@__crt_stdio_output@@AAEX_KI_N@Z 0043e0f0 f i libucrt:output.obj
 0001:0003d17e       ??$type_case_integer_parse_into_buffer@_K@?$output_processor@DV?$string_output_adapter@D@__crt_stdio_output@@V?$format_validation_base@DV?$string_output_adapter@D@__crt_stdio_output@@@2@@__crt_stdio_output@@AAEX_KI_N@Z 0043e17e f i libucrt:output.obj
 0001:0003d20c       ??$type_case_integer_parse_into_buffer@_K@?$output_processor@DV?$string_output_adapter@D@__crt_stdio_output@@V?$positional_parameter_base@DV?$string_output_adapter@D@__crt_stdio_output@@@2@@__crt_stdio_output@@AAEX_KI_N@Z 0043e20c f i libucrt:output.obj
 0001:0003d29a       ??$type_case_integer_parse_into_buffer@_K@?$output_processor@DV?$string_output_adapter@D@__crt_stdio_output@@V?$standard_base@DV?$string_output_adapter@D@__crt_stdio_output@@@2@@__crt_stdio_output@@AAEX_KI_N@Z 0043e29a f i libucrt:output.obj
 0001:0003d328       ??$type_case_integer_parse_into_buffer@_K@?$output_processor@_WV?$stream_output_adapter@_W@__crt_stdio_output@@V?$format_validation_base@_WV?$stream_output_adapter@_W@__crt_stdio_output@@@2@@__crt_stdio_output@@AAEX_KI_N@Z 0043e328 f i libucrt:output.obj
 0001:0003d3ca       ??$type_case_integer_parse_into_buffer@_K@?$output_processor@_WV?$stream_output_adapter@_W@__crt_stdio_output@@V?$positional_parameter_base@_WV?$stream_output_adapter@_W@__crt_stdio_output@@@2@@__crt_stdio_output@@AAEX_KI_N@Z 0043e3ca f i libucrt:output.obj
 0001:0003d46c       ??$type_case_integer_parse_into_buffer@_K@?$output_processor@_WV?$stream_output_adapter@_W@__crt_stdio_output@@V?$standard_base@_WV?$stream_output_adapter@_W@__crt_stdio_output@@@2@@__crt_stdio_output@@AAEX_KI_N@Z 0043e46c f i libucrt:output.obj
 0001:0003d50e       ??$type_case_integer_parse_into_buffer@_K@?$output_processor@_WV?$string_output_adapter@_W@__crt_stdio_output@@V?$format_validation_base@_WV?$string_output_adapter@_W@__crt_stdio_output@@@2@@__crt_stdio_output@@AAEX_KI_N@Z 0043e50e f i libucrt:output.obj
 0001:0003d5b0       ??$type_case_integer_parse_into_buffer@_K@?$output_processor@_WV?$string_output_adapter@_W@__crt_stdio_output@@V?$positional_parameter_base@_WV?$string_output_adapter@_W@__crt_stdio_output@@@2@@__crt_stdio_output@@AAEX_KI_N@Z 0043e5b0 f i libucrt:output.obj
 0001:0003d652       ??$type_case_integer_parse_into_buffer@_K@?$output_processor@_WV?$string_output_adapter@_W@__crt_stdio_output@@V?$standard_base@_WV?$string_output_adapter@_W@__crt_stdio_output@@@2@@__crt_stdio_output@@AAEX_KI_N@Z 0043e652 f i libucrt:output.obj
 0001:0003d6f4       ??$write_multiple_characters@V?$stream_output_adapter@D@__crt_stdio_output@@D@__crt_stdio_output@@YAXABV?$stream_output_adapter@D@0@DHQAH@Z 0043e6f4 f i libucrt:output.obj
 0001:0003d72f       ??$write_multiple_characters@V?$stream_output_adapter@_W@__crt_stdio_output@@D@__crt_stdio_output@@YAXABV?$stream_output_adapter@_W@0@DHQAH@Z 0043e72f f i libucrt:output.obj
 0001:0003d76f       ??$write_multiple_characters@V?$string_output_adapter@D@__crt_stdio_output@@D@__crt_stdio_output@@YAXABV?$string_output_adapter@D@0@DHQAH@Z 0043e76f f i libucrt:output.obj
 0001:0003d79b       ??$write_multiple_characters@V?$string_output_adapter@_W@__crt_stdio_output@@D@__crt_stdio_output@@YAXABV?$string_output_adapter@_W@0@DHQAH@Z 0043e79b f i libucrt:output.obj
 0001:0003d994       ??0?$common_data@D@__crt_stdio_output@@IAE@XZ 0043e994 f i libucrt:output.obj
 0001:0003d9d9       ??0?$common_data@_W@__crt_stdio_output@@IAE@XZ 0043e9d9 f i libucrt:output.obj
 0001:0003da23       ??0?$output_adapter_data@DV?$stream_output_adapter@D@__crt_stdio_output@@@__crt_stdio_output@@IAE@ABV?$stream_output_adapter@D@1@_KQBDQAU__crt_locale_pointers@@QAD@Z 0043ea23 f i libucrt:output.obj
 0001:0003da5f       ??0?$output_adapter_data@DV?$string_output_adapter@D@__crt_stdio_output@@@__crt_stdio_output@@IAE@ABV?$string_output_adapter@D@1@_KQBDQAU__crt_locale_pointers@@QAD@Z 0043ea5f f i libucrt:output.obj
 0001:0003da9b       ??0?$output_adapter_data@_WV?$stream_output_adapter@_W@__crt_stdio_output@@@__crt_stdio_output@@IAE@ABV?$stream_output_adapter@_W@1@_KQB_WQAU__crt_locale_pointers@@QAD@Z 0043ea9b f i libucrt:output.obj
 0001:0003dad7       ??0?$output_adapter_data@_WV?$string_output_adapter@_W@__crt_stdio_output@@@__crt_stdio_output@@IAE@ABV?$string_output_adapter@_W@1@_KQB_WQAU__crt_locale_pointers@@QAD@Z 0043ead7 f i libucrt:output.obj
 0001:0003db13       ??0?$output_processor@DV?$stream_output_adapter@D@__crt_stdio_output@@V?$format_validation_base@DV?$stream_output_adapter@D@__crt_stdio_output@@@2@@__crt_stdio_output@@QAE@ABV?$stream_output_adapter@D@1@_KQBDQAU__crt_locale_pointers@@QAD@Z 0043eb13 f i libucrt:output.obj
 0001:0003db40       ??0?$output_processor@DV?$stream_output_adapter@D@__crt_stdio_output@@V?$positional_parameter_base@DV?$stream_output_adapter@D@__crt_stdio_output@@@2@@__crt_stdio_output@@QAE@ABV?$stream_output_adapter@D@1@_KQBDQAU__crt_locale_pointers@@QAD@Z 0043eb40 f i libucrt:output.obj
 0001:0003db67       ??0?$output_processor@DV?$stream_output_adapter@D@__crt_stdio_output@@V?$standard_base@DV?$stream_output_adapter@D@__crt_stdio_output@@@2@@__crt_stdio_output@@QAE@ABV?$stream_output_adapter@D@1@_KQBDQAU__crt_locale_pointers@@QAD@Z 0043eb67 f i libucrt:output.obj
 0001:0003db94       ??0?$output_processor@DV?$string_output_adapter@D@__crt_stdio_output@@V?$format_validation_base@DV?$string_output_adapter@D@__crt_stdio_output@@@2@@__crt_stdio_output@@QAE@ABV?$string_output_adapter@D@1@_KQBDQAU__crt_locale_pointers@@QAD@Z 0043eb94 f i libucrt:output.obj
 0001:0003dbc1       ??0?$output_processor@DV?$string_output_adapter@D@__crt_stdio_output@@V?$positional_parameter_base@DV?$string_output_adapter@D@__crt_stdio_output@@@2@@__crt_stdio_output@@QAE@ABV?$string_output_adapter@D@1@_KQBDQAU__crt_locale_pointers@@QAD@Z 0043ebc1 f i libucrt:output.obj
 0001:0003dbe8       ??0?$output_processor@DV?$string_output_adapter@D@__crt_stdio_output@@V?$standard_base@DV?$string_output_adapter@D@__crt_stdio_output@@@2@@__crt_stdio_output@@QAE@ABV?$string_output_adapter@D@1@_KQBDQAU__crt_locale_pointers@@QAD@Z 0043ebe8 f i libucrt:output.obj
 0001:0003dc15       ??0?$output_processor@_WV?$stream_output_adapter@_W@__crt_stdio_output@@V?$format_validation_base@_WV?$stream_output_adapter@_W@__crt_stdio_output@@@2@@__crt_stdio_output@@QAE@ABV?$stream_output_adapter@_W@1@_KQB_WQAU__crt_locale_pointers@@QAD@Z 0043ec15 f i libucrt:output.obj
 0001:0003dc42       ??0?$output_processor@_WV?$stream_output_adapter@_W@__crt_stdio_output@@V?$positional_parameter_base@_WV?$stream_output_adapter@_W@__crt_stdio_output@@@2@@__crt_stdio_output@@QAE@ABV?$stream_output_adapter@_W@1@_KQB_WQAU__crt_locale_pointers@@QAD@Z 0043ec42 f i libucrt:output.obj
 0001:0003dc69       ??0?$output_processor@_WV?$stream_output_adapter@_W@__crt_stdio_output@@V?$standard_base@_WV?$stream_output_adapter@_W@__crt_stdio_output@@@2@@__crt_stdio_output@@QAE@ABV?$stream_output_adapter@_W@1@_KQB_WQAU__crt_locale_pointers@@QAD@Z 0043ec69 f i libucrt:output.obj
 0001:0003dc96       ??0?$output_processor@_WV?$string_output_adapter@_W@__crt_stdio_output@@V?$format_validation_base@_WV?$string_output_adapter@_W@__crt_stdio_output@@@2@@__crt_stdio_output@@QAE@ABV?$string_output_adapter@_W@1@_KQB_WQAU__crt_locale_pointers@@QAD@Z 0043ec96 f i libucrt:output.obj
 0001:0003dcc3       ??0?$output_processor@_WV?$string_output_adapter@_W@__crt_stdio_output@@V?$positional_parameter_base@_WV?$string_output_adapter@_W@__crt_stdio_output@@@2@@__crt_stdio_output@@QAE@ABV?$string_output_adapter@_W@1@_KQB_WQAU__crt_locale_pointers@@QAD@Z 0043ecc3 f i libucrt:output.obj
 0001:0003dcea       ??0?$output_processor@_WV?$string_output_adapter@_W@__crt_stdio_output@@V?$standard_base@_WV?$string_output_adapter@_W@__crt_stdio_output@@@2@@__crt_stdio_output@@QAE@ABV?$string_output_adapter@_W@1@_KQB_WQAU__crt_locale_pointers@@QAD@Z 0043ecea f i libucrt:output.obj
 0001:0003dd17       ??0?$stream_output_adapter@D@__crt_stdio_output@@QAE@QAU_iobuf@@@Z 0043ed17 f i libucrt:output.obj
 0001:0003dd27       ??0?$stream_output_adapter@_W@__crt_stdio_output@@QAE@QAU_iobuf@@@Z 0043ed27 f i libucrt:output.obj
 0001:0003dd37       ??0?$string_output_adapter@D@__crt_stdio_output@@QAE@QAU?$string_output_adapter_context@D@1@@Z 0043ed37 f i libucrt:output.obj
 0001:0003dd47       ??0?$string_output_adapter@_W@__crt_stdio_output@@QAE@QAU?$string_output_adapter_context@_W@1@@Z 0043ed47 f i libucrt:output.obj
 0001:0003dd57       ??0__acrt_stdio_temporary_buffering_guard@@QAE@QAU_iobuf@@@Z 0043ed57 f i libucrt:output.obj
 0001:0003dd75       ??0__crt_deferred_errno_cache@@QAE@XZ 0043ed75 f i libucrt:output.obj
 0001:0003dd7b       ??0__crt_errno_guard@@QAE@QAH@Z 0043ed7b f i libucrt:output.obj
 0001:0003dda0       ??0formatting_buffer@__crt_stdio_output@@QAE@XZ 0043eda0 f i libucrt:output.obj
 0001:0003ddb7       ??1?$common_data@D@__crt_stdio_output@@QAE@XZ 0043edb7 f i libucrt:output.obj
 0001:0003ddbf       ??1?$common_data@_W@__crt_stdio_output@@QAE@XZ 0043edbf f i libucrt:output.obj
 0001:0003ddc7       ??1?$format_validation_base@DV?$stream_output_adapter@D@__crt_stdio_output@@@__crt_stdio_output@@QAE@XZ 0043edc7 f i libucrt:output.obj
 0001:0003ddcf       ??1?$format_validation_base@DV?$string_output_adapter@D@__crt_stdio_output@@@__crt_stdio_output@@QAE@XZ 0043edcf f i libucrt:output.obj
 0001:0003ddd7       ??1?$format_validation_base@_WV?$stream_output_adapter@_W@__crt_stdio_output@@@__crt_stdio_output@@QAE@XZ 0043edd7 f i libucrt:output.obj
 0001:0003dddf       ??1?$format_validation_base@_WV?$string_output_adapter@_W@__crt_stdio_output@@@__crt_stdio_output@@QAE@XZ 0043eddf f i libucrt:output.obj
 0001:0003dde7       ??1?$output_adapter_data@DV?$stream_output_adapter@D@__crt_stdio_output@@@__crt_stdio_output@@QAE@XZ 0043ede7 f i libucrt:output.obj
 0001:0003ddef       ??1?$output_adapter_data@DV?$string_output_adapter@D@__crt_stdio_output@@@__crt_stdio_output@@QAE@XZ 0043edef f i libucrt:output.obj
 0001:0003ddf7       ??1?$output_adapter_data@_WV?$stream_output_adapter@_W@__crt_stdio_output@@@__crt_stdio_output@@QAE@XZ 0043edf7 f i libucrt:output.obj
 0001:0003ddff       ??1?$output_adapter_data@_WV?$string_output_adapter@_W@__crt_stdio_output@@@__crt_stdio_output@@QAE@XZ 0043edff f i libucrt:output.obj
 0001:0003de07       ??1?$output_processor@DV?$stream_output_adapter@D@__crt_stdio_output@@V?$format_validation_base@DV?$stream_output_adapter@D@__crt_stdio_output@@@2@@__crt_stdio_output@@QAE@XZ 0043ee07 f i libucrt:output.obj
 0001:0003de0f       ??1?$output_processor@DV?$stream_output_adapter@D@__crt_stdio_output@@V?$positional_parameter_base@DV?$stream_output_adapter@D@__crt_stdio_output@@@2@@__crt_stdio_output@@QAE@XZ 0043ee0f f i libucrt:output.obj
 0001:0003de17       ??1?$output_processor@DV?$stream_output_adapter@D@__crt_stdio_output@@V?$standard_base@DV?$stream_output_adapter@D@__crt_stdio_output@@@2@@__crt_stdio_output@@QAE@XZ 0043ee17 f i libucrt:output.obj
 0001:0003de1f       ??1?$output_processor@DV?$string_output_adapter@D@__crt_stdio_output@@V?$format_validation_base@DV?$string_output_adapter@D@__crt_stdio_output@@@2@@__crt_stdio_output@@QAE@XZ 0043ee1f f i libucrt:output.obj
 0001:0003de27       ??1?$output_processor@DV?$string_output_adapter@D@__crt_stdio_output@@V?$positional_parameter_base@DV?$string_output_adapter@D@__crt_stdio_output@@@2@@__crt_stdio_output@@QAE@XZ 0043ee27 f i libucrt:output.obj
 0001:0003de2f       ??1?$output_processor@DV?$string_output_adapter@D@__crt_stdio_output@@V?$standard_base@DV?$string_output_adapter@D@__crt_stdio_output@@@2@@__crt_stdio_output@@QAE@XZ 0043ee2f f i libucrt:output.obj
 0001:0003de37       ??1?$output_processor@_WV?$stream_output_adapter@_W@__crt_stdio_output@@V?$format_validation_base@_WV?$stream_output_adapter@_W@__crt_stdio_output@@@2@@__crt_stdio_output@@QAE@XZ 0043ee37 f i libucrt:output.obj
 0001:0003de3f       ??1?$output_processor@_WV?$stream_output_adapter@_W@__crt_stdio_output@@V?$positional_parameter_base@_WV?$stream_output_adapter@_W@__crt_stdio_output@@@2@@__crt_stdio_output@@QAE@XZ 0043ee3f f i libucrt:output.obj
 0001:0003de47       ??1?$output_processor@_WV?$stream_output_adapter@_W@__crt_stdio_output@@V?$standard_base@_WV?$stream_output_adapter@_W@__crt_stdio_output@@@2@@__crt_stdio_output@@QAE@XZ 0043ee47 f i libucrt:output.obj
 0001:0003de4f       ??1?$output_processor@_WV?$string_output_adapter@_W@__crt_stdio_output@@V?$format_validation_base@_WV?$string_output_adapter@_W@__crt_stdio_output@@@2@@__crt_stdio_output@@QAE@XZ 0043ee4f f i libucrt:output.obj
 0001:0003de57       ??1?$output_processor@_WV?$string_output_adapter@_W@__crt_stdio_output@@V?$positional_parameter_base@_WV?$string_output_adapter@_W@__crt_stdio_output@@@2@@__crt_stdio_output@@QAE@XZ 0043ee57 f i libucrt:output.obj
 0001:0003de5f       ??1?$output_processor@_WV?$string_output_adapter@_W@__crt_stdio_output@@V?$standard_base@_WV?$string_output_adapter@_W@__crt_stdio_output@@@2@@__crt_stdio_output@@QAE@XZ 0043ee5f f i libucrt:output.obj
 0001:0003de67       ??1?$positional_parameter_base@DV?$stream_output_adapter@D@__crt_stdio_output@@@__crt_stdio_output@@QAE@XZ 0043ee67 f i libucrt:output.obj
 0001:0003de6f       ??1?$positional_parameter_base@DV?$string_output_adapter@D@__crt_stdio_output@@@__crt_stdio_output@@QAE@XZ 0043ee6f f i libucrt:output.obj
 0001:0003de77       ??1?$positional_parameter_base@_WV?$stream_output_adapter@_W@__crt_stdio_output@@@__crt_stdio_output@@QAE@XZ 0043ee77 f i libucrt:output.obj
 0001:0003de7f       ??1?$positional_parameter_base@_WV?$string_output_adapter@_W@__crt_stdio_output@@@__crt_stdio_output@@QAE@XZ 0043ee7f f i libucrt:output.obj
 0001:0003de87       ??1?$standard_base@DV?$stream_output_adapter@D@__crt_stdio_output@@@__crt_stdio_output@@QAE@XZ 0043ee87 f i libucrt:output.obj
 0001:0003de8f       ??1?$standard_base@DV?$string_output_adapter@D@__crt_stdio_output@@@__crt_stdio_output@@QAE@XZ 0043ee8f f i libucrt:output.obj
 0001:0003de97       ??1?$standard_base@_WV?$stream_output_adapter@_W@__crt_stdio_output@@@__crt_stdio_output@@QAE@XZ 0043ee97 f i libucrt:output.obj
 0001:0003de9f       ??1?$standard_base@_WV?$string_output_adapter@_W@__crt_stdio_output@@@__crt_stdio_output@@QAE@XZ 0043ee9f f i libucrt:output.obj
 0001:0003dea7       ??1__acrt_stdio_temporary_buffering_guard@@QAE@XZ 0043eea7 f i libucrt:output.obj
 0001:0003deb6       ??1__crt_errno_guard@@QAE@XZ 0043eeb6 f i libucrt:output.obj
 0001:0003dec7       ??1formatting_buffer@__crt_stdio_output@@QAE@XZ 0043eec7 f i libucrt:output.obj
 0001:0003dee1       ??4?$__crt_unique_heap_ptr@DU__crt_internal_free_policy@@@@QAEAAV0@$$QAV0@@Z 0043eee1 f i libucrt:output.obj
 0001:0003df05       ??A?$spectre_mitigated_lookup_table@Ustate_transition_pair@__crt_stdio_output@@$0IA@@__crt_stdio_output@@QBEABUstate_transition_pair@1@I@Z 0043ef05 f i libucrt:output.obj
 0001:0003e467       ?adjust_hexit@?$output_processor@DV?$stream_output_adapter@D@__crt_stdio_output@@V?$format_validation_base@DV?$stream_output_adapter@D@__crt_stdio_output@@@2@@__crt_stdio_output@@CADH_N@Z 0043f467 f i libucrt:output.obj
 0001:0003e47b       ?adjust_hexit@?$output_processor@DV?$stream_output_adapter@D@__crt_stdio_output@@V?$positional_parameter_base@DV?$stream_output_adapter@D@__crt_stdio_output@@@2@@__crt_stdio_output@@CADH_N@Z 0043f47b f i libucrt:output.obj
 0001:0003e48f       ?adjust_hexit@?$output_processor@DV?$stream_output_adapter@D@__crt_stdio_output@@V?$standard_base@DV?$stream_output_adapter@D@__crt_stdio_output@@@2@@__crt_stdio_output@@CADH_N@Z 0043f48f f i libucrt:output.obj
 0001:0003e4a3       ?adjust_hexit@?$output_processor@DV?$string_output_adapter@D@__crt_stdio_output@@V?$format_validation_base@DV?$string_output_adapter@D@__crt_stdio_output@@@2@@__crt_stdio_output@@CADH_N@Z 0043f4a3 f i libucrt:output.obj
 0001:0003e4b7       ?adjust_hexit@?$output_processor@DV?$string_output_adapter@D@__crt_stdio_output@@V?$positional_parameter_base@DV?$string_output_adapter@D@__crt_stdio_output@@@2@@__crt_stdio_output@@CADH_N@Z 0043f4b7 f i libucrt:output.obj
 0001:0003e4cb       ?adjust_hexit@?$output_processor@DV?$string_output_adapter@D@__crt_stdio_output@@V?$standard_base@DV?$string_output_adapter@D@__crt_stdio_output@@@2@@__crt_stdio_output@@CADH_N@Z 0043f4cb f i libucrt:output.obj
 0001:0003e4df       ?adjust_hexit@?$output_processor@_WV?$stream_output_adapter@_W@__crt_stdio_output@@V?$format_validation_base@_WV?$stream_output_adapter@_W@__crt_stdio_output@@@2@@__crt_stdio_output@@CADH_N@Z 0043f4df f i libucrt:output.obj
 0001:0003e4f3       ?adjust_hexit@?$output_processor@_WV?$stream_output_adapter@_W@__crt_stdio_output@@V?$positional_parameter_base@_WV?$stream_output_adapter@_W@__crt_stdio_output@@@2@@__crt_stdio_output@@CADH_N@Z 0043f4f3 f i libucrt:output.obj
 0001:0003e507       ?adjust_hexit@?$output_processor@_WV?$stream_output_adapter@_W@__crt_stdio_output@@V?$standard_base@_WV?$stream_output_adapter@_W@__crt_stdio_output@@@2@@__crt_stdio_output@@CADH_N@Z 0043f507 f i libucrt:output.obj
 0001:0003e51b       ?adjust_hexit@?$output_processor@_WV?$string_output_adapter@_W@__crt_stdio_output@@V?$format_validation_base@_WV?$string_output_adapter@_W@__crt_stdio_output@@@2@@__crt_stdio_output@@CADH_N@Z 0043f51b f i libucrt:output.obj
 0001:0003e52f       ?adjust_hexit@?$output_processor@_WV?$string_output_adapter@_W@__crt_stdio_output@@V?$positional_parameter_base@_WV?$string_output_adapter@_W@__crt_stdio_output@@@2@@__crt_stdio_output@@CADH_N@Z 0043f52f f i libucrt:output.obj
 0001:0003e543       ?adjust_hexit@?$output_processor@_WV?$string_output_adapter@_W@__crt_stdio_output@@V?$standard_base@_WV?$string_output_adapter@_W@__crt_stdio_output@@@2@@__crt_stdio_output@@CADH_N@Z 0043f543 f i libucrt:output.obj
 0001:0003e557       ?advance_to_next_pass@?$positional_parameter_base@DV?$stream_output_adapter@D@__crt_stdio_output@@@__crt_stdio_output@@IAE_NXZ 0043f557 f i libucrt:output.obj
 0001:0003e5a3       ?advance_to_next_pass@?$positional_parameter_base@DV?$string_output_adapter@D@__crt_stdio_output@@@__crt_stdio_output@@IAE_NXZ 0043f5a3 f i libucrt:output.obj
 0001:0003e5ef       ?advance_to_next_pass@?$positional_parameter_base@_WV?$stream_output_adapter@_W@__crt_stdio_output@@@__crt_stdio_output@@IAE_NXZ 0043f5ef f i libucrt:output.obj
 0001:0003e63b       ?advance_to_next_pass@?$positional_parameter_base@_WV?$string_output_adapter@_W@__crt_stdio_output@@@__crt_stdio_output@@IAE_NXZ 0043f63b f i libucrt:output.obj
 0001:0003e687       ?advance_to_next_pass@?$standard_base@DV?$stream_output_adapter@D@__crt_stdio_output@@@__crt_stdio_output@@IAE_NXZ 0043f687 f i libucrt:output.obj
 0001:0003e698       ?advance_to_next_pass@?$standard_base@DV?$string_output_adapter@D@__crt_stdio_output@@@__crt_stdio_output@@IAE_NXZ 0043f698 f i libucrt:output.obj
 0001:0003e6a9       ?advance_to_next_pass@?$standard_base@_WV?$stream_output_adapter@_W@__crt_stdio_output@@@__crt_stdio_output@@IAE_NXZ 0043f6a9 f i libucrt:output.obj
 0001:0003e6ba       ?advance_to_next_pass@?$standard_base@_WV?$string_output_adapter@_W@__crt_stdio_output@@@__crt_stdio_output@@IAE_NXZ 0043f6ba f i libucrt:output.obj
 0001:0003e6d0       ?crop_zeroes@__crt_stdio_output@@YAXPADQAU__crt_locale_pointers@@@Z 0043f6d0 f i libucrt:output.obj
 0001:0003e751       ?find_next_state@?$output_processor@DV?$stream_output_adapter@D@__crt_stdio_output@@V?$format_validation_base@DV?$stream_output_adapter@D@__crt_stdio_output@@@2@@__crt_stdio_output@@ABE?AW4state@2@DW432@@Z 0043f751 f i libucrt:output.obj
 0001:0003e788       ?find_next_state@?$output_processor@DV?$stream_output_adapter@D@__crt_stdio_output@@V?$positional_parameter_base@DV?$stream_output_adapter@D@__crt_stdio_output@@@2@@__crt_stdio_output@@ABE?AW4state@2@DW432@@Z 0043f788 f i libucrt:output.obj
 0001:0003e7bf       ?find_next_state@?$output_processor@DV?$stream_output_adapter@D@__crt_stdio_output@@V?$standard_base@DV?$stream_output_adapter@D@__crt_stdio_output@@@2@@__crt_stdio_output@@ABE?AW4state@2@DW432@@Z 0043f7bf f i libucrt:output.obj
 0001:0003e7f6       ?find_next_state@?$output_processor@DV?$string_output_adapter@D@__crt_stdio_output@@V?$format_validation_base@DV?$string_output_adapter@D@__crt_stdio_output@@@2@@__crt_stdio_output@@ABE?AW4state@2@DW432@@Z 0043f7f6 f i libucrt:output.obj
 0001:0003e82d       ?find_next_state@?$output_processor@DV?$string_output_adapter@D@__crt_stdio_output@@V?$positional_parameter_base@DV?$string_output_adapter@D@__crt_stdio_output@@@2@@__crt_stdio_output@@ABE?AW4state@2@DW432@@Z 0043f82d f i libucrt:output.obj
 0001:0003e864       ?find_next_state@?$output_processor@DV?$string_output_adapter@D@__crt_stdio_output@@V?$standard_base@DV?$string_output_adapter@D@__crt_stdio_output@@@2@@__crt_stdio_output@@ABE?AW4state@2@DW432@@Z 0043f864 f i libucrt:output.obj
 0001:0003e89b       ?find_next_state@?$output_processor@_WV?$stream_output_adapter@_W@__crt_stdio_output@@V?$format_validation_base@_WV?$stream_output_adapter@_W@__crt_stdio_output@@@2@@__crt_stdio_output@@ABE?AW4state@2@_WW432@@Z 0043f89b f i libucrt:output.obj
 0001:0003e8d1       ?find_next_state@?$output_processor@_WV?$stream_output_adapter@_W@__crt_stdio_output@@V?$positional_parameter_base@_WV?$stream_output_adapter@_W@__crt_stdio_output@@@2@@__crt_stdio_output@@ABE?AW4state@2@_WW432@@Z 0043f8d1 f i libucrt:output.obj
 0001:0003e907       ?find_next_state@?$output_processor@_WV?$stream_output_adapter@_W@__crt_stdio_output@@V?$standard_base@_WV?$stream_output_adapter@_W@__crt_stdio_output@@@2@@__crt_stdio_output@@ABE?AW4state@2@_WW432@@Z 0043f907 f i libucrt:output.obj
 0001:0003e93d       ?find_next_state@?$output_processor@_WV?$string_output_adapter@_W@__crt_stdio_output@@V?$format_validation_base@_WV?$string_output_adapter@_W@__crt_stdio_output@@@2@@__crt_stdio_output@@ABE?AW4state@2@_WW432@@Z 0043f93d f i libucrt:output.obj
 0001:0003e973       ?find_next_state@?$output_processor@_WV?$string_output_adapter@_W@__crt_stdio_output@@V?$positional_parameter_base@_WV?$string_output_adapter@_W@__crt_stdio_output@@@2@@__crt_stdio_output@@ABE?AW4state@2@_WW432@@Z 0043f973 f i libucrt:output.obj
 0001:0003e9a9       ?find_next_state@?$output_processor@_WV?$string_output_adapter@_W@__crt_stdio_output@@V?$standard_base@_WV?$string_output_adapter@_W@__crt_stdio_output@@@2@@__crt_stdio_output@@ABE?AW4state@2@_WW432@@Z 0043f9a9 f i libucrt:output.obj
 0001:0003e9e0       ?force_decimal_point@__crt_stdio_output@@YAXPADQAU__crt_locale_pointers@@@Z 0043f9e0 f i libucrt:output.obj
 0001:0003ea45       ?get@__crt_deferred_errno_cache@@QAEAAHXZ 0043fa45 f i libucrt:output.obj
 0001:0003ea59       ?get_parameter_type@?$positional_parameter_base@DV?$stream_output_adapter@D@__crt_stdio_output@@@__crt_stdio_output@@CA?AW4parameter_type@12@F@Z 0043fa59 f i libucrt:output.obj
 0001:0003ea5d       ?get_parameter_type@?$positional_parameter_base@DV?$stream_output_adapter@D@__crt_stdio_output@@@__crt_stdio_output@@CA?AW4parameter_type@12@G@Z 0043fa5d f i libucrt:output.obj
 0001:0003ea61       ?get_parameter_type@?$positional_parameter_base@DV?$stream_output_adapter@D@__crt_stdio_output@@@__crt_stdio_output@@CA?AW4parameter_type@12@H@Z 0043fa61 f i libucrt:output.obj
 0001:0003ea65       ?get_parameter_type@?$positional_parameter_base@DV?$stream_output_adapter@D@__crt_stdio_output@@@__crt_stdio_output@@CA?AW4parameter_type@12@I@Z 0043fa65 f i libucrt:output.obj
 0001:0003ea69       ?get_parameter_type@?$positional_parameter_base@DV?$stream_output_adapter@D@__crt_stdio_output@@@__crt_stdio_output@@CA?AW4parameter_type@12@U_CRT_DOUBLE@@@Z 0043fa69 f i libucrt:output.obj
 0001:0003ea6d       ?get_parameter_type@?$positional_parameter_base@DV?$stream_output_adapter@D@__crt_stdio_output@@@__crt_stdio_output@@CA?AW4parameter_type@12@_J@Z 0043fa6d f i libucrt:output.obj
 0001:0003ea71       ?get_parameter_type@?$positional_parameter_base@DV?$stream_output_adapter@D@__crt_stdio_output@@@__crt_stdio_output@@CA?AW4parameter_type@12@_K@Z 0043fa71 f i libucrt:output.obj
 0001:0003ea75       ?get_parameter_type@?$positional_parameter_base@DV?$stream_output_adapter@D@__crt_stdio_output@@@__crt_stdio_output@@CA?AW4parameter_type@12@_W@Z 0043fa75 f i libucrt:output.obj
 0001:0003ea79       ?get_parameter_type@?$positional_parameter_base@DV?$string_output_adapter@D@__crt_stdio_output@@@__crt_stdio_output@@CA?AW4parameter_type@12@F@Z 0043fa79 f i libucrt:output.obj
 0001:0003ea7d       ?get_parameter_type@?$positional_parameter_base@DV?$string_output_adapter@D@__crt_stdio_output@@@__crt_stdio_output@@CA?AW4parameter_type@12@G@Z 0043fa7d f i libucrt:output.obj
 0001:0003ea81       ?get_parameter_type@?$positional_parameter_base@DV?$string_output_adapter@D@__crt_stdio_output@@@__crt_stdio_output@@CA?AW4parameter_type@12@H@Z 0043fa81 f i libucrt:output.obj
 0001:0003ea85       ?get_parameter_type@?$positional_parameter_base@DV?$string_output_adapter@D@__crt_stdio_output@@@__crt_stdio_output@@CA?AW4parameter_type@12@I@Z 0043fa85 f i libucrt:output.obj
 0001:0003ea89       ?get_parameter_type@?$positional_parameter_base@DV?$string_output_adapter@D@__crt_stdio_output@@@__crt_stdio_output@@CA?AW4parameter_type@12@U_CRT_DOUBLE@@@Z 0043fa89 f i libucrt:output.obj
 0001:0003ea8d       ?get_parameter_type@?$positional_parameter_base@DV?$string_output_adapter@D@__crt_stdio_output@@@__crt_stdio_output@@CA?AW4parameter_type@12@_J@Z 0043fa8d f i libucrt:output.obj
 0001:0003ea91       ?get_parameter_type@?$positional_parameter_base@DV?$string_output_adapter@D@__crt_stdio_output@@@__crt_stdio_output@@CA?AW4parameter_type@12@_K@Z 0043fa91 f i libucrt:output.obj
 0001:0003ea95       ?get_parameter_type@?$positional_parameter_base@DV?$string_output_adapter@D@__crt_stdio_output@@@__crt_stdio_output@@CA?AW4parameter_type@12@_W@Z 0043fa95 f i libucrt:output.obj
 0001:0003ea99       ?get_parameter_type@?$positional_parameter_base@_WV?$stream_output_adapter@_W@__crt_stdio_output@@@__crt_stdio_output@@CA?AW4parameter_type@12@F@Z 0043fa99 f i libucrt:output.obj
 0001:0003ea9d       ?get_parameter_type@?$positional_parameter_base@_WV?$stream_output_adapter@_W@__crt_stdio_output@@@__crt_stdio_output@@CA?AW4parameter_type@12@G@Z 0043fa9d f i libucrt:output.obj
 0001:0003eaa1       ?get_parameter_type@?$positional_parameter_base@_WV?$stream_output_adapter@_W@__crt_stdio_output@@@__crt_stdio_output@@CA?AW4parameter_type@12@H@Z 0043faa1 f i libucrt:output.obj
 0001:0003eaa5       ?get_parameter_type@?$positional_parameter_base@_WV?$stream_output_adapter@_W@__crt_stdio_output@@@__crt_stdio_output@@CA?AW4parameter_type@12@I@Z 0043faa5 f i libucrt:output.obj
 0001:0003eaa9       ?get_parameter_type@?$positional_parameter_base@_WV?$stream_output_adapter@_W@__crt_stdio_output@@@__crt_stdio_output@@CA?AW4parameter_type@12@U_CRT_DOUBLE@@@Z 0043faa9 f i libucrt:output.obj
 0001:0003eaad       ?get_parameter_type@?$positional_parameter_base@_WV?$stream_output_adapter@_W@__crt_stdio_output@@@__crt_stdio_output@@CA?AW4parameter_type@12@_J@Z 0043faad f i libucrt:output.obj
 0001:0003eab1       ?get_parameter_type@?$positional_parameter_base@_WV?$stream_output_adapter@_W@__crt_stdio_output@@@__crt_stdio_output@@CA?AW4parameter_type@12@_K@Z 0043fab1 f i libucrt:output.obj
 0001:0003eab5       ?get_parameter_type@?$positional_parameter_base@_WV?$stream_output_adapter@_W@__crt_stdio_output@@@__crt_stdio_output@@CA?AW4parameter_type@12@_W@Z 0043fab5 f i libucrt:output.obj
 0001:0003eab9       ?get_parameter_type@?$positional_parameter_base@_WV?$string_output_adapter@_W@__crt_stdio_output@@@__crt_stdio_output@@CA?AW4parameter_type@12@F@Z 0043fab9 f i libucrt:output.obj
 0001:0003eabd       ?get_parameter_type@?$positional_parameter_base@_WV?$string_output_adapter@_W@__crt_stdio_output@@@__crt_stdio_output@@CA?AW4parameter_type@12@G@Z 0043fabd f i libucrt:output.obj
 0001:0003eac1       ?get_parameter_type@?$positional_parameter_base@_WV?$string_output_adapter@_W@__crt_stdio_output@@@__crt_stdio_output@@CA?AW4parameter_type@12@H@Z 0043fac1 f i libucrt:output.obj
 0001:0003eac5       ?get_parameter_type@?$positional_parameter_base@_WV?$string_output_adapter@_W@__crt_stdio_output@@@__crt_stdio_output@@CA?AW4parameter_type@12@I@Z 0043fac5 f i libucrt:output.obj
 0001:0003eac9       ?get_parameter_type@?$positional_parameter_base@_WV?$string_output_adapter@_W@__crt_stdio_output@@@__crt_stdio_output@@CA?AW4parameter_type@12@U_CRT_DOUBLE@@@Z 0043fac9 f i libucrt:output.obj
 0001:0003eacd       ?get_parameter_type@?$positional_parameter_base@_WV?$string_output_adapter@_W@__crt_stdio_output@@@__crt_stdio_output@@CA?AW4parameter_type@12@_J@Z 0043facd f i libucrt:output.obj
 0001:0003ead1       ?get_parameter_type@?$positional_parameter_base@_WV?$string_output_adapter@_W@__crt_stdio_output@@@__crt_stdio_output@@CA?AW4parameter_type@12@_K@Z 0043fad1 f i libucrt:output.obj
 0001:0003ead5       ?get_parameter_type@?$positional_parameter_base@_WV?$string_output_adapter@_W@__crt_stdio_output@@@__crt_stdio_output@@CA?AW4parameter_type@12@_W@Z 0043fad5 f i libucrt:output.obj
 0001:0003ead9       ?has_flag@?$output_processor@DV?$stream_output_adapter@D@__crt_stdio_output@@V?$format_validation_base@DV?$stream_output_adapter@D@__crt_stdio_output@@@2@@__crt_stdio_output@@ABE_NI@Z 0043fad9 f i libucrt:output.obj
 0001:0003eaeb       ?has_flag@?$output_processor@DV?$stream_output_adapter@D@__crt_stdio_output@@V?$positional_parameter_base@DV?$stream_output_adapter@D@__crt_stdio_output@@@2@@__crt_stdio_output@@ABE_NI@Z 0043faeb f i libucrt:output.obj
 0001:0003eafd       ?has_flag@?$output_processor@DV?$stream_output_adapter@D@__crt_stdio_output@@V?$standard_base@DV?$stream_output_adapter@D@__crt_stdio_output@@@2@@__crt_stdio_output@@ABE_NI@Z 0043fafd f i libucrt:output.obj
 0001:0003eb0f       ?has_flag@?$output_processor@DV?$string_output_adapter@D@__crt_stdio_output@@V?$format_validation_base@DV?$string_output_adapter@D@__crt_stdio_output@@@2@@__crt_stdio_output@@ABE_NI@Z 0043fb0f f i libucrt:output.obj
 0001:0003eb21       ?has_flag@?$output_processor@DV?$string_output_adapter@D@__crt_stdio_output@@V?$positional_parameter_base@DV?$string_output_adapter@D@__crt_stdio_output@@@2@@__crt_stdio_output@@ABE_NI@Z 0043fb21 f i libucrt:output.obj
 0001:0003eb33       ?has_flag@?$output_processor@DV?$string_output_adapter@D@__crt_stdio_output@@V?$standard_base@DV?$string_output_adapter@D@__crt_stdio_output@@@2@@__crt_stdio_output@@ABE_NI@Z 0043fb33 f i libucrt:output.obj
 0001:0003eb45       ?has_flag@?$output_processor@_WV?$stream_output_adapter@_W@__crt_stdio_output@@V?$format_validation_base@_WV?$stream_output_adapter@_W@__crt_stdio_output@@@2@@__crt_stdio_output@@ABE_NI@Z 0043fb45 f i libucrt:output.obj
 0001:0003eb57       ?has_flag@?$output_processor@_WV?$stream_output_adapter@_W@__crt_stdio_output@@V?$positional_parameter_base@_WV?$stream_output_adapter@_W@__crt_stdio_output@@@2@@__crt_stdio_output@@ABE_NI@Z 0043fb57 f i libucrt:output.obj
 0001:0003eb69       ?has_flag@?$output_processor@_WV?$stream_output_adapter@_W@__crt_stdio_output@@V?$standard_base@_WV?$stream_output_adapter@_W@__crt_stdio_output@@@2@@__crt_stdio_output@@ABE_NI@Z 0043fb69 f i libucrt:output.obj
 0001:0003eb7b       ?has_flag@?$output_processor@_WV?$string_output_adapter@_W@__crt_stdio_output@@V?$format_validation_base@_WV?$string_output_adapter@_W@__crt_stdio_output@@@2@@__crt_stdio_output@@ABE_NI@Z 0043fb7b f i libucrt:output.obj
 0001:0003eb8d       ?has_flag@?$output_processor@_WV?$string_output_adapter@_W@__crt_stdio_output@@V?$positional_parameter_base@_WV?$string_output_adapter@_W@__crt_stdio_output@@@2@@__crt_stdio_output@@ABE_NI@Z 0043fb8d f i libucrt:output.obj
 0001:0003eb9f       ?has_flag@?$output_processor@_WV?$string_output_adapter@_W@__crt_stdio_output@@V?$standard_base@_WV?$string_output_adapter@_W@__crt_stdio_output@@@2@@__crt_stdio_output@@ABE_NI@Z 0043fb9f f i libucrt:output.obj
 0001:0003ebb1       ?is_positional_parameter_reappearance_consistent@?$positional_parameter_base@DV?$stream_output_adapter@D@__crt_stdio_output@@@__crt_stdio_output@@AAE_NABUparameter_data@12@W4parameter_type@12@DW4length_modifier@2@@Z 0043fbb1 f i libucrt:output.obj
 0001:0003eccb       ?is_positional_parameter_reappearance_consistent@?$positional_parameter_base@DV?$string_output_adapter@D@__crt_stdio_output@@@__crt_stdio_output@@AAE_NABUparameter_data@12@W4parameter_type@12@DW4length_modifier@2@@Z 0043fccb f i libucrt:output.obj
 0001:0003ede5       ?is_positional_parameter_reappearance_consistent@?$positional_parameter_base@_WV?$stream_output_adapter@_W@__crt_stdio_output@@@__crt_stdio_output@@AAE_NABUparameter_data@12@W4parameter_type@12@_WW4length_modifier@2@@Z 0043fde5 f i libucrt:output.obj
 0001:0003ef00       ?is_positional_parameter_reappearance_consistent@?$positional_parameter_base@_WV?$string_output_adapter@_W@__crt_stdio_output@@@__crt_stdio_output@@AAE_NABUparameter_data@12@W4parameter_type@12@_WW4length_modifier@2@@Z 0043ff00 f i libucrt:output.obj
 0001:0003f01b       ?narrow_null_string@?$output_processor@DV?$stream_output_adapter@D@__crt_stdio_output@@V?$format_validation_base@DV?$stream_output_adapter@D@__crt_stdio_output@@@2@@__crt_stdio_output@@CAPADXZ 0044001b f i libucrt:output.obj
 0001:0003f021       ?narrow_null_string@?$output_processor@DV?$stream_output_adapter@D@__crt_stdio_output@@V?$positional_parameter_base@DV?$stream_output_adapter@D@__crt_stdio_output@@@2@@__crt_stdio_output@@CAPADXZ 00440021 f i libucrt:output.obj
 0001:0003f027       ?narrow_null_string@?$output_processor@DV?$stream_output_adapter@D@__crt_stdio_output@@V?$standard_base@DV?$stream_output_adapter@D@__crt_stdio_output@@@2@@__crt_stdio_output@@CAPADXZ 00440027 f i libucrt:output.obj
 0001:0003f02d       ?narrow_null_string@?$output_processor@DV?$string_output_adapter@D@__crt_stdio_output@@V?$format_validation_base@DV?$string_output_adapter@D@__crt_stdio_output@@@2@@__crt_stdio_output@@CAPADXZ 0044002d f i libucrt:output.obj
 0001:0003f033       ?narrow_null_string@?$output_processor@DV?$string_output_adapter@D@__crt_stdio_output@@V?$positional_parameter_base@DV?$string_output_adapter@D@__crt_stdio_output@@@2@@__crt_stdio_output@@CAPADXZ 00440033 f i libucrt:output.obj
 0001:0003f039       ?narrow_null_string@?$output_processor@DV?$string_output_adapter@D@__crt_stdio_output@@V?$standard_base@DV?$string_output_adapter@D@__crt_stdio_output@@@2@@__crt_stdio_output@@CAPADXZ 00440039 f i libucrt:output.obj
 0001:0003f03f       ?narrow_null_string@?$output_processor@_WV?$stream_output_adapter@_W@__crt_stdio_output@@V?$format_validation_base@_WV?$stream_output_adapter@_W@__crt_stdio_output@@@2@@__crt_stdio_output@@CAPADXZ 0044003f f i libucrt:output.obj
 0001:0003f045       ?narrow_null_string@?$output_processor@_WV?$stream_output_adapter@_W@__crt_stdio_output@@V?$positional_parameter_base@_WV?$stream_output_adapter@_W@__crt_stdio_output@@@2@@__crt_stdio_output@@CAPADXZ 00440045 f i libucrt:output.obj
 0001:0003f04b       ?narrow_null_string@?$output_processor@_WV?$stream_output_adapter@_W@__crt_stdio_output@@V?$standard_base@_WV?$stream_output_adapter@_W@__crt_stdio_output@@@2@@__crt_stdio_output@@CAPADXZ 0044004b f i libucrt:output.obj
 0001:0003f051       ?narrow_null_string@?$output_processor@_WV?$string_output_adapter@_W@__crt_stdio_output@@V?$format_validation_base@_WV?$string_output_adapter@_W@__crt_stdio_output@@@2@@__crt_stdio_output@@CAPADXZ 00440051 f i libucrt:output.obj
 0001:0003f057       ?narrow_null_string@?$output_processor@_WV?$string_output_adapter@_W@__crt_stdio_output@@V?$positional_parameter_base@_WV?$string_output_adapter@_W@__crt_stdio_output@@@2@@__crt_stdio_output@@CAPADXZ 00440057 f i libucrt:output.obj
 0001:0003f05d       ?narrow_null_string@?$output_processor@_WV?$string_output_adapter@_W@__crt_stdio_output@@V?$standard_base@_WV?$string_output_adapter@_W@__crt_stdio_output@@@2@@__crt_stdio_output@@CAPADXZ 0044005d f i libucrt:output.obj
 0001:0003f063       ?parse_int_from_format_string@?$output_processor@DV?$stream_output_adapter@D@__crt_stdio_output@@V?$format_validation_base@DV?$stream_output_adapter@D@__crt_stdio_output@@@2@@__crt_stdio_output@@AAE_NQAH@Z 00440063 f i libucrt:output.obj
 0001:0003f0d7       ?parse_int_from_format_string@?$output_processor@DV?$stream_output_adapter@D@__crt_stdio_output@@V?$positional_parameter_base@DV?$stream_output_adapter@D@__crt_stdio_output@@@2@@__crt_stdio_output@@AAE_NQAH@Z 004400d7 f i libucrt:output.obj
 0001:0003f14b       ?parse_int_from_format_string@?$output_processor@DV?$stream_output_adapter@D@__crt_stdio_output@@V?$standard_base@DV?$stream_output_adapter@D@__crt_stdio_output@@@2@@__crt_stdio_output@@AAE_NQAH@Z 0044014b f i libucrt:output.obj
 0001:0003f1bf       ?parse_int_from_format_string@?$output_processor@DV?$string_output_adapter@D@__crt_stdio_output@@V?$format_validation_base@DV?$string_output_adapter@D@__crt_stdio_output@@@2@@__crt_stdio_output@@AAE_NQAH@Z 004401bf f i libucrt:output.obj
 0001:0003f233       ?parse_int_from_format_string@?$output_processor@DV?$string_output_adapter@D@__crt_stdio_output@@V?$positional_parameter_base@DV?$string_output_adapter@D@__crt_stdio_output@@@2@@__crt_stdio_output@@AAE_NQAH@Z 00440233 f i libucrt:output.obj
 0001:0003f2a7       ?parse_int_from_format_string@?$output_processor@DV?$string_output_adapter@D@__crt_stdio_output@@V?$standard_base@DV?$string_output_adapter@D@__crt_stdio_output@@@2@@__crt_stdio_output@@AAE_NQAH@Z 004402a7 f i libucrt:output.obj
 0001:0003f31b       ?parse_int_from_format_string@?$output_processor@_WV?$stream_output_adapter@_W@__crt_stdio_output@@V?$format_validation_base@_WV?$stream_output_adapter@_W@__crt_stdio_output@@@2@@__crt_stdio_output@@AAE_NQAH@Z 0044031b f i libucrt:output.obj
 0001:0003f391       ?parse_int_from_format_string@?$output_processor@_WV?$stream_output_adapter@_W@__crt_stdio_output@@V?$positional_parameter_base@_WV?$stream_output_adapter@_W@__crt_stdio_output@@@2@@__crt_stdio_output@@AAE_NQAH@Z 00440391 f i libucrt:output.obj
 0001:0003f407       ?parse_int_from_format_string@?$output_processor@_WV?$stream_output_adapter@_W@__crt_stdio_output@@V?$standard_base@_WV?$stream_output_adapter@_W@__crt_stdio_output@@@2@@__crt_stdio_output@@AAE_NQAH@Z 00440407 f i libucrt:output.obj
 0001:0003f47d       ?parse_int_from_format_string@?$output_processor@_WV?$string_output_adapter@_W@__crt_stdio_output@@V?$format_validation_base@_WV?$string_output_adapter@_W@__crt_stdio_output@@@2@@__crt_stdio_output@@AAE_NQAH@Z 0044047d f i libucrt:output.obj
 0001:0003f4f3       ?parse_int_from_format_string@?$output_processor@_WV?$string_output_adapter@_W@__crt_stdio_output@@V?$positional_parameter_base@_WV?$string_output_adapter@_W@__crt_stdio_output@@@2@@__crt_stdio_output@@AAE_NQAH@Z 004404f3 f i libucrt:output.obj
 0001:0003f569       ?parse_int_from_format_string@?$output_processor@_WV?$string_output_adapter@_W@__crt_stdio_output@@V?$standard_base@_WV?$string_output_adapter@_W@__crt_stdio_output@@@2@@__crt_stdio_output@@AAE_NQAH@Z 00440569 f i libucrt:output.obj
 0001:0003f5df       ?process@?$output_processor@DV?$stream_output_adapter@D@__crt_stdio_output@@V?$format_validation_base@DV?$stream_output_adapter@D@__crt_stdio_output@@@2@@__crt_stdio_output@@QAEHXZ 004405df f i libucrt:output.obj
 0001:0003f703       ?process@?$output_processor@DV?$stream_output_adapter@D@__crt_stdio_output@@V?$positional_parameter_base@DV?$stream_output_adapter@D@__crt_stdio_output@@@2@@__crt_stdio_output@@QAEHXZ 00440703 f i libucrt:output.obj
 0001:0003f833       ?process@?$output_processor@DV?$stream_output_adapter@D@__crt_stdio_output@@V?$standard_base@DV?$stream_output_adapter@D@__crt_stdio_output@@@2@@__crt_stdio_output@@QAEHXZ 00440833 f i libucrt:output.obj
 0001:0003f947       ?process@?$output_processor@DV?$string_output_adapter@D@__crt_stdio_output@@V?$format_validation_base@DV?$string_output_adapter@D@__crt_stdio_output@@@2@@__crt_stdio_output@@QAEHXZ 00440947 f i libucrt:output.obj
 0001:0003fa6b       ?process@?$output_processor@DV?$string_output_adapter@D@__crt_stdio_output@@V?$positional_parameter_base@DV?$string_output_adapter@D@__crt_stdio_output@@@2@@__crt_stdio_output@@QAEHXZ 00440a6b f i libucrt:output.obj
 0001:0003fb9b       ?process@?$output_processor@DV?$string_output_adapter@D@__crt_stdio_output@@V?$standard_base@DV?$string_output_adapter@D@__crt_stdio_output@@@2@@__crt_stdio_output@@QAEHXZ 00440b9b f i libucrt:output.obj
 0001:0003fcaf       ?process@?$output_processor@_WV?$stream_output_adapter@_W@__crt_stdio_output@@V?$format_validation_base@_WV?$stream_output_adapter@_W@__crt_stdio_output@@@2@@__crt_stdio_output@@QAEHXZ 00440caf f i libucrt:output.obj
 0001:0003fdd7       ?process@?$output_processor@_WV?$stream_output_adapter@_W@__crt_stdio_output@@V?$positional_parameter_base@_WV?$stream_output_adapter@_W@__crt_stdio_output@@@2@@__crt_stdio_output@@QAEHXZ 00440dd7 f i libucrt:output.obj
 0001:0003ff0b       ?process@?$output_processor@_WV?$stream_output_adapter@_W@__crt_stdio_output@@V?$standard_base@_WV?$stream_output_adapter@_W@__crt_stdio_output@@@2@@__crt_stdio_output@@QAEHXZ 00440f0b f i libucrt:output.obj
 0001:00040027       ?process@?$output_processor@_WV?$string_output_adapter@_W@__crt_stdio_output@@V?$format_validation_base@_WV?$string_output_adapter@_W@__crt_stdio_output@@@2@@__crt_stdio_output@@QAEHXZ 00441027 f i libucrt:output.obj
 0001:0004014f       ?process@?$output_processor@_WV?$string_output_adapter@_W@__crt_stdio_output@@V?$positional_parameter_base@_WV?$string_output_adapter@_W@__crt_stdio_output@@@2@@__crt_stdio_output@@QAEHXZ 0044114f f i libucrt:output.obj
 0001:00040283       ?process@?$output_processor@_WV?$string_output_adapter@_W@__crt_stdio_output@@V?$standard_base@_WV?$string_output_adapter@_W@__crt_stdio_output@@@2@@__crt_stdio_output@@QAEHXZ 00441283 f i libucrt:output.obj
 0001:0004039f       ?set_flag@?$output_processor@DV?$stream_output_adapter@D@__crt_stdio_output@@V?$format_validation_base@DV?$stream_output_adapter@D@__crt_stdio_output@@@2@@__crt_stdio_output@@AAEXI@Z 0044139f f i libucrt:output.obj
 0001:000403ae       ?set_flag@?$output_processor@DV?$stream_output_adapter@D@__crt_stdio_output@@V?$positional_parameter_base@DV?$stream_output_adapter@D@__crt_stdio_output@@@2@@__crt_stdio_output@@AAEXI@Z 004413ae f i libucrt:output.obj
 0001:000403bd       ?set_flag@?$output_processor@DV?$stream_output_adapter@D@__crt_stdio_output@@V?$standard_base@DV?$stream_output_adapter@D@__crt_stdio_output@@@2@@__crt_stdio_output@@AAEXI@Z 004413bd f i libucrt:output.obj
 0001:000403cc       ?set_flag@?$output_processor@DV?$string_output_adapter@D@__crt_stdio_output@@V?$format_validation_base@DV?$string_output_adapter@D@__crt_stdio_output@@@2@@__crt_stdio_output@@AAEXI@Z 004413cc f i libucrt:output.obj
 0001:000403db       ?set_flag@?$output_processor@DV?$string_output_adapter@D@__crt_stdio_output@@V?$positional_parameter_base@DV?$string_output_adapter@D@__crt_stdio_output@@@2@@__crt_stdio_output@@AAEXI@Z 004413db f i libucrt:output.obj
 0001:000403ea       ?set_flag@?$output_processor@DV?$string_output_adapter@D@__crt_stdio_output@@V?$standard_base@DV?$string_output_adapter@D@__crt_stdio_output@@@2@@__crt_stdio_output@@AAEXI@Z 004413ea f i libucrt:output.obj
 0001:000403f9       ?set_flag@?$output_processor@_WV?$stream_output_adapter@_W@__crt_stdio_output@@V?$format_validation_base@_WV?$stream_output_adapter@_W@__crt_stdio_output@@@2@@__crt_stdio_output@@AAEXI@Z 004413f9 f i libucrt:output.obj
 0001:00040408       ?set_flag@?$output_processor@_WV?$stream_output_adapter@_W@__crt_stdio_output@@V?$positional_parameter_base@_WV?$stream_output_adapter@_W@__crt_stdio_output@@@2@@__crt_stdio_output@@AAEXI@Z 00441408 f i libucrt:output.obj
 0001:00040417       ?set_flag@?$output_processor@_WV?$stream_output_adapter@_W@__crt_stdio_output@@V?$standard_base@_WV?$stream_output_adapter@_W@__crt_stdio_output@@@2@@__crt_stdio_output@@AAEXI@Z 00441417 f i libucrt:output.obj
 0001:00040426       ?set_flag@?$output_processor@_WV?$string_output_adapter@_W@__crt_stdio_output@@V?$format_validation_base@_WV?$string_output_adapter@_W@__crt_stdio_output@@@2@@__crt_stdio_output@@AAEXI@Z 00441426 f i libucrt:output.obj
 0001:00040435       ?set_flag@?$output_processor@_WV?$string_output_adapter@_W@__crt_stdio_output@@V?$positional_parameter_base@_WV?$string_output_adapter@_W@__crt_stdio_output@@@2@@__crt_stdio_output@@AAEXI@Z 00441435 f i libucrt:output.obj
 0001:00040444       ?set_flag@?$output_processor@_WV?$string_output_adapter@_W@__crt_stdio_output@@V?$standard_base@_WV?$string_output_adapter@_W@__crt_stdio_output@@@2@@__crt_stdio_output@@AAEXI@Z 00441444 f i libucrt:output.obj
 0001:00040453       ?should_format@?$positional_parameter_base@DV?$stream_output_adapter@D@__crt_stdio_output@@@__crt_stdio_output@@IAE_NXZ 00441453 f i libucrt:output.obj
 0001:00040469       ?should_format@?$positional_parameter_base@DV?$string_output_adapter@D@__crt_stdio_output@@@__crt_stdio_output@@IAE_NXZ 00441469 f i libucrt:output.obj
 0001:0004047f       ?should_format@?$positional_parameter_base@_WV?$stream_output_adapter@_W@__crt_stdio_output@@@__crt_stdio_output@@IAE_NXZ 0044147f f i libucrt:output.obj
 0001:00040495       ?should_format@?$positional_parameter_base@_WV?$string_output_adapter@_W@__crt_stdio_output@@@__crt_stdio_output@@IAE_NXZ 00441495 f i libucrt:output.obj
 0001:000404ab       ?should_format@?$standard_base@DV?$stream_output_adapter@D@__crt_stdio_output@@@__crt_stdio_output@@IAE_NXZ 004414ab f i libucrt:output.obj
 0001:000404ae       ?should_format@?$standard_base@DV?$string_output_adapter@D@__crt_stdio_output@@@__crt_stdio_output@@IAE_NXZ 004414ae f i libucrt:output.obj
 0001:000404b1       ?should_format@?$standard_base@_WV?$stream_output_adapter@_W@__crt_stdio_output@@@__crt_stdio_output@@IAE_NXZ 004414b1 f i libucrt:output.obj
 0001:000404b4       ?should_format@?$standard_base@_WV?$string_output_adapter@_W@__crt_stdio_output@@@__crt_stdio_output@@IAE_NXZ 004414b4 f i libucrt:output.obj
 0001:000404b7       ?should_skip_normal_state_processing@?$positional_parameter_base@DV?$stream_output_adapter@D@__crt_stdio_output@@@__crt_stdio_output@@IAE_NXZ 004414b7 f i libucrt:output.obj
 0001:000404df       ?should_skip_normal_state_processing@?$positional_parameter_base@DV?$string_output_adapter@D@__crt_stdio_output@@@__crt_stdio_output@@IAE_NXZ 004414df f i libucrt:output.obj
 0001:00040507       ?should_skip_normal_state_processing@?$positional_parameter_base@_WV?$stream_output_adapter@_W@__crt_stdio_output@@@__crt_stdio_output@@IAE_NXZ 00441507 f i libucrt:output.obj
 0001:0004052f       ?should_skip_normal_state_processing@?$positional_parameter_base@_WV?$string_output_adapter@_W@__crt_stdio_output@@@__crt_stdio_output@@IAE_NXZ 0044152f f i libucrt:output.obj
 0001:00040557       ?should_skip_normal_state_processing@?$standard_base@DV?$stream_output_adapter@D@__crt_stdio_output@@@__crt_stdio_output@@IAE_NXZ 00441557 f i libucrt:output.obj
 0001:0004055a       ?should_skip_normal_state_processing@?$standard_base@DV?$string_output_adapter@D@__crt_stdio_output@@@__crt_stdio_output@@IAE_NXZ 0044155a f i libucrt:output.obj
 0001:0004055d       ?should_skip_normal_state_processing@?$standard_base@_WV?$stream_output_adapter@_W@__crt_stdio_output@@@__crt_stdio_output@@IAE_NXZ 0044155d f i libucrt:output.obj
 0001:00040560       ?should_skip_normal_state_processing@?$standard_base@_WV?$string_output_adapter@_W@__crt_stdio_output@@@__crt_stdio_output@@IAE_NXZ 00441560 f i libucrt:output.obj
 0001:00040563       ?should_skip_type_state_output@?$positional_parameter_base@DV?$stream_output_adapter@D@__crt_stdio_output@@@__crt_stdio_output@@IBE_NXZ 00441563 f i libucrt:output.obj
 0001:0004057a       ?should_skip_type_state_output@?$positional_parameter_base@DV?$string_output_adapter@D@__crt_stdio_output@@@__crt_stdio_output@@IBE_NXZ 0044157a f i libucrt:output.obj
 0001:00040591       ?should_skip_type_state_output@?$positional_parameter_base@_WV?$stream_output_adapter@_W@__crt_stdio_output@@@__crt_stdio_output@@IBE_NXZ 00441591 f i libucrt:output.obj
 0001:000405a8       ?should_skip_type_state_output@?$positional_parameter_base@_WV?$string_output_adapter@_W@__crt_stdio_output@@@__crt_stdio_output@@IBE_NXZ 004415a8 f i libucrt:output.obj
 0001:000405bf       ?should_skip_type_state_output@?$standard_base@DV?$stream_output_adapter@D@__crt_stdio_output@@@__crt_stdio_output@@IBE_NXZ 004415bf f i libucrt:output.obj
 0001:000405c2       ?should_skip_type_state_output@?$standard_base@DV?$string_output_adapter@D@__crt_stdio_output@@@__crt_stdio_output@@IBE_NXZ 004415c2 f i libucrt:output.obj
 0001:000405c5       ?should_skip_type_state_output@?$standard_base@_WV?$stream_output_adapter@_W@__crt_stdio_output@@@__crt_stdio_output@@IBE_NXZ 004415c5 f i libucrt:output.obj
 0001:000405c8       ?should_skip_type_state_output@?$standard_base@_WV?$string_output_adapter@_W@__crt_stdio_output@@@__crt_stdio_output@@IBE_NXZ 004415c8 f i libucrt:output.obj
 0001:000405cb       ?state_case_dot@?$output_processor@DV?$stream_output_adapter@D@__crt_stdio_output@@V?$format_validation_base@DV?$stream_output_adapter@D@__crt_stdio_output@@@2@@__crt_stdio_output@@AAE_NXZ 004415cb f i libucrt:output.obj
 0001:000405d2       ?state_case_dot@?$output_processor@DV?$stream_output_adapter@D@__crt_stdio_output@@V?$positional_parameter_base@DV?$stream_output_adapter@D@__crt_stdio_output@@@2@@__crt_stdio_output@@AAE_NXZ 004415d2 f i libucrt:output.obj
 0001:000405d9       ?state_case_dot@?$output_processor@DV?$stream_output_adapter@D@__crt_stdio_output@@V?$standard_base@DV?$stream_output_adapter@D@__crt_stdio_output@@@2@@__crt_stdio_output@@AAE_NXZ 004415d9 f i libucrt:output.obj
 0001:000405e0       ?state_case_dot@?$output_processor@DV?$string_output_adapter@D@__crt_stdio_output@@V?$format_validation_base@DV?$string_output_adapter@D@__crt_stdio_output@@@2@@__crt_stdio_output@@AAE_NXZ 004415e0 f i libucrt:output.obj
 0001:000405e7       ?state_case_dot@?$output_processor@DV?$string_output_adapter@D@__crt_stdio_output@@V?$positional_parameter_base@DV?$string_output_adapter@D@__crt_stdio_output@@@2@@__crt_stdio_output@@AAE_NXZ 004415e7 f i libucrt:output.obj
 0001:000405ee       ?state_case_dot@?$output_processor@DV?$string_output_adapter@D@__crt_stdio_output@@V?$standard_base@DV?$string_output_adapter@D@__crt_stdio_output@@@2@@__crt_stdio_output@@AAE_NXZ 004415ee f i libucrt:output.obj
 0001:000405f5       ?state_case_dot@?$output_processor@_WV?$stream_output_adapter@_W@__crt_stdio_output@@V?$format_validation_base@_WV?$stream_output_adapter@_W@__crt_stdio_output@@@2@@__crt_stdio_output@@AAE_NXZ 004415f5 f i libucrt:output.obj
 0001:000405fc       ?state_case_dot@?$output_processor@_WV?$stream_output_adapter@_W@__crt_stdio_output@@V?$positional_parameter_base@_WV?$stream_output_adapter@_W@__crt_stdio_output@@@2@@__crt_stdio_output@@AAE_NXZ 004415fc f i libucrt:output.obj
 0001:00040603       ?state_case_dot@?$output_processor@_WV?$stream_output_adapter@_W@__crt_stdio_output@@V?$standard_base@_WV?$stream_output_adapter@_W@__crt_stdio_output@@@2@@__crt_stdio_output@@AAE_NXZ 00441603 f i libucrt:output.obj
 0001:0004060a       ?state_case_dot@?$output_processor@_WV?$string_output_adapter@_W@__crt_stdio_output@@V?$format_validation_base@_WV?$string_output_adapter@_W@__crt_stdio_output@@@2@@__crt_stdio_output@@AAE_NXZ 0044160a f i libucrt:output.obj
 0001:00040611       ?state_case_dot@?$output_processor@_WV?$string_output_adapter@_W@__crt_stdio_output@@V?$positional_parameter_base@_WV?$string_output_adapter@_W@__crt_stdio_output@@@2@@__crt_stdio_output@@AAE_NXZ 00441611 f i libucrt:output.obj
 0001:00040618       ?state_case_dot@?$output_processor@_WV?$string_output_adapter@_W@__crt_stdio_output@@V?$standard_base@_WV?$string_output_adapter@_W@__crt_stdio_output@@@2@@__crt_stdio_output@@AAE_NXZ 00441618 f i libucrt:output.obj
 0001:0004061f       ?state_case_flag@?$output_processor@DV?$stream_output_adapter@D@__crt_stdio_output@@V?$format_validation_base@DV?$stream_output_adapter@D@__crt_stdio_output@@@2@@__crt_stdio_output@@AAE_NXZ 0044161f f i libucrt:output.obj
 0001:0004065c       ?state_case_flag@?$output_processor@DV?$stream_output_adapter@D@__crt_stdio_output@@V?$positional_parameter_base@DV?$stream_output_adapter@D@__crt_stdio_output@@@2@@__crt_stdio_output@@AAE_NXZ 0044165c f i libucrt:output.obj
 0001:00040699       ?state_case_flag@?$output_processor@DV?$stream_output_adapter@D@__crt_stdio_output@@V?$standard_base@DV?$stream_output_adapter@D@__crt_stdio_output@@@2@@__crt_stdio_output@@AAE_NXZ 00441699 f i libucrt:output.obj
 0001:000406d6       ?state_case_flag@?$output_processor@DV?$string_output_adapter@D@__crt_stdio_output@@V?$format_validation_base@DV?$string_output_adapter@D@__crt_stdio_output@@@2@@__crt_stdio_output@@AAE_NXZ 004416d6 f i libucrt:output.obj
 0001:00040713       ?state_case_flag@?$output_processor@DV?$string_output_adapter@D@__crt_stdio_output@@V?$positional_parameter_base@DV?$string_output_adapter@D@__crt_stdio_output@@@2@@__crt_stdio_output@@AAE_NXZ 00441713 f i libucrt:output.obj
 0001:00040750       ?state_case_flag@?$output_processor@DV?$string_output_adapter@D@__crt_stdio_output@@V?$standard_base@DV?$string_output_adapter@D@__crt_stdio_output@@@2@@__crt_stdio_output@@AAE_NXZ 00441750 f i libucrt:output.obj
 0001:0004078d       ?state_case_flag@?$output_processor@_WV?$stream_output_adapter@_W@__crt_stdio_output@@V?$format_validation_base@_WV?$stream_output_adapter@_W@__crt_stdio_output@@@2@@__crt_stdio_output@@AAE_NXZ 0044178d f i libucrt:output.obj
 0001:000407ca       ?state_case_flag@?$output_processor@_WV?$stream_output_adapter@_W@__crt_stdio_output@@V?$positional_parameter_base@_WV?$stream_output_adapter@_W@__crt_stdio_output@@@2@@__crt_stdio_output@@AAE_NXZ 004417ca f i libucrt:output.obj
 0001:00040807       ?state_case_flag@?$output_processor@_WV?$stream_output_adapter@_W@__crt_stdio_output@@V?$standard_base@_WV?$stream_output_adapter@_W@__crt_stdio_output@@@2@@__crt_stdio_output@@AAE_NXZ 00441807 f i libucrt:output.obj
 0001:00040844       ?state_case_flag@?$output_processor@_WV?$string_output_adapter@_W@__crt_stdio_output@@V?$format_validation_base@_WV?$string_output_adapter@_W@__crt_stdio_output@@@2@@__crt_stdio_output@@AAE_NXZ 00441844 f i libucrt:output.obj
 0001:00040881       ?state_case_flag@?$output_processor@_WV?$string_output_adapter@_W@__crt_stdio_output@@V?$positional_parameter_base@_WV?$string_output_adapter@_W@__crt_stdio_output@@@2@@__crt_stdio_output@@AAE_NXZ 00441881 f i libucrt:output.obj
 0001:000408be       ?state_case_flag@?$output_processor@_WV?$string_output_adapter@_W@__crt_stdio_output@@V?$standard_base@_WV?$string_output_adapter@_W@__crt_stdio_output@@@2@@__crt_stdio_output@@AAE_NXZ 004418be f i libucrt:output.obj
 0001:000408fb       ?state_case_normal@?$output_processor@DV?$stream_output_adapter@D@__crt_stdio_output@@V?$format_validation_base@DV?$stream_output_adapter@D@__crt_stdio_output@@@2@@__crt_stdio_output@@AAE_NXZ 004418fb f i libucrt:output.obj
 0001:0004091a       ?state_case_normal@?$output_processor@DV?$stream_output_adapter@D@__crt_stdio_output@@V?$positional_parameter_base@DV?$stream_output_adapter@D@__crt_stdio_output@@@2@@__crt_stdio_output@@AAE_NXZ 0044191a f i libucrt:output.obj
 0001:0004094b       ?state_case_normal@?$output_processor@DV?$stream_output_adapter@D@__crt_stdio_output@@V?$standard_base@DV?$stream_output_adapter@D@__crt_stdio_output@@@2@@__crt_stdio_output@@AAE_NXZ 0044194b f i libucrt:output.obj
 0001:0004096a       ?state_case_normal@?$output_processor@DV?$string_output_adapter@D@__crt_stdio_output@@V?$format_validation_base@DV?$string_output_adapter@D@__crt_stdio_output@@@2@@__crt_stdio_output@@AAE_NXZ 0044196a f i libucrt:output.obj
 0001:00040989       ?state_case_normal@?$output_processor@DV?$string_output_adapter@D@__crt_stdio_output@@V?$positional_parameter_base@DV?$string_output_adapter@D@__crt_stdio_output@@@2@@__crt_stdio_output@@AAE_NXZ 00441989 f i libucrt:output.obj
 0001:000409ba       ?state_case_normal@?$output_processor@DV?$string_output_adapter@D@__crt_stdio_output@@V?$standard_base@DV?$string_output_adapter@D@__crt_stdio_output@@@2@@__crt_stdio_output@@AAE_NXZ 004419ba f i libucrt:output.obj
 0001:000409d9       ?state_case_normal@?$output_processor@_WV?$stream_output_adapter@_W@__crt_stdio_output@@V?$format_validation_base@_WV?$stream_output_adapter@_W@__crt_stdio_output@@@2@@__crt_stdio_output@@AAE_NXZ 004419d9 f i libucrt:output.obj
 0001:000409f8       ?state_case_normal@?$output_processor@_WV?$stream_output_adapter@_W@__crt_stdio_output@@V?$positional_parameter_base@_WV?$stream_output_adapter@_W@__crt_stdio_output@@@2@@__crt_stdio_output@@AAE_NXZ 004419f8 f i libucrt:output.obj
 0001:00040a29       ?state_case_normal@?$output_processor@_WV?$stream_output_adapter@_W@__crt_stdio_output@@V?$standard_base@_WV?$stream_output_adapter@_W@__crt_stdio_output@@@2@@__crt_stdio_output@@AAE_NXZ 00441a29 f i libucrt:output.obj
 0001:00040a48       ?state_case_normal@?$output_processor@_WV?$string_output_adapter@_W@__crt_stdio_output@@V?$format_validation_base@_WV?$string_output_adapter@_W@__crt_stdio_output@@@2@@__crt_stdio_output@@AAE_NXZ 00441a48 f i libucrt:output.obj
 0001:00040a67       ?state_case_normal@?$output_processor@_WV?$string_output_adapter@_W@__crt_stdio_output@@V?$positional_parameter_base@_WV?$string_output_adapter@_W@__crt_stdio_output@@@2@@__crt_stdio_output@@AAE_NXZ 00441a67 f i libucrt:output.obj
 0001:00040a98       ?state_case_normal@?$output_processor@_WV?$string_output_adapter@_W@__crt_stdio_output@@V?$standard_base@_WV?$string_output_adapter@_W@__crt_stdio_output@@@2@@__crt_stdio_output@@AAE_NXZ 00441a98 f i libucrt:output.obj
 0001:00040ab7       ?state_case_normal_common@?$output_processor@DV?$stream_output_adapter@D@__crt_stdio_output@@V?$format_validation_base@DV?$stream_output_adapter@D@__crt_stdio_output@@@2@@__crt_stdio_output@@AAE_NXZ 00441ab7 f i libucrt:output.obj
 0001:00040af1       ?state_case_normal_common@?$output_processor@DV?$stream_output_adapter@D@__crt_stdio_output@@V?$positional_parameter_base@DV?$stream_output_adapter@D@__crt_stdio_output@@@2@@__crt_stdio_output@@AAE_NXZ 00441af1 f i libucrt:output.obj
 0001:00040b2b       ?state_case_normal_common@?$output_processor@DV?$stream_output_adapter@D@__crt_stdio_output@@V?$standard_base@DV?$stream_output_adapter@D@__crt_stdio_output@@@2@@__crt_stdio_output@@AAE_NXZ 00441b2b f i libucrt:output.obj
 0001:00040b65       ?state_case_normal_common@?$output_processor@DV?$string_output_adapter@D@__crt_stdio_output@@V?$format_validation_base@DV?$string_output_adapter@D@__crt_stdio_output@@@2@@__crt_stdio_output@@AAE_NXZ 00441b65 f i libucrt:output.obj
 0001:00040b8f       ?state_case_normal_common@?$output_processor@DV?$string_output_adapter@D@__crt_stdio_output@@V?$positional_parameter_base@DV?$string_output_adapter@D@__crt_stdio_output@@@2@@__crt_stdio_output@@AAE_NXZ 00441b8f f i libucrt:output.obj
 0001:00040bb9       ?state_case_normal_common@?$output_processor@DV?$string_output_adapter@D@__crt_stdio_output@@V?$standard_base@DV?$string_output_adapter@D@__crt_stdio_output@@@2@@__crt_stdio_output@@AAE_NXZ 00441bb9 f i libucrt:output.obj
 0001:00040be3       ?state_case_normal_common@?$output_processor@_WV?$stream_output_adapter@_W@__crt_stdio_output@@V?$format_validation_base@_WV?$stream_output_adapter@_W@__crt_stdio_output@@@2@@__crt_stdio_output@@AAE_NXZ 00441be3 f i libucrt:output.obj
 0001:00040c0d       ?state_case_normal_common@?$output_processor@_WV?$stream_output_adapter@_W@__crt_stdio_output@@V?$positional_parameter_base@_WV?$stream_output_adapter@_W@__crt_stdio_output@@@2@@__crt_stdio_output@@AAE_NXZ 00441c0d f i libucrt:output.obj
 0001:00040c37       ?state_case_normal_common@?$output_processor@_WV?$stream_output_adapter@_W@__crt_stdio_output@@V?$standard_base@_WV?$stream_output_adapter@_W@__crt_stdio_output@@@2@@__crt_stdio_output@@AAE_NXZ 00441c37 f i libucrt:output.obj
 0001:00040c61       ?state_case_normal_common@?$output_processor@_WV?$string_output_adapter@_W@__crt_stdio_output@@V?$format_validation_base@_WV?$string_output_adapter@_W@__crt_stdio_output@@@2@@__crt_stdio_output@@AAE_NXZ 00441c61 f i libucrt:output.obj
 0001:00040c7c       ?state_case_normal_common@?$output_processor@_WV?$string_output_adapter@_W@__crt_stdio_output@@V?$positional_parameter_base@_WV?$string_output_adapter@_W@__crt_stdio_output@@@2@@__crt_stdio_output@@AAE_NXZ 00441c7c f i libucrt:output.obj
 0001:00040c97       ?state_case_normal_common@?$output_processor@_WV?$string_output_adapter@_W@__crt_stdio_output@@V?$standard_base@_WV?$string_output_adapter@_W@__crt_stdio_output@@@2@@__crt_stdio_output@@AAE_NXZ 00441c97 f i libucrt:output.obj
 0001:00040cb2       ?state_case_normal_tchar@?$output_processor@DV?$stream_output_adapter@D@__crt_stdio_output@@V?$format_validation_base@DV?$stream_output_adapter@D@__crt_stdio_output@@@2@@__crt_stdio_output@@AAE_ND@Z 00441cb2 f i libucrt:output.obj
 0001:00040d1f       ?state_case_normal_tchar@?$output_processor@DV?$stream_output_adapter@D@__crt_stdio_output@@V?$positional_parameter_base@DV?$stream_output_adapter@D@__crt_stdio_output@@@2@@__crt_stdio_output@@AAE_ND@Z 00441d1f f i libucrt:output.obj
 0001:00040d8c       ?state_case_normal_tchar@?$output_processor@DV?$stream_output_adapter@D@__crt_stdio_output@@V?$standard_base@DV?$stream_output_adapter@D@__crt_stdio_output@@@2@@__crt_stdio_output@@AAE_ND@Z 00441d8c f i libucrt:output.obj
 0001:00040df9       ?state_case_normal_tchar@?$output_processor@DV?$string_output_adapter@D@__crt_stdio_output@@V?$format_validation_base@DV?$string_output_adapter@D@__crt_stdio_output@@@2@@__crt_stdio_output@@AAE_ND@Z 00441df9 f i libucrt:output.obj
 0001:00040e5d       ?state_case_normal_tchar@?$output_processor@DV?$string_output_adapter@D@__crt_stdio_output@@V?$positional_parameter_base@DV?$string_output_adapter@D@__crt_stdio_output@@@2@@__crt_stdio_output@@AAE_ND@Z 00441e5d f i libucrt:output.obj
 0001:00040ec1       ?state_case_normal_tchar@?$output_processor@DV?$string_output_adapter@D@__crt_stdio_output@@V?$standard_base@DV?$string_output_adapter@D@__crt_stdio_output@@@2@@__crt_stdio_output@@AAE_ND@Z 00441ec1 f i libucrt:output.obj
 0001:00040f25       ?state_case_normal_tchar@?$output_processor@_WV?$stream_output_adapter@_W@__crt_stdio_output@@V?$format_validation_base@_WV?$stream_output_adapter@_W@__crt_stdio_output@@@2@@__crt_stdio_output@@AAE_N_W@Z 00441f25 f i libucrt:output.obj
 0001:00040f2e       ?state_case_normal_tchar@?$output_processor@_WV?$stream_output_adapter@_W@__crt_stdio_output@@V?$positional_parameter_base@_WV?$stream_output_adapter@_W@__crt_stdio_output@@@2@@__crt_stdio_output@@AAE_N_W@Z 00441f2e f i libucrt:output.obj
 0001:00040f37       ?state_case_normal_tchar@?$output_processor@_WV?$stream_output_adapter@_W@__crt_stdio_output@@V?$standard_base@_WV?$stream_output_adapter@_W@__crt_stdio_output@@@2@@__crt_stdio_output@@AAE_N_W@Z 00441f37 f i libucrt:output.obj
 0001:00040f40       ?state_case_normal_tchar@?$output_processor@_WV?$string_output_adapter@_W@__crt_stdio_output@@V?$format_validation_base@_WV?$string_output_adapter@_W@__crt_stdio_output@@@2@@__crt_stdio_output@@AAE_N_W@Z 00441f40 f i libucrt:output.obj
 0001:00040f49       ?state_case_normal_tchar@?$output_processor@_WV?$string_output_adapter@_W@__crt_stdio_output@@V?$positional_parameter_base@_WV?$string_output_adapter@_W@__crt_stdio_output@@@2@@__crt_stdio_output@@AAE_N_W@Z 00441f49 f i libucrt:output.obj
 0001:00040f52       ?state_case_normal_tchar@?$output_processor@_WV?$string_output_adapter@_W@__crt_stdio_output@@V?$standard_base@_WV?$string_output_adapter@_W@__crt_stdio_output@@@2@@__crt_stdio_output@@AAE_N_W@Z 00441f52 f i libucrt:output.obj
 0001:00040f5b       ?state_case_percent@?$output_processor@DV?$stream_output_adapter@D@__crt_stdio_output@@V?$format_validation_base@DV?$stream_output_adapter@D@__crt_stdio_output@@@2@@__crt_stdio_output@@AAE_NXZ 00441f5b f i libucrt:output.obj
 0001:00040f73       ?state_case_percent@?$output_processor@DV?$stream_output_adapter@D@__crt_stdio_output@@V?$positional_parameter_base@DV?$stream_output_adapter@D@__crt_stdio_output@@@2@@__crt_stdio_output@@AAE_NXZ 00441f73 f i libucrt:output.obj
 0001:00040f8b       ?state_case_percent@?$output_processor@DV?$stream_output_adapter@D@__crt_stdio_output@@V?$standard_base@DV?$stream_output_adapter@D@__crt_stdio_output@@@2@@__crt_stdio_output@@AAE_NXZ 00441f8b f i libucrt:output.obj
 0001:00040fa3       ?state_case_percent@?$output_processor@DV?$string_output_adapter@D@__crt_stdio_output@@V?$format_validation_base@DV?$string_output_adapter@D@__crt_stdio_output@@@2@@__crt_stdio_output@@AAE_NXZ 00441fa3 f i libucrt:output.obj
 0001:00040fbb       ?state_case_percent@?$output_processor@DV?$string_output_adapter@D@__crt_stdio_output@@V?$positional_parameter_base@DV?$string_output_adapter@D@__crt_stdio_output@@@2@@__crt_stdio_output@@AAE_NXZ 00441fbb f i libucrt:output.obj
 0001:00040fd3       ?state_case_percent@?$output_processor@DV?$string_output_adapter@D@__crt_stdio_output@@V?$standard_base@DV?$string_output_adapter@D@__crt_stdio_output@@@2@@__crt_stdio_output@@AAE_NXZ 00441fd3 f i libucrt:output.obj
 0001:00040feb       ?state_case_percent@?$output_processor@_WV?$stream_output_adapter@_W@__crt_stdio_output@@V?$format_validation_base@_WV?$stream_output_adapter@_W@__crt_stdio_output@@@2@@__crt_stdio_output@@AAE_NXZ 00441feb f i libucrt:output.obj
 0001:00041003       ?state_case_percent@?$output_processor@_WV?$stream_output_adapter@_W@__crt_stdio_output@@V?$positional_parameter_base@_WV?$stream_output_adapter@_W@__crt_stdio_output@@@2@@__crt_stdio_output@@AAE_NXZ 00442003 f i libucrt:output.obj
 0001:0004101b       ?state_case_percent@?$output_processor@_WV?$stream_output_adapter@_W@__crt_stdio_output@@V?$standard_base@_WV?$stream_output_adapter@_W@__crt_stdio_output@@@2@@__crt_stdio_output@@AAE_NXZ 0044201b f i libucrt:output.obj
 0001:00041033       ?state_case_percent@?$output_processor@_WV?$string_output_adapter@_W@__crt_stdio_output@@V?$format_validation_base@_WV?$string_output_adapter@_W@__crt_stdio_output@@@2@@__crt_stdio_output@@AAE_NXZ 00442033 f i libucrt:output.obj
 0001:0004104b       ?state_case_percent@?$output_processor@_WV?$string_output_adapter@_W@__crt_stdio_output@@V?$positional_parameter_base@_WV?$string_output_adapter@_W@__crt_stdio_output@@@2@@__crt_stdio_output@@AAE_NXZ 0044204b f i libucrt:output.obj
 0001:00041063       ?state_case_percent@?$output_processor@_WV?$string_output_adapter@_W@__crt_stdio_output@@V?$standard_base@_WV?$string_output_adapter@_W@__crt_stdio_output@@@2@@__crt_stdio_output@@AAE_NXZ 00442063 f i libucrt:output.obj
 0001:0004107b       ?state_case_precision@?$output_processor@DV?$stream_output_adapter@D@__crt_stdio_output@@V?$format_validation_base@DV?$stream_output_adapter@D@__crt_stdio_output@@@2@@__crt_stdio_output@@AAE_NXZ 0044207b f i libucrt:output.obj
 0001:000410a1       ?state_case_precision@?$output_processor@DV?$stream_output_adapter@D@__crt_stdio_output@@V?$positional_parameter_base@DV?$stream_output_adapter@D@__crt_stdio_output@@@2@@__crt_stdio_output@@AAE_NXZ 004420a1 f i libucrt:output.obj
 0001:000410db       ?state_case_precision@?$output_processor@DV?$stream_output_adapter@D@__crt_stdio_output@@V?$standard_base@DV?$stream_output_adapter@D@__crt_stdio_output@@@2@@__crt_stdio_output@@AAE_NXZ 004420db f i libucrt:output.obj
 0001:00041101       ?state_case_precision@?$output_processor@DV?$string_output_adapter@D@__crt_stdio_output@@V?$format_validation_base@DV?$string_output_adapter@D@__crt_stdio_output@@@2@@__crt_stdio_output@@AAE_NXZ 00442101 f i libucrt:output.obj
 0001:00041127       ?state_case_precision@?$output_processor@DV?$string_output_adapter@D@__crt_stdio_output@@V?$positional_parameter_base@DV?$string_output_adapter@D@__crt_stdio_output@@@2@@__crt_stdio_output@@AAE_NXZ 00442127 f i libucrt:output.obj
 0001:00041161       ?state_case_precision@?$output_processor@DV?$string_output_adapter@D@__crt_stdio_output@@V?$standard_base@DV?$string_output_adapter@D@__crt_stdio_output@@@2@@__crt_stdio_output@@AAE_NXZ 00442161 f i libucrt:output.obj
 0001:00041187       ?state_case_precision@?$output_processor@_WV?$stream_output_adapter@_W@__crt_stdio_output@@V?$format_validation_base@_WV?$stream_output_adapter@_W@__crt_stdio_output@@@2@@__crt_stdio_output@@AAE_NXZ 00442187 f i libucrt:output.obj
 0001:000411ae       ?state_case_precision@?$output_processor@_WV?$stream_output_adapter@_W@__crt_stdio_output@@V?$positional_parameter_base@_WV?$stream_output_adapter@_W@__crt_stdio_output@@@2@@__crt_stdio_output@@AAE_NXZ 004421ae f i libucrt:output.obj
 0001:000411e9       ?state_case_precision@?$output_processor@_WV?$stream_output_adapter@_W@__crt_stdio_output@@V?$standard_base@_WV?$stream_output_adapter@_W@__crt_stdio_output@@@2@@__crt_stdio_output@@AAE_NXZ 004421e9 f i libucrt:output.obj
 0001:00041210       ?state_case_precision@?$output_processor@_WV?$string_output_adapter@_W@__crt_stdio_output@@V?$format_validation_base@_WV?$string_output_adapter@_W@__crt_stdio_output@@@2@@__crt_stdio_output@@AAE_NXZ 00442210 f i libucrt:output.obj
 0001:00041237       ?state_case_precision@?$output_processor@_WV?$string_output_adapter@_W@__crt_stdio_output@@V?$positional_parameter_base@_WV?$string_output_adapter@_W@__crt_stdio_output@@@2@@__crt_stdio_output@@AAE_NXZ 00442237 f i libucrt:output.obj
 0001:00041272       ?state_case_precision@?$output_processor@_WV?$string_output_adapter@_W@__crt_stdio_output@@V?$standard_base@_WV?$string_output_adapter@_W@__crt_stdio_output@@@2@@__crt_stdio_output@@AAE_NXZ 00442272 f i libucrt:output.obj
 0001:00041299       ?state_case_size@?$output_processor@DV?$stream_output_adapter@D@__crt_stdio_output@@V?$format_validation_base@DV?$stream_output_adapter@D@__crt_stdio_output@@@2@@__crt_stdio_output@@AAE_NXZ 00442299 f i libucrt:output.obj
 0001:000413e7       ?state_case_size@?$output_processor@DV?$stream_output_adapter@D@__crt_stdio_output@@V?$positional_parameter_base@DV?$stream_output_adapter@D@__crt_stdio_output@@@2@@__crt_stdio_output@@AAE_NXZ 004423e7 f i libucrt:output.obj
 0001:00041535       ?state_case_size@?$output_processor@DV?$stream_output_adapter@D@__crt_stdio_output@@V?$standard_base@DV?$stream_output_adapter@D@__crt_stdio_output@@@2@@__crt_stdio_output@@AAE_NXZ 00442535 f i libucrt:output.obj
 0001:00041683       ?state_case_size@?$output_processor@DV?$string_output_adapter@D@__crt_stdio_output@@V?$format_validation_base@DV?$string_output_adapter@D@__crt_stdio_output@@@2@@__crt_stdio_output@@AAE_NXZ 00442683 f i libucrt:output.obj
 0001:000417d1       ?state_case_size@?$output_processor@DV?$string_output_adapter@D@__crt_stdio_output@@V?$positional_parameter_base@DV?$string_output_adapter@D@__crt_stdio_output@@@2@@__crt_stdio_output@@AAE_NXZ 004427d1 f i libucrt:output.obj
 0001:0004191f       ?state_case_size@?$output_processor@DV?$string_output_adapter@D@__crt_stdio_output@@V?$standard_base@DV?$string_output_adapter@D@__crt_stdio_output@@@2@@__crt_stdio_output@@AAE_NXZ 0044291f f i libucrt:output.obj
 0001:00041a6d       ?state_case_size@?$output_processor@_WV?$stream_output_adapter@_W@__crt_stdio_output@@V?$format_validation_base@_WV?$stream_output_adapter@_W@__crt_stdio_output@@@2@@__crt_stdio_output@@AAE_NXZ 00442a6d f i libucrt:output.obj
 0001:00041be5       ?state_case_size@?$output_processor@_WV?$stream_output_adapter@_W@__crt_stdio_output@@V?$positional_parameter_base@_WV?$stream_output_adapter@_W@__crt_stdio_output@@@2@@__crt_stdio_output@@AAE_NXZ 00442be5 f i libucrt:output.obj
 0001:00041d5d       ?state_case_size@?$output_processor@_WV?$stream_output_adapter@_W@__crt_stdio_output@@V?$standard_base@_WV?$stream_output_adapter@_W@__crt_stdio_output@@@2@@__crt_stdio_output@@AAE_NXZ 00442d5d f i libucrt:output.obj
 0001:00041ed5       ?state_case_size@?$output_processor@_WV?$string_output_adapter@_W@__crt_stdio_output@@V?$format_validation_base@_WV?$string_output_adapter@_W@__crt_stdio_output@@@2@@__crt_stdio_output@@AAE_NXZ 00442ed5 f i libucrt:output.obj
 0001:0004204d       ?state_case_size@?$output_processor@_WV?$string_output_adapter@_W@__crt_stdio_output@@V?$positional_parameter_base@_WV?$string_output_adapter@_W@__crt_stdio_output@@@2@@__crt_stdio_output@@AAE_NXZ 0044304d f i libucrt:output.obj
 0001:000421c5       ?state_case_size@?$output_processor@_WV?$string_output_adapter@_W@__crt_stdio_output@@V?$standard_base@_WV?$string_output_adapter@_W@__crt_stdio_output@@@2@@__crt_stdio_output@@AAE_NXZ 004431c5 f i libucrt:output.obj
 0001:0004233d       ?state_case_type@?$output_processor@DV?$stream_output_adapter@D@__crt_stdio_output@@V?$format_validation_base@DV?$stream_output_adapter@D@__crt_stdio_output@@@2@@__crt_stdio_output@@AAE_NXZ 0044333d f i libucrt:output.obj
 0001:0004256f       ?state_case_type@?$output_processor@DV?$stream_output_adapter@D@__crt_stdio_output@@V?$positional_parameter_base@DV?$stream_output_adapter@D@__crt_stdio_output@@@2@@__crt_stdio_output@@AAE_NXZ 0044356f f i libucrt:output.obj
 0001:000427b0       ?state_case_type@?$output_processor@DV?$stream_output_adapter@D@__crt_stdio_output@@V?$standard_base@DV?$stream_output_adapter@D@__crt_stdio_output@@@2@@__crt_stdio_output@@AAE_NXZ 004437b0 f i libucrt:output.obj
 0001:000429e2       ?state_case_type@?$output_processor@DV?$string_output_adapter@D@__crt_stdio_output@@V?$format_validation_base@DV?$string_output_adapter@D@__crt_stdio_output@@@2@@__crt_stdio_output@@AAE_NXZ 004439e2 f i libucrt:output.obj
 0001:00042c14       ?state_case_type@?$output_processor@DV?$string_output_adapter@D@__crt_stdio_output@@V?$positional_parameter_base@DV?$string_output_adapter@D@__crt_stdio_output@@@2@@__crt_stdio_output@@AAE_NXZ 00443c14 f i libucrt:output.obj
 0001:00042e55       ?state_case_type@?$output_processor@DV?$string_output_adapter@D@__crt_stdio_output@@V?$standard_base@DV?$string_output_adapter@D@__crt_stdio_output@@@2@@__crt_stdio_output@@AAE_NXZ 00443e55 f i libucrt:output.obj
 0001:00043087       ?state_case_type@?$output_processor@_WV?$stream_output_adapter@_W@__crt_stdio_output@@V?$format_validation_base@_WV?$stream_output_adapter@_W@__crt_stdio_output@@@2@@__crt_stdio_output@@AAE_NXZ 00444087 f i libucrt:output.obj
 0001:000432e4       ?state_case_type@?$output_processor@_WV?$stream_output_adapter@_W@__crt_stdio_output@@V?$positional_parameter_base@_WV?$stream_output_adapter@_W@__crt_stdio_output@@@2@@__crt_stdio_output@@AAE_NXZ 004442e4 f i libucrt:output.obj
 0001:00043550       ?state_case_type@?$output_processor@_WV?$stream_output_adapter@_W@__crt_stdio_output@@V?$standard_base@_WV?$stream_output_adapter@_W@__crt_stdio_output@@@2@@__crt_stdio_output@@AAE_NXZ 00444550 f i libucrt:output.obj
 0001:000437ad       ?state_case_type@?$output_processor@_WV?$string_output_adapter@_W@__crt_stdio_output@@V?$format_validation_base@_WV?$string_output_adapter@_W@__crt_stdio_output@@@2@@__crt_stdio_output@@AAE_NXZ 004447ad f i libucrt:output.obj
 0001:00043a0a       ?state_case_type@?$output_processor@_WV?$string_output_adapter@_W@__crt_stdio_output@@V?$positional_parameter_base@_WV?$string_output_adapter@_W@__crt_stdio_output@@@2@@__crt_stdio_output@@AAE_NXZ 00444a0a f i libucrt:output.obj
 0001:00043c76       ?state_case_type@?$output_processor@_WV?$string_output_adapter@_W@__crt_stdio_output@@V?$standard_base@_WV?$string_output_adapter@_W@__crt_stdio_output@@@2@@__crt_stdio_output@@AAE_NXZ 00444c76 f i libucrt:output.obj
 0001:00043ed3       ?state_case_width@?$output_processor@DV?$stream_output_adapter@D@__crt_stdio_output@@V?$format_validation_base@DV?$stream_output_adapter@D@__crt_stdio_output@@@2@@__crt_stdio_output@@AAE_NXZ 00444ed3 f i libucrt:output.obj
 0001:00043efe       ?state_case_width@?$output_processor@DV?$stream_output_adapter@D@__crt_stdio_output@@V?$positional_parameter_base@DV?$stream_output_adapter@D@__crt_stdio_output@@@2@@__crt_stdio_output@@AAE_NXZ 00444efe f i libucrt:output.obj
 0001:00043f3e       ?state_case_width@?$output_processor@DV?$stream_output_adapter@D@__crt_stdio_output@@V?$standard_base@DV?$stream_output_adapter@D@__crt_stdio_output@@@2@@__crt_stdio_output@@AAE_NXZ 00444f3e f i libucrt:output.obj
 0001:00043f69       ?state_case_width@?$output_processor@DV?$string_output_adapter@D@__crt_stdio_output@@V?$format_validation_base@DV?$string_output_adapter@D@__crt_stdio_output@@@2@@__crt_stdio_output@@AAE_NXZ 00444f69 f i libucrt:output.obj
 0001:00043f94       ?state_case_width@?$output_processor@DV?$string_output_adapter@D@__crt_stdio_output@@V?$positional_parameter_base@DV?$string_output_adapter@D@__crt_stdio_output@@@2@@__crt_stdio_output@@AAE_NXZ 00444f94 f i libucrt:output.obj
 0001:00043fd4       ?state_case_width@?$output_processor@DV?$string_output_adapter@D@__crt_stdio_output@@V?$standard_base@DV?$string_output_adapter@D@__crt_stdio_output@@@2@@__crt_stdio_output@@AAE_NXZ 00444fd4 f i libucrt:output.obj
 0001:00043fff       ?state_case_width@?$output_processor@_WV?$stream_output_adapter@_W@__crt_stdio_output@@V?$format_validation_base@_WV?$stream_output_adapter@_W@__crt_stdio_output@@@2@@__crt_stdio_output@@AAE_NXZ 00444fff f i libucrt:output.obj
 0001:0004402b       ?state_case_width@?$output_processor@_WV?$stream_output_adapter@_W@__crt_stdio_output@@V?$positional_parameter_base@_WV?$stream_output_adapter@_W@__crt_stdio_output@@@2@@__crt_stdio_output@@AAE_NXZ 0044502b f i libucrt:output.obj
 0001:0004406c       ?state_case_width@?$output_processor@_WV?$stream_output_adapter@_W@__crt_stdio_output@@V?$standard_base@_WV?$stream_output_adapter@_W@__crt_stdio_output@@@2@@__crt_stdio_output@@AAE_NXZ 0044506c f i libucrt:output.obj
 0001:00044098       ?state_case_width@?$output_processor@_WV?$string_output_adapter@_W@__crt_stdio_output@@V?$format_validation_base@_WV?$string_output_adapter@_W@__crt_stdio_output@@@2@@__crt_stdio_output@@AAE_NXZ 00445098 f i libucrt:output.obj
 0001:000440c4       ?state_case_width@?$output_processor@_WV?$string_output_adapter@_W@__crt_stdio_output@@V?$positional_parameter_base@_WV?$string_output_adapter@_W@__crt_stdio_output@@@2@@__crt_stdio_output@@AAE_NXZ 004450c4 f i libucrt:output.obj
 0001:00044105       ?state_case_width@?$output_processor@_WV?$string_output_adapter@_W@__crt_stdio_output@@V?$standard_base@_WV?$string_output_adapter@_W@__crt_stdio_output@@@2@@__crt_stdio_output@@AAE_NXZ 00445105 f i libucrt:output.obj
 0001:00044131       ?state_count@?$format_validation_base@DV?$stream_output_adapter@D@__crt_stdio_output@@@__crt_stdio_output@@KAIXZ 00445131 f i libucrt:output.obj
 0001:00044135       ?state_count@?$format_validation_base@DV?$string_output_adapter@D@__crt_stdio_output@@@__crt_stdio_output@@KAIXZ 00445135 f i libucrt:output.obj
 0001:00044139       ?state_count@?$format_validation_base@_WV?$stream_output_adapter@_W@__crt_stdio_output@@@__crt_stdio_output@@KAIXZ 00445139 f i libucrt:output.obj
 0001:0004413d       ?state_count@?$format_validation_base@_WV?$string_output_adapter@_W@__crt_stdio_output@@@__crt_stdio_output@@KAIXZ 0044513d f i libucrt:output.obj
 0001:00044141       ?state_count@?$standard_base@DV?$stream_output_adapter@D@__crt_stdio_output@@@__crt_stdio_output@@KAIXZ 00445141 f i libucrt:output.obj
 0001:00044145       ?state_count@?$standard_base@DV?$string_output_adapter@D@__crt_stdio_output@@@__crt_stdio_output@@KAIXZ 00445145 f i libucrt:output.obj
 0001:00044149       ?state_count@?$standard_base@_WV?$stream_output_adapter@_W@__crt_stdio_output@@@__crt_stdio_output@@KAIXZ 00445149 f i libucrt:output.obj
 0001:0004414d       ?state_count@?$standard_base@_WV?$string_output_adapter@_W@__crt_stdio_output@@@__crt_stdio_output@@KAIXZ 0044514d f i libucrt:output.obj
 0001:00044151       ?state_transition_table@?$format_validation_base@DV?$stream_output_adapter@D@__crt_stdio_output@@@__crt_stdio_output@@KAABV?$spectre_mitigated_lookup_table@Ustate_transition_pair@__crt_stdio_output@@$0IA@@2@XZ 00445151 f i libucrt:output.obj
 0001:00044157       ?state_transition_table@?$format_validation_base@DV?$string_output_adapter@D@__crt_stdio_output@@@__crt_stdio_output@@KAABV?$spectre_mitigated_lookup_table@Ustate_transition_pair@__crt_stdio_output@@$0IA@@2@XZ 00445157 f i libucrt:output.obj
 0001:0004415d       ?state_transition_table@?$format_validation_base@_WV?$stream_output_adapter@_W@__crt_stdio_output@@@__crt_stdio_output@@KAABV?$spectre_mitigated_lookup_table@Ustate_transition_pair@__crt_stdio_output@@$0IA@@2@XZ 0044515d f i libucrt:output.obj
 0001:00044163       ?state_transition_table@?$format_validation_base@_WV?$string_output_adapter@_W@__crt_stdio_output@@@__crt_stdio_output@@KAABV?$spectre_mitigated_lookup_table@Ustate_transition_pair@__crt_stdio_output@@$0IA@@2@XZ 00445163 f i libucrt:output.obj
 0001:00044169       ?state_transition_table@?$standard_base@DV?$stream_output_adapter@D@__crt_stdio_output@@@__crt_stdio_output@@KAABV?$spectre_mitigated_lookup_table@Ustate_transition_pair@__crt_stdio_output@@$0IA@@2@XZ 00445169 f i libucrt:output.obj
 0001:0004416f       ?state_transition_table@?$standard_base@DV?$string_output_adapter@D@__crt_stdio_output@@@__crt_stdio_output@@KAABV?$spectre_mitigated_lookup_table@Ustate_transition_pair@__crt_stdio_output@@$0IA@@2@XZ 0044516f f i libucrt:output.obj
 0001:00044175       ?state_transition_table@?$standard_base@_WV?$stream_output_adapter@_W@__crt_stdio_output@@@__crt_stdio_output@@KAABV?$spectre_mitigated_lookup_table@Ustate_transition_pair@__crt_stdio_output@@$0IA@@2@XZ 00445175 f i libucrt:output.obj
 0001:0004417b       ?state_transition_table@?$standard_base@_WV?$string_output_adapter@_W@__crt_stdio_output@@@__crt_stdio_output@@KAABV?$spectre_mitigated_lookup_table@Ustate_transition_pair@__crt_stdio_output@@$0IA@@2@XZ 0044517b f i libucrt:output.obj
 0001:00044181       ?tchar_string@?$common_data@D@__crt_stdio_output@@IAEAAPADD@Z 00445181 f i libucrt:output.obj
 0001:00044187       ?tchar_string@?$common_data@D@__crt_stdio_output@@IAEAAPADXZ 00445187 f i libucrt:output.obj
 0001:0004418b       ?tchar_string@?$common_data@_W@__crt_stdio_output@@IAEAAPA_WXZ 0044518b f i libucrt:output.obj
 0001:0004418f       ?tchar_string@?$common_data@_W@__crt_stdio_output@@IAEAAPA_W_W@Z 0044518f f i libucrt:output.obj
 0001:000441a0       ?to_integer_size@__crt_stdio_output@@YAIW4length_modifier@1@@Z 004451a0 f i libucrt:output.obj
 0001:000441fc       ?type_case_X@?$output_processor@DV?$stream_output_adapter@D@__crt_stdio_output@@V?$format_validation_base@DV?$stream_output_adapter@D@__crt_stdio_output@@@2@@__crt_stdio_output@@AAE_NXZ 004451fc f i libucrt:output.obj
 0001:00044206       ?type_case_X@?$output_processor@DV?$stream_output_adapter@D@__crt_stdio_output@@V?$positional_parameter_base@DV?$stream_output_adapter@D@__crt_stdio_output@@@2@@__crt_stdio_output@@AAE_NXZ 00445206 f i libucrt:output.obj
 0001:00044210       ?type_case_X@?$output_processor@DV?$stream_output_adapter@D@__crt_stdio_output@@V?$standard_base@DV?$stream_output_adapter@D@__crt_stdio_output@@@2@@__crt_stdio_output@@AAE_NXZ 00445210 f i libucrt:output.obj
 0001:0004421a       ?type_case_X@?$output_processor@DV?$string_output_adapter@D@__crt_stdio_output@@V?$format_validation_base@DV?$string_output_adapter@D@__crt_stdio_output@@@2@@__crt_stdio_output@@AAE_NXZ 0044521a f i libucrt:output.obj
 0001:00044224       ?type_case_X@?$output_processor@DV?$string_output_adapter@D@__crt_stdio_output@@V?$positional_parameter_base@DV?$string_output_adapter@D@__crt_stdio_output@@@2@@__crt_stdio_output@@AAE_NXZ 00445224 f i libucrt:output.obj
 0001:0004422e       ?type_case_X@?$output_processor@DV?$string_output_adapter@D@__crt_stdio_output@@V?$standard_base@DV?$string_output_adapter@D@__crt_stdio_output@@@2@@__crt_stdio_output@@AAE_NXZ 0044522e f i libucrt:output.obj
 0001:00044238       ?type_case_X@?$output_processor@_WV?$stream_output_adapter@_W@__crt_stdio_output@@V?$format_validation_base@_WV?$stream_output_adapter@_W@__crt_stdio_output@@@2@@__crt_stdio_output@@AAE_NXZ 00445238 f i libucrt:output.obj
 0001:00044242       ?type_case_X@?$output_processor@_WV?$stream_output_adapter@_W@__crt_stdio_output@@V?$positional_parameter_base@_WV?$stream_output_adapter@_W@__crt_stdio_output@@@2@@__crt_stdio_output@@AAE_NXZ 00445242 f i libucrt:output.obj
 0001:0004424c       ?type_case_X@?$output_processor@_WV?$stream_output_adapter@_W@__crt_stdio_output@@V?$standard_base@_WV?$stream_output_adapter@_W@__crt_stdio_output@@@2@@__crt_stdio_output@@AAE_NXZ 0044524c f i libucrt:output.obj
 0001:00044256       ?type_case_X@?$output_processor@_WV?$string_output_adapter@_W@__crt_stdio_output@@V?$format_validation_base@_WV?$string_output_adapter@_W@__crt_stdio_output@@@2@@__crt_stdio_output@@AAE_NXZ 00445256 f i libucrt:output.obj
 0001:00044260       ?type_case_X@?$output_processor@_WV?$string_output_adapter@_W@__crt_stdio_output@@V?$positional_parameter_base@_WV?$string_output_adapter@_W@__crt_stdio_output@@@2@@__crt_stdio_output@@AAE_NXZ 00445260 f i libucrt:output.obj
 0001:0004426a       ?type_case_X@?$output_processor@_WV?$string_output_adapter@_W@__crt_stdio_output@@V?$standard_base@_WV?$string_output_adapter@_W@__crt_stdio_output@@@2@@__crt_stdio_output@@AAE_NXZ 0044526a f i libucrt:output.obj
 0001:00044274       ?type_case_Z@?$output_processor@DV?$stream_output_adapter@D@__crt_stdio_output@@V?$format_validation_base@DV?$stream_output_adapter@D@__crt_stdio_output@@@2@@__crt_stdio_output@@AAE_NXZ 00445274 f i libucrt:output.obj
 0001:000442ce       ?type_case_Z@?$output_processor@DV?$stream_output_adapter@D@__crt_stdio_output@@V?$positional_parameter_base@DV?$stream_output_adapter@D@__crt_stdio_output@@@2@@__crt_stdio_output@@AAE_NXZ 004452ce f i libucrt:output.obj
 0001:00044342       ?type_case_Z@?$output_processor@DV?$stream_output_adapter@D@__crt_stdio_output@@V?$standard_base@DV?$stream_output_adapter@D@__crt_stdio_output@@@2@@__crt_stdio_output@@AAE_NXZ 00445342 f i libucrt:output.obj
 0001:0004439c       ?type_case_Z@?$output_processor@DV?$string_output_adapter@D@__crt_stdio_output@@V?$format_validation_base@DV?$string_output_adapter@D@__crt_stdio_output@@@2@@__crt_stdio_output@@AAE_NXZ 0044539c f i libucrt:output.obj
 0001:000443f6       ?type_case_Z@?$output_processor@DV?$string_output_adapter@D@__crt_stdio_output@@V?$positional_parameter_base@DV?$string_output_adapter@D@__crt_stdio_output@@@2@@__crt_stdio_output@@AAE_NXZ 004453f6 f i libucrt:output.obj
 0001:0004446a       ?type_case_Z@?$output_processor@DV?$string_output_adapter@D@__crt_stdio_output@@V?$standard_base@DV?$string_output_adapter@D@__crt_stdio_output@@@2@@__crt_stdio_output@@AAE_NXZ 0044546a f i libucrt:output.obj
 0001:000444c4       ?type_case_Z@?$output_processor@_WV?$stream_output_adapter@_W@__crt_stdio_output@@V?$format_validation_base@_WV?$stream_output_adapter@_W@__crt_stdio_output@@@2@@__crt_stdio_output@@AAE_NXZ 004454c4 f i libucrt:output.obj
 0001:0004451e       ?type_case_Z@?$output_processor@_WV?$stream_output_adapter@_W@__crt_stdio_output@@V?$positional_parameter_base@_WV?$stream_output_adapter@_W@__crt_stdio_output@@@2@@__crt_stdio_output@@AAE_NXZ 0044551e f i libucrt:output.obj
 0001:00044592       ?type_case_Z@?$output_processor@_WV?$stream_output_adapter@_W@__crt_stdio_output@@V?$standard_base@_WV?$stream_output_adapter@_W@__crt_stdio_output@@@2@@__crt_stdio_output@@AAE_NXZ 00445592 f i libucrt:output.obj
 0001:000445ec       ?type_case_Z@?$output_processor@_WV?$string_output_adapter@_W@__crt_stdio_output@@V?$format_validation_base@_WV?$string_output_adapter@_W@__crt_stdio_output@@@2@@__crt_stdio_output@@AAE_NXZ 004455ec f i libucrt:output.obj
 0001:00044646       ?type_case_Z@?$output_processor@_WV?$string_output_adapter@_W@__crt_stdio_output@@V?$positional_parameter_base@_WV?$string_output_adapter@_W@__crt_stdio_output@@@2@@__crt_stdio_output@@AAE_NXZ 00445646 f i libucrt:output.obj
 0001:000446ba       ?type_case_Z@?$output_processor@_WV?$string_output_adapter@_W@__crt_stdio_output@@V?$standard_base@_WV?$string_output_adapter@_W@__crt_stdio_output@@@2@@__crt_stdio_output@@AAE_NXZ 004456ba f i libucrt:output.obj
 0001:00044714       ?type_case_a@?$output_processor@DV?$stream_output_adapter@D@__crt_stdio_output@@V?$format_validation_base@DV?$stream_output_adapter@D@__crt_stdio_output@@@2@@__crt_stdio_output@@AAE_NXZ 00445714 f i libucrt:output.obj
 0001:00044865       ?type_case_a@?$output_processor@DV?$stream_output_adapter@D@__crt_stdio_output@@V?$positional_parameter_base@DV?$stream_output_adapter@D@__crt_stdio_output@@@2@@__crt_stdio_output@@AAE_NXZ 00445865 f i libucrt:output.obj
 0001:000449e2       ?type_case_a@?$output_processor@DV?$stream_output_adapter@D@__crt_stdio_output@@V?$standard_base@DV?$stream_output_adapter@D@__crt_stdio_output@@@2@@__crt_stdio_output@@AAE_NXZ 004459e2 f i libucrt:output.obj
 0001:00044b33       ?type_case_a@?$output_processor@DV?$string_output_adapter@D@__crt_stdio_output@@V?$format_validation_base@DV?$string_output_adapter@D@__crt_stdio_output@@@2@@__crt_stdio_output@@AAE_NXZ 00445b33 f i libucrt:output.obj
 0001:00044c84       ?type_case_a@?$output_processor@DV?$string_output_adapter@D@__crt_stdio_output@@V?$positional_parameter_base@DV?$string_output_adapter@D@__crt_stdio_output@@@2@@__crt_stdio_output@@AAE_NXZ 00445c84 f i libucrt:output.obj
 0001:00044e01       ?type_case_a@?$output_processor@DV?$string_output_adapter@D@__crt_stdio_output@@V?$standard_base@DV?$string_output_adapter@D@__crt_stdio_output@@@2@@__crt_stdio_output@@AAE_NXZ 00445e01 f i libucrt:output.obj
 0001:00044f52       ?type_case_a@?$output_processor@_WV?$stream_output_adapter@_W@__crt_stdio_output@@V?$format_validation_base@_WV?$stream_output_adapter@_W@__crt_stdio_output@@@2@@__crt_stdio_output@@AAE_NXZ 00445f52 f i libucrt:output.obj
 0001:000450b9       ?type_case_a@?$output_processor@_WV?$stream_output_adapter@_W@__crt_stdio_output@@V?$positional_parameter_base@_WV?$stream_output_adapter@_W@__crt_stdio_output@@@2@@__crt_stdio_output@@AAE_NXZ 004460b9 f i libucrt:output.obj
 0001:0004524c       ?type_case_a@?$output_processor@_WV?$stream_output_adapter@_W@__crt_stdio_output@@V?$standard_base@_WV?$stream_output_adapter@_W@__crt_stdio_output@@@2@@__crt_stdio_output@@AAE_NXZ 0044624c f i libucrt:output.obj
 0001:000453b3       ?type_case_a@?$output_processor@_WV?$string_output_adapter@_W@__crt_stdio_output@@V?$format_validation_base@_WV?$string_output_adapter@_W@__crt_stdio_output@@@2@@__crt_stdio_output@@AAE_NXZ 004463b3 f i libucrt:output.obj
 0001:0004551a       ?type_case_a@?$output_processor@_WV?$string_output_adapter@_W@__crt_stdio_output@@V?$positional_parameter_base@_WV?$string_output_adapter@_W@__crt_stdio_output@@@2@@__crt_stdio_output@@AAE_NXZ 0044651a f i libucrt:output.obj
 0001:000456ad       ?type_case_a@?$output_processor@_WV?$string_output_adapter@_W@__crt_stdio_output@@V?$standard_base@_WV?$string_output_adapter@_W@__crt_stdio_output@@@2@@__crt_stdio_output@@AAE_NXZ 004466ad f i libucrt:output.obj
 0001:00045814       ?type_case_c@?$output_processor@DV?$stream_output_adapter@D@__crt_stdio_output@@V?$format_validation_base@DV?$stream_output_adapter@D@__crt_stdio_output@@@2@@__crt_stdio_output@@AAE_NXZ 00446814 f i libucrt:output.obj
 0001:0004581c       ?type_case_c@?$output_processor@DV?$stream_output_adapter@D@__crt_stdio_output@@V?$positional_parameter_base@DV?$stream_output_adapter@D@__crt_stdio_output@@@2@@__crt_stdio_output@@AAE_NXZ 0044681c f i libucrt:output.obj
 0001:00045824       ?type_case_c@?$output_processor@DV?$stream_output_adapter@D@__crt_stdio_output@@V?$standard_base@DV?$stream_output_adapter@D@__crt_stdio_output@@@2@@__crt_stdio_output@@AAE_NXZ 00446824 f i libucrt:output.obj
 0001:0004582c       ?type_case_c@?$output_processor@DV?$string_output_adapter@D@__crt_stdio_output@@V?$format_validation_base@DV?$string_output_adapter@D@__crt_stdio_output@@@2@@__crt_stdio_output@@AAE_NXZ 0044682c f i libucrt:output.obj
 0001:00045834       ?type_case_c@?$output_processor@DV?$string_output_adapter@D@__crt_stdio_output@@V?$positional_parameter_base@DV?$string_output_adapter@D@__crt_stdio_output@@@2@@__crt_stdio_output@@AAE_NXZ 00446834 f i libucrt:output.obj
 0001:0004583c       ?type_case_c@?$output_processor@DV?$string_output_adapter@D@__crt_stdio_output@@V?$standard_base@DV?$string_output_adapter@D@__crt_stdio_output@@@2@@__crt_stdio_output@@AAE_NXZ 0044683c f i libucrt:output.obj
 0001:00045844       ?type_case_c@?$output_processor@_WV?$stream_output_adapter@_W@__crt_stdio_output@@V?$format_validation_base@_WV?$stream_output_adapter@_W@__crt_stdio_output@@@2@@__crt_stdio_output@@AAE_NXZ 00446844 f i libucrt:output.obj
 0001:0004584c       ?type_case_c@?$output_processor@_WV?$stream_output_adapter@_W@__crt_stdio_output@@V?$positional_parameter_base@_WV?$stream_output_adapter@_W@__crt_stdio_output@@@2@@__crt_stdio_output@@AAE_NXZ 0044684c f i libucrt:output.obj
 0001:00045854       ?type_case_c@?$output_processor@_WV?$stream_output_adapter@_W@__crt_stdio_output@@V?$standard_base@_WV?$stream_output_adapter@_W@__crt_stdio_output@@@2@@__crt_stdio_output@@AAE_NXZ 00446854 f i libucrt:output.obj
 0001:0004585c       ?type_case_c@?$output_processor@_WV?$string_output_adapter@_W@__crt_stdio_output@@V?$format_validation_base@_WV?$string_output_adapter@_W@__crt_stdio_output@@@2@@__crt_stdio_output@@AAE_NXZ 0044685c f i libucrt:output.obj
 0001:00045864       ?type_case_c@?$output_processor@_WV?$string_output_adapter@_W@__crt_stdio_output@@V?$positional_parameter_base@_WV?$string_output_adapter@_W@__crt_stdio_output@@@2@@__crt_stdio_output@@AAE_NXZ 00446864 f i libucrt:output.obj
 0001:0004586c       ?type_case_c@?$output_processor@_WV?$string_output_adapter@_W@__crt_stdio_output@@V?$standard_base@_WV?$string_output_adapter@_W@__crt_stdio_output@@@2@@__crt_stdio_output@@AAE_NXZ 0044686c f i libucrt:output.obj
 0001:00045874       ?type_case_c_tchar@?$output_processor@DV?$stream_output_adapter@D@__crt_stdio_output@@V?$format_validation_base@DV?$stream_output_adapter@D@__crt_stdio_output@@@2@@__crt_stdio_output@@AAE_ND@Z 00446874 f i libucrt:output.obj
 0001:00045907       ?type_case_c_tchar@?$output_processor@DV?$stream_output_adapter@D@__crt_stdio_output@@V?$positional_parameter_base@DV?$stream_output_adapter@D@__crt_stdio_output@@@2@@__crt_stdio_output@@AAE_ND@Z 00446907 f i libucrt:output.obj
 0001:000459c8       ?type_case_c_tchar@?$output_processor@DV?$stream_output_adapter@D@__crt_stdio_output@@V?$standard_base@DV?$stream_output_adapter@D@__crt_stdio_output@@@2@@__crt_stdio_output@@AAE_ND@Z 004469c8 f i libucrt:output.obj
 0001:00045a5b       ?type_case_c_tchar@?$output_processor@DV?$string_output_adapter@D@__crt_stdio_output@@V?$format_validation_base@DV?$string_output_adapter@D@__crt_stdio_output@@@2@@__crt_stdio_output@@AAE_ND@Z 00446a5b f i libucrt:output.obj
 0001:00045aee       ?type_case_c_tchar@?$output_processor@DV?$string_output_adapter@D@__crt_stdio_output@@V?$positional_parameter_base@DV?$string_output_adapter@D@__crt_stdio_output@@@2@@__crt_stdio_output@@AAE_ND@Z 00446aee f i libucrt:output.obj
 0001:00045baf       ?type_case_c_tchar@?$output_processor@DV?$string_output_adapter@D@__crt_stdio_output@@V?$standard_base@DV?$string_output_adapter@D@__crt_stdio_output@@@2@@__crt_stdio_output@@AAE_ND@Z 00446baf f i libucrt:output.obj
 0001:00045c42       ?type_case_c_tchar@?$output_processor@_WV?$stream_output_adapter@_W@__crt_stdio_output@@V?$format_validation_base@_WV?$stream_output_adapter@_W@__crt_stdio_output@@@2@@__crt_stdio_output@@AAE_N_W@Z 00446c42 f i libucrt:output.obj
 0001:00045cd8       ?type_case_c_tchar@?$output_processor@_WV?$stream_output_adapter@_W@__crt_stdio_output@@V?$positional_parameter_base@_WV?$stream_output_adapter@_W@__crt_stdio_output@@@2@@__crt_stdio_output@@AAE_N_W@Z 00446cd8 f i libucrt:output.obj
 0001:00045d85       ?type_case_c_tchar@?$output_processor@_WV?$stream_output_adapter@_W@__crt_stdio_output@@V?$standard_base@_WV?$stream_output_adapter@_W@__crt_stdio_output@@@2@@__crt_stdio_output@@AAE_N_W@Z 00446d85 f i libucrt:output.obj
 0001:00045e1b       ?type_case_c_tchar@?$output_processor@_WV?$string_output_adapter@_W@__crt_stdio_output@@V?$format_validation_base@_WV?$string_output_adapter@_W@__crt_stdio_output@@@2@@__crt_stdio_output@@AAE_N_W@Z 00446e1b f i libucrt:output.obj
 0001:00045eb1       ?type_case_c_tchar@?$output_processor@_WV?$string_output_adapter@_W@__crt_stdio_output@@V?$positional_parameter_base@_WV?$string_output_adapter@_W@__crt_stdio_output@@@2@@__crt_stdio_output@@AAE_N_W@Z 00446eb1 f i libucrt:output.obj
 0001:00045f5e       ?type_case_c_tchar@?$output_processor@_WV?$string_output_adapter@_W@__crt_stdio_output@@V?$standard_base@_WV?$string_output_adapter@_W@__crt_stdio_output@@@2@@__crt_stdio_output@@AAE_N_W@Z 00446f5e f i libucrt:output.obj
 0001:00045ff4       ?type_case_d@?$output_processor@DV?$stream_output_adapter@D@__crt_stdio_output@@V?$format_validation_base@DV?$stream_output_adapter@D@__crt_stdio_output@@@2@@__crt_stdio_output@@AAE_NXZ 00446ff4 f i libucrt:output.obj
 0001:00046002       ?type_case_d@?$output_processor@DV?$stream_output_adapter@D@__crt_stdio_output@@V?$positional_parameter_base@DV?$stream_output_adapter@D@__crt_stdio_output@@@2@@__crt_stdio_output@@AAE_NXZ 00447002 f i libucrt:output.obj
 0001:00046010       ?type_case_d@?$output_processor@DV?$stream_output_adapter@D@__crt_stdio_output@@V?$standard_base@DV?$stream_output_adapter@D@__crt_stdio_output@@@2@@__crt_stdio_output@@AAE_NXZ 00447010 f i libucrt:output.obj
 0001:0004601e       ?type_case_d@?$output_processor@DV?$string_output_adapter@D@__crt_stdio_output@@V?$format_validation_base@DV?$string_output_adapter@D@__crt_stdio_output@@@2@@__crt_stdio_output@@AAE_NXZ 0044701e f i libucrt:output.obj
 0001:0004602c       ?type_case_d@?$output_processor@DV?$string_output_adapter@D@__crt_stdio_output@@V?$positional_parameter_base@DV?$string_output_adapter@D@__crt_stdio_output@@@2@@__crt_stdio_output@@AAE_NXZ 0044702c f i libucrt:output.obj
 0001:0004603a       ?type_case_d@?$output_processor@DV?$string_output_adapter@D@__crt_stdio_output@@V?$standard_base@DV?$string_output_adapter@D@__crt_stdio_output@@@2@@__crt_stdio_output@@AAE_NXZ 0044703a f i libucrt:output.obj
 0001:00046048       ?type_case_d@?$output_processor@_WV?$stream_output_adapter@_W@__crt_stdio_output@@V?$format_validation_base@_WV?$stream_output_adapter@_W@__crt_stdio_output@@@2@@__crt_stdio_output@@AAE_NXZ 00447048 f i libucrt:output.obj
 0001:00046056       ?type_case_d@?$output_processor@_WV?$stream_output_adapter@_W@__crt_stdio_output@@V?$positional_parameter_base@_WV?$stream_output_adapter@_W@__crt_stdio_output@@@2@@__crt_stdio_output@@AAE_NXZ 00447056 f i libucrt:output.obj
 0001:00046064       ?type_case_d@?$output_processor@_WV?$stream_output_adapter@_W@__crt_stdio_output@@V?$standard_base@_WV?$stream_output_adapter@_W@__crt_stdio_output@@@2@@__crt_stdio_output@@AAE_NXZ 00447064 f i libucrt:output.obj
 0001:00046072       ?type_case_d@?$output_processor@_WV?$string_output_adapter@_W@__crt_stdio_output@@V?$format_validation_base@_WV?$string_output_adapter@_W@__crt_stdio_output@@@2@@__crt_stdio_output@@AAE_NXZ 00447072 f i libucrt:output.obj
 0001:00046080       ?type_case_d@?$output_processor@_WV?$string_output_adapter@_W@__crt_stdio_output@@V?$positional_parameter_base@_WV?$string_output_adapter@_W@__crt_stdio_output@@@2@@__crt_stdio_output@@AAE_NXZ 00447080 f i libucrt:output.obj
 0001:0004608e       ?type_case_d@?$output_processor@_WV?$string_output_adapter@_W@__crt_stdio_output@@V?$standard_base@_WV?$string_output_adapter@_W@__crt_stdio_output@@@2@@__crt_stdio_output@@AAE_NXZ 0044708e f i libucrt:output.obj
 0001:0004609c       ?type_case_integer@?$output_processor@DV?$stream_output_adapter@D@__crt_stdio_output@@V?$format_validation_base@DV?$stream_output_adapter@D@__crt_stdio_output@@@2@@__crt_stdio_output@@AAE_NI_N@Z 0044709c f i libucrt:output.obj
 0001:000461ed       ?type_case_integer@?$output_processor@DV?$stream_output_adapter@D@__crt_stdio_output@@V?$positional_parameter_base@DV?$stream_output_adapter@D@__crt_stdio_output@@@2@@__crt_stdio_output@@AAE_NI_N@Z 004471ed f i libucrt:output.obj
 0001:0004636e       ?type_case_integer@?$output_processor@DV?$stream_output_adapter@D@__crt_stdio_output@@V?$standard_base@DV?$stream_output_adapter@D@__crt_stdio_output@@@2@@__crt_stdio_output@@AAE_NI_N@Z 0044736e f i libucrt:output.obj
 0001:000464bf       ?type_case_integer@?$output_processor@DV?$string_output_adapter@D@__crt_stdio_output@@V?$format_validation_base@DV?$string_output_adapter@D@__crt_stdio_output@@@2@@__crt_stdio_output@@AAE_NI_N@Z 004474bf f i libucrt:output.obj
 0001:00046610       ?type_case_integer@?$output_processor@DV?$string_output_adapter@D@__crt_stdio_output@@V?$positional_parameter_base@DV?$string_output_adapter@D@__crt_stdio_output@@@2@@__crt_stdio_output@@AAE_NI_N@Z 00447610 f i libucrt:output.obj
 0001:00046791       ?type_case_integer@?$output_processor@DV?$string_output_adapter@D@__crt_stdio_output@@V?$standard_base@DV?$string_output_adapter@D@__crt_stdio_output@@@2@@__crt_stdio_output@@AAE_NI_N@Z 00447791 f i libucrt:output.obj
 0001:000468e2       ?type_case_integer@?$output_processor@_WV?$stream_output_adapter@_W@__crt_stdio_output@@V?$format_validation_base@_WV?$stream_output_adapter@_W@__crt_stdio_output@@@2@@__crt_stdio_output@@AAE_NI_N@Z 004478e2 f i libucrt:output.obj
 0001:00046a37       ?type_case_integer@?$output_processor@_WV?$stream_output_adapter@_W@__crt_stdio_output@@V?$positional_parameter_base@_WV?$stream_output_adapter@_W@__crt_stdio_output@@@2@@__crt_stdio_output@@AAE_NI_N@Z 00447a37 f i libucrt:output.obj
 0001:00046bbc       ?type_case_integer@?$output_processor@_WV?$stream_output_adapter@_W@__crt_stdio_output@@V?$standard_base@_WV?$stream_output_adapter@_W@__crt_stdio_output@@@2@@__crt_stdio_output@@AAE_NI_N@Z 00447bbc f i libucrt:output.obj
 0001:00046d11       ?type_case_integer@?$output_processor@_WV?$string_output_adapter@_W@__crt_stdio_output@@V?$format_validation_base@_WV?$string_output_adapter@_W@__crt_stdio_output@@@2@@__crt_stdio_output@@AAE_NI_N@Z 00447d11 f i libucrt:output.obj
 0001:00046e66       ?type_case_integer@?$output_processor@_WV?$string_output_adapter@_W@__crt_stdio_output@@V?$positional_parameter_base@_WV?$string_output_adapter@_W@__crt_stdio_output@@@2@@__crt_stdio_output@@AAE_NI_N@Z 00447e66 f i libucrt:output.obj
 0001:00046feb       ?type_case_integer@?$output_processor@_WV?$string_output_adapter@_W@__crt_stdio_output@@V?$standard_base@_WV?$string_output_adapter@_W@__crt_stdio_output@@@2@@__crt_stdio_output@@AAE_NI_N@Z 00447feb f i libucrt:output.obj
 0001:00047140       ?type_case_n@?$output_processor@DV?$stream_output_adapter@D@__crt_stdio_output@@V?$format_validation_base@DV?$stream_output_adapter@D@__crt_stdio_output@@@2@@__crt_stdio_output@@AAE_NXZ 00448140 f i libucrt:output.obj
 0001:000471b4       ?type_case_n@?$output_processor@DV?$stream_output_adapter@D@__crt_stdio_output@@V?$positional_parameter_base@DV?$stream_output_adapter@D@__crt_stdio_output@@@2@@__crt_stdio_output@@AAE_NXZ 004481b4 f i libucrt:output.obj
 0001:0004724b       ?type_case_n@?$output_processor@DV?$stream_output_adapter@D@__crt_stdio_output@@V?$standard_base@DV?$stream_output_adapter@D@__crt_stdio_output@@@2@@__crt_stdio_output@@AAE_NXZ 0044824b f i libucrt:output.obj
 0001:000472bf       ?type_case_n@?$output_processor@DV?$string_output_adapter@D@__crt_stdio_output@@V?$format_validation_base@DV?$string_output_adapter@D@__crt_stdio_output@@@2@@__crt_stdio_output@@AAE_NXZ 004482bf f i libucrt:output.obj
 0001:00047333       ?type_case_n@?$output_processor@DV?$string_output_adapter@D@__crt_stdio_output@@V?$positional_parameter_base@DV?$string_output_adapter@D@__crt_stdio_output@@@2@@__crt_stdio_output@@AAE_NXZ 00448333 f i libucrt:output.obj
 0001:000473ca       ?type_case_n@?$output_processor@DV?$string_output_adapter@D@__crt_stdio_output@@V?$standard_base@DV?$string_output_adapter@D@__crt_stdio_output@@@2@@__crt_stdio_output@@AAE_NXZ 004483ca f i libucrt:output.obj
 0001:0004743e       ?type_case_n@?$output_processor@_WV?$stream_output_adapter@_W@__crt_stdio_output@@V?$format_validation_base@_WV?$stream_output_adapter@_W@__crt_stdio_output@@@2@@__crt_stdio_output@@AAE_NXZ 0044843e f i libucrt:output.obj
 0001:000474b2       ?type_case_n@?$output_processor@_WV?$stream_output_adapter@_W@__crt_stdio_output@@V?$positional_parameter_base@_WV?$stream_output_adapter@_W@__crt_stdio_output@@@2@@__crt_stdio_output@@AAE_NXZ 004484b2 f i libucrt:output.obj
 0001:00047549       ?type_case_n@?$output_processor@_WV?$stream_output_adapter@_W@__crt_stdio_output@@V?$standard_base@_WV?$stream_output_adapter@_W@__crt_stdio_output@@@2@@__crt_stdio_output@@AAE_NXZ 00448549 f i libucrt:output.obj
 0001:000475bd       ?type_case_n@?$output_processor@_WV?$string_output_adapter@_W@__crt_stdio_output@@V?$format_validation_base@_WV?$string_output_adapter@_W@__crt_stdio_output@@@2@@__crt_stdio_output@@AAE_NXZ 004485bd f i libucrt:output.obj
 0001:00047631       ?type_case_n@?$output_processor@_WV?$string_output_adapter@_W@__crt_stdio_output@@V?$positional_parameter_base@_WV?$string_output_adapter@_W@__crt_stdio_output@@@2@@__crt_stdio_output@@AAE_NXZ 00448631 f i libucrt:output.obj
 0001:000476c8       ?type_case_n@?$output_processor@_WV?$string_output_adapter@_W@__crt_stdio_output@@V?$standard_base@_WV?$string_output_adapter@_W@__crt_stdio_output@@@2@@__crt_stdio_output@@AAE_NXZ 004486c8 f i libucrt:output.obj
 0001:0004773c       ?type_case_o@?$output_processor@DV?$stream_output_adapter@D@__crt_stdio_output@@V?$format_validation_base@DV?$stream_output_adapter@D@__crt_stdio_output@@@2@@__crt_stdio_output@@AAE_NXZ 0044873c f i libucrt:output.obj
 0001:0004775b       ?type_case_o@?$output_processor@DV?$stream_output_adapter@D@__crt_stdio_output@@V?$positional_parameter_base@DV?$stream_output_adapter@D@__crt_stdio_output@@@2@@__crt_stdio_output@@AAE_NXZ 0044875b f i libucrt:output.obj
 0001:0004777a       ?type_case_o@?$output_processor@DV?$stream_output_adapter@D@__crt_stdio_output@@V?$standard_base@DV?$stream_output_adapter@D@__crt_stdio_output@@@2@@__crt_stdio_output@@AAE_NXZ 0044877a f i libucrt:output.obj
 0001:00047799       ?type_case_o@?$output_processor@DV?$string_output_adapter@D@__crt_stdio_output@@V?$format_validation_base@DV?$string_output_adapter@D@__crt_stdio_output@@@2@@__crt_stdio_output@@AAE_NXZ 00448799 f i libucrt:output.obj
 0001:000477b8       ?type_case_o@?$output_processor@DV?$string_output_adapter@D@__crt_stdio_output@@V?$positional_parameter_base@DV?$string_output_adapter@D@__crt_stdio_output@@@2@@__crt_stdio_output@@AAE_NXZ 004487b8 f i libucrt:output.obj
 0001:000477d7       ?type_case_o@?$output_processor@DV?$string_output_adapter@D@__crt_stdio_output@@V?$standard_base@DV?$string_output_adapter@D@__crt_stdio_output@@@2@@__crt_stdio_output@@AAE_NXZ 004487d7 f i libucrt:output.obj
 0001:000477f6       ?type_case_o@?$output_processor@_WV?$stream_output_adapter@_W@__crt_stdio_output@@V?$format_validation_base@_WV?$stream_output_adapter@_W@__crt_stdio_output@@@2@@__crt_stdio_output@@AAE_NXZ 004487f6 f i libucrt:output.obj
 0001:00047815       ?type_case_o@?$output_processor@_WV?$stream_output_adapter@_W@__crt_stdio_output@@V?$positional_parameter_base@_WV?$stream_output_adapter@_W@__crt_stdio_output@@@2@@__crt_stdio_output@@AAE_NXZ 00448815 f i libucrt:output.obj
 0001:00047834       ?type_case_o@?$output_processor@_WV?$stream_output_adapter@_W@__crt_stdio_output@@V?$standard_base@_WV?$stream_output_adapter@_W@__crt_stdio_output@@@2@@__crt_stdio_output@@AAE_NXZ 00448834 f i libucrt:output.obj
 0001:00047853       ?type_case_o@?$output_processor@_WV?$string_output_adapter@_W@__crt_stdio_output@@V?$format_validation_base@_WV?$string_output_adapter@_W@__crt_stdio_output@@@2@@__crt_stdio_output@@AAE_NXZ 00448853 f i libucrt:output.obj
 0001:00047872       ?type_case_o@?$output_processor@_WV?$string_output_adapter@_W@__crt_stdio_output@@V?$positional_parameter_base@_WV?$string_output_adapter@_W@__crt_stdio_output@@@2@@__crt_stdio_output@@AAE_NXZ 00448872 f i libucrt:output.obj
 0001:00047891       ?type_case_o@?$output_processor@_WV?$string_output_adapter@_W@__crt_stdio_output@@V?$standard_base@_WV?$string_output_adapter@_W@__crt_stdio_output@@@2@@__crt_stdio_output@@AAE_NXZ 00448891 f i libucrt:output.obj
 0001:000478b0       ?type_case_p@?$output_processor@DV?$stream_output_adapter@D@__crt_stdio_output@@V?$format_validation_base@DV?$stream_output_adapter@D@__crt_stdio_output@@@2@@__crt_stdio_output@@AAE_NXZ 004488b0 f i libucrt:output.obj
 0001:000478c8       ?type_case_p@?$output_processor@DV?$stream_output_adapter@D@__crt_stdio_output@@V?$positional_parameter_base@DV?$stream_output_adapter@D@__crt_stdio_output@@@2@@__crt_stdio_output@@AAE_NXZ 004488c8 f i libucrt:output.obj
 0001:000478e0       ?type_case_p@?$output_processor@DV?$stream_output_adapter@D@__crt_stdio_output@@V?$standard_base@DV?$stream_output_adapter@D@__crt_stdio_output@@@2@@__crt_stdio_output@@AAE_NXZ 004488e0 f i libucrt:output.obj
 0001:000478f8       ?type_case_p@?$output_processor@DV?$string_output_adapter@D@__crt_stdio_output@@V?$format_validation_base@DV?$string_output_adapter@D@__crt_stdio_output@@@2@@__crt_stdio_output@@AAE_NXZ 004488f8 f i libucrt:output.obj
 0001:00047910       ?type_case_p@?$output_processor@DV?$string_output_adapter@D@__crt_stdio_output@@V?$positional_parameter_base@DV?$string_output_adapter@D@__crt_stdio_output@@@2@@__crt_stdio_output@@AAE_NXZ 00448910 f i libucrt:output.obj
 0001:00047928       ?type_case_p@?$output_processor@DV?$string_output_adapter@D@__crt_stdio_output@@V?$standard_base@DV?$string_output_adapter@D@__crt_stdio_output@@@2@@__crt_stdio_output@@AAE_NXZ 00448928 f i libucrt:output.obj
 0001:00047940       ?type_case_p@?$output_processor@_WV?$stream_output_adapter@_W@__crt_stdio_output@@V?$format_validation_base@_WV?$stream_output_adapter@_W@__crt_stdio_output@@@2@@__crt_stdio_output@@AAE_NXZ 00448940 f i libucrt:output.obj
 0001:00047958       ?type_case_p@?$output_processor@_WV?$stream_output_adapter@_W@__crt_stdio_output@@V?$positional_parameter_base@_WV?$stream_output_adapter@_W@__crt_stdio_output@@@2@@__crt_stdio_output@@AAE_NXZ 00448958 f i libucrt:output.obj
 0001:00047970       ?type_case_p@?$output_processor@_WV?$stream_output_adapter@_W@__crt_stdio_output@@V?$standard_base@_WV?$stream_output_adapter@_W@__crt_stdio_output@@@2@@__crt_stdio_output@@AAE_NXZ 00448970 f i libucrt:output.obj
 0001:00047988       ?type_case_p@?$output_processor@_WV?$string_output_adapter@_W@__crt_stdio_output@@V?$format_validation_base@_WV?$string_output_adapter@_W@__crt_stdio_output@@@2@@__crt_stdio_output@@AAE_NXZ 00448988 f i libucrt:output.obj
 0001:000479a0       ?type_case_p@?$output_processor@_WV?$string_output_adapter@_W@__crt_stdio_output@@V?$positional_parameter_base@_WV?$string_output_adapter@_W@__crt_stdio_output@@@2@@__crt_stdio_output@@AAE_NXZ 004489a0 f i libucrt:output.obj
 0001:000479b8       ?type_case_p@?$output_processor@_WV?$string_output_adapter@_W@__crt_stdio_output@@V?$standard_base@_WV?$string_output_adapter@_W@__crt_stdio_output@@@2@@__crt_stdio_output@@AAE_NXZ 004489b8 f i libucrt:output.obj
 0001:000479d0       ?type_case_s@?$output_processor@DV?$stream_output_adapter@D@__crt_stdio_output@@V?$format_validation_base@DV?$stream_output_adapter@D@__crt_stdio_output@@@2@@__crt_stdio_output@@AAE_NXZ 004489d0 f i libucrt:output.obj
 0001:00047a41       ?type_case_s@?$output_processor@DV?$stream_output_adapter@D@__crt_stdio_output@@V?$positional_parameter_base@DV?$stream_output_adapter@D@__crt_stdio_output@@@2@@__crt_stdio_output@@AAE_NXZ 00448a41 f i libucrt:output.obj
 0001:00047abf       ?type_case_s@?$output_processor@DV?$stream_output_adapter@D@__crt_stdio_output@@V?$standard_base@DV?$stream_output_adapter@D@__crt_stdio_output@@@2@@__crt_stdio_output@@AAE_NXZ 00448abf f i libucrt:output.obj
 0001:00047b30       ?type_case_s@?$output_processor@DV?$string_output_adapter@D@__crt_stdio_output@@V?$format_validation_base@DV?$string_output_adapter@D@__crt_stdio_output@@@2@@__crt_stdio_output@@AAE_NXZ 00448b30 f i libucrt:output.obj
 0001:00047ba1       ?type_case_s@?$output_processor@DV?$string_output_adapter@D@__crt_stdio_output@@V?$positional_parameter_base@DV?$string_output_adapter@D@__crt_stdio_output@@@2@@__crt_stdio_output@@AAE_NXZ 00448ba1 f i libucrt:output.obj
 0001:00047c1f       ?type_case_s@?$output_processor@DV?$string_output_adapter@D@__crt_stdio_output@@V?$standard_base@DV?$string_output_adapter@D@__crt_stdio_output@@@2@@__crt_stdio_output@@AAE_NXZ 00448c1f f i libucrt:output.obj
 0001:00047c90       ?type_case_s@?$output_processor@_WV?$stream_output_adapter@_W@__crt_stdio_output@@V?$format_validation_base@_WV?$stream_output_adapter@_W@__crt_stdio_output@@@2@@__crt_stdio_output@@AAE_NXZ 00448c90 f i libucrt:output.obj
 0001:00047d03       ?type_case_s@?$output_processor@_WV?$stream_output_adapter@_W@__crt_stdio_output@@V?$positional_parameter_base@_WV?$stream_output_adapter@_W@__crt_stdio_output@@@2@@__crt_stdio_output@@AAE_NXZ 00448d03 f i libucrt:output.obj
 0001:00047d83       ?type_case_s@?$output_processor@_WV?$stream_output_adapter@_W@__crt_stdio_output@@V?$standard_base@_WV?$stream_output_adapter@_W@__crt_stdio_output@@@2@@__crt_stdio_output@@AAE_NXZ 00448d83 f i libucrt:output.obj
 0001:00047df6       ?type_case_s@?$output_processor@_WV?$string_output_adapter@_W@__crt_stdio_output@@V?$format_validation_base@_WV?$string_output_adapter@_W@__crt_stdio_output@@@2@@__crt_stdio_output@@AAE_NXZ 00448df6 f i libucrt:output.obj
 0001:00047e69       ?type_case_s@?$output_processor@_WV?$string_output_adapter@_W@__crt_stdio_output@@V?$positional_parameter_base@_WV?$string_output_adapter@_W@__crt_stdio_output@@@2@@__crt_stdio_output@@AAE_NXZ 00448e69 f i libucrt:output.obj
 0001:00047ee9       ?type_case_s@?$output_processor@_WV?$string_output_adapter@_W@__crt_stdio_output@@V?$standard_base@_WV?$string_output_adapter@_W@__crt_stdio_output@@@2@@__crt_stdio_output@@AAE_NXZ 00448ee9 f i libucrt:output.obj
 0001:00047f5c       ?type_case_s_compute_narrow_string_length@?$output_processor@DV?$stream_output_adapter@D@__crt_stdio_output@@V?$format_validation_base@DV?$stream_output_adapter@D@__crt_stdio_output@@@2@@__crt_stdio_output@@ABEHHD@Z 00448f5c f i libucrt:output.obj
 0001:00047f72       ?type_case_s_compute_narrow_string_length@?$output_processor@DV?$stream_output_adapter@D@__crt_stdio_output@@V?$positional_parameter_base@DV?$stream_output_adapter@D@__crt_stdio_output@@@2@@__crt_stdio_output@@ABEHHD@Z 00448f72 f i libucrt:output.obj
 0001:00047f88       ?type_case_s_compute_narrow_string_length@?$output_processor@DV?$stream_output_adapter@D@__crt_stdio_output@@V?$standard_base@DV?$stream_output_adapter@D@__crt_stdio_output@@@2@@__crt_stdio_output@@ABEHHD@Z 00448f88 f i libucrt:output.obj
 0001:00047f9e       ?type_case_s_compute_narrow_string_length@?$output_processor@DV?$string_output_adapter@D@__crt_stdio_output@@V?$format_validation_base@DV?$string_output_adapter@D@__crt_stdio_output@@@2@@__crt_stdio_output@@ABEHHD@Z 00448f9e f i libucrt:output.obj
 0001:00047fb4       ?type_case_s_compute_narrow_string_length@?$output_processor@DV?$string_output_adapter@D@__crt_stdio_output@@V?$positional_parameter_base@DV?$string_output_adapter@D@__crt_stdio_output@@@2@@__crt_stdio_output@@ABEHHD@Z 00448fb4 f i libucrt:output.obj
 0001:00047fca       ?type_case_s_compute_narrow_string_length@?$output_processor@DV?$string_output_adapter@D@__crt_stdio_output@@V?$standard_base@DV?$string_output_adapter@D@__crt_stdio_output@@@2@@__crt_stdio_output@@ABEHHD@Z 00448fca f i libucrt:output.obj
 0001:00047fe0       ?type_case_s_compute_narrow_string_length@?$output_processor@_WV?$stream_output_adapter@_W@__crt_stdio_output@@V?$format_validation_base@_WV?$stream_output_adapter@_W@__crt_stdio_output@@@2@@__crt_stdio_output@@ABEHH_W@Z 00448fe0 f i libucrt:output.obj
 0001:00048027       ?type_case_s_compute_narrow_string_length@?$output_processor@_WV?$stream_output_adapter@_W@__crt_stdio_output@@V?$positional_parameter_base@_WV?$stream_output_adapter@_W@__crt_stdio_output@@@2@@__crt_stdio_output@@ABEHH_W@Z 00449027 f i libucrt:output.obj
 0001:0004806e       ?type_case_s_compute_narrow_string_length@?$output_processor@_WV?$stream_output_adapter@_W@__crt_stdio_output@@V?$standard_base@_WV?$stream_output_adapter@_W@__crt_stdio_output@@@2@@__crt_stdio_output@@ABEHH_W@Z 0044906e f i libucrt:output.obj
 0001:000480b5       ?type_case_s_compute_narrow_string_length@?$output_processor@_WV?$string_output_adapter@_W@__crt_stdio_output@@V?$format_validation_base@_WV?$string_output_adapter@_W@__crt_stdio_output@@@2@@__crt_stdio_output@@ABEHH_W@Z 004490b5 f i libucrt:output.obj
 0001:000480fc       ?type_case_s_compute_narrow_string_length@?$output_processor@_WV?$string_output_adapter@_W@__crt_stdio_output@@V?$positional_parameter_base@_WV?$string_output_adapter@_W@__crt_stdio_output@@@2@@__crt_stdio_output@@ABEHH_W@Z 004490fc f i libucrt:output.obj
 0001:00048143       ?type_case_s_compute_narrow_string_length@?$output_processor@_WV?$string_output_adapter@_W@__crt_stdio_output@@V?$standard_base@_WV?$string_output_adapter@_W@__crt_stdio_output@@@2@@__crt_stdio_output@@ABEHH_W@Z 00449143 f i libucrt:output.obj
 0001:0004818a       ?type_case_u@?$output_processor@DV?$stream_output_adapter@D@__crt_stdio_output@@V?$format_validation_base@DV?$stream_output_adapter@D@__crt_stdio_output@@@2@@__crt_stdio_output@@AAE_NXZ 0044918a f i libucrt:output.obj
 0001:00048194       ?type_case_u@?$output_processor@DV?$stream_output_adapter@D@__crt_stdio_output@@V?$positional_parameter_base@DV?$stream_output_adapter@D@__crt_stdio_output@@@2@@__crt_stdio_output@@AAE_NXZ 00449194 f i libucrt:output.obj
 0001:0004819e       ?type_case_u@?$output_processor@DV?$stream_output_adapter@D@__crt_stdio_output@@V?$standard_base@DV?$stream_output_adapter@D@__crt_stdio_output@@@2@@__crt_stdio_output@@AAE_NXZ 0044919e f i libucrt:output.obj
 0001:000481a8       ?type_case_u@?$output_processor@DV?$string_output_adapter@D@__crt_stdio_output@@V?$format_validation_base@DV?$string_output_adapter@D@__crt_stdio_output@@@2@@__crt_stdio_output@@AAE_NXZ 004491a8 f i libucrt:output.obj
 0001:000481b2       ?type_case_u@?$output_processor@DV?$string_output_adapter@D@__crt_stdio_output@@V?$positional_parameter_base@DV?$string_output_adapter@D@__crt_stdio_output@@@2@@__crt_stdio_output@@AAE_NXZ 004491b2 f i libucrt:output.obj
 0001:000481bc       ?type_case_u@?$output_processor@DV?$string_output_adapter@D@__crt_stdio_output@@V?$standard_base@DV?$string_output_adapter@D@__crt_stdio_output@@@2@@__crt_stdio_output@@AAE_NXZ 004491bc f i libucrt:output.obj
 0001:000481c6       ?type_case_u@?$output_processor@_WV?$stream_output_adapter@_W@__crt_stdio_output@@V?$format_validation_base@_WV?$stream_output_adapter@_W@__crt_stdio_output@@@2@@__crt_stdio_output@@AAE_NXZ 004491c6 f i libucrt:output.obj
 0001:000481d0       ?type_case_u@?$output_processor@_WV?$stream_output_adapter@_W@__crt_stdio_output@@V?$positional_parameter_base@_WV?$stream_output_adapter@_W@__crt_stdio_output@@@2@@__crt_stdio_output@@AAE_NXZ 004491d0 f i libucrt:output.obj
 0001:000481da       ?type_case_u@?$output_processor@_WV?$stream_output_adapter@_W@__crt_stdio_output@@V?$standard_base@_WV?$stream_output_adapter@_W@__crt_stdio_output@@@2@@__crt_stdio_output@@AAE_NXZ 004491da f i libucrt:output.obj
 0001:000481e4       ?type_case_u@?$output_processor@_WV?$string_output_adapter@_W@__crt_stdio_output@@V?$format_validation_base@_WV?$string_output_adapter@_W@__crt_stdio_output@@@2@@__crt_stdio_output@@AAE_NXZ 004491e4 f i libucrt:output.obj
 0001:000481ee       ?type_case_u@?$output_processor@_WV?$string_output_adapter@_W@__crt_stdio_output@@V?$positional_parameter_base@_WV?$string_output_adapter@_W@__crt_stdio_output@@@2@@__crt_stdio_output@@AAE_NXZ 004491ee f i libucrt:output.obj
 0001:000481f8       ?type_case_u@?$output_processor@_WV?$string_output_adapter@_W@__crt_stdio_output@@V?$standard_base@_WV?$string_output_adapter@_W@__crt_stdio_output@@@2@@__crt_stdio_output@@AAE_NXZ 004491f8 f i libucrt:output.obj
 0001:00048202       ?type_case_x@?$output_processor@DV?$stream_output_adapter@D@__crt_stdio_output@@V?$format_validation_base@DV?$stream_output_adapter@D@__crt_stdio_output@@@2@@__crt_stdio_output@@AAE_NXZ 00449202 f i libucrt:output.obj
 0001:0004820c       ?type_case_x@?$output_processor@DV?$stream_output_adapter@D@__crt_stdio_output@@V?$positional_parameter_base@DV?$stream_output_adapter@D@__crt_stdio_output@@@2@@__crt_stdio_output@@AAE_NXZ 0044920c f i libucrt:output.obj
 0001:00048216       ?type_case_x@?$output_processor@DV?$stream_output_adapter@D@__crt_stdio_output@@V?$standard_base@DV?$stream_output_adapter@D@__crt_stdio_output@@@2@@__crt_stdio_output@@AAE_NXZ 00449216 f i libucrt:output.obj
 0001:00048220       ?type_case_x@?$output_processor@DV?$string_output_adapter@D@__crt_stdio_output@@V?$format_validation_base@DV?$string_output_adapter@D@__crt_stdio_output@@@2@@__crt_stdio_output@@AAE_NXZ 00449220 f i libucrt:output.obj
 0001:0004822a       ?type_case_x@?$output_processor@DV?$string_output_adapter@D@__crt_stdio_output@@V?$positional_parameter_base@DV?$string_output_adapter@D@__crt_stdio_output@@@2@@__crt_stdio_output@@AAE_NXZ 0044922a f i libucrt:output.obj
 0001:00048234       ?type_case_x@?$output_processor@DV?$string_output_adapter@D@__crt_stdio_output@@V?$standard_base@DV?$string_output_adapter@D@__crt_stdio_output@@@2@@__crt_stdio_output@@AAE_NXZ 00449234 f i libucrt:output.obj
 0001:0004823e       ?type_case_x@?$output_processor@_WV?$stream_output_adapter@_W@__crt_stdio_output@@V?$format_validation_base@_WV?$stream_output_adapter@_W@__crt_stdio_output@@@2@@__crt_stdio_output@@AAE_NXZ 0044923e f i libucrt:output.obj
 0001:00048248       ?type_case_x@?$output_processor@_WV?$stream_output_adapter@_W@__crt_stdio_output@@V?$positional_parameter_base@_WV?$stream_output_adapter@_W@__crt_stdio_output@@@2@@__crt_stdio_output@@AAE_NXZ 00449248 f i libucrt:output.obj
 0001:00048252       ?type_case_x@?$output_processor@_WV?$stream_output_adapter@_W@__crt_stdio_output@@V?$standard_base@_WV?$stream_output_adapter@_W@__crt_stdio_output@@@2@@__crt_stdio_output@@AAE_NXZ 00449252 f i libucrt:output.obj
 0001:0004825c       ?type_case_x@?$output_processor@_WV?$string_output_adapter@_W@__crt_stdio_output@@V?$format_validation_base@_WV?$string_output_adapter@_W@__crt_stdio_output@@@2@@__crt_stdio_output@@AAE_NXZ 0044925c f i libucrt:output.obj
 0001:00048266       ?type_case_x@?$output_processor@_WV?$string_output_adapter@_W@__crt_stdio_output@@V?$positional_parameter_base@_WV?$string_output_adapter@_W@__crt_stdio_output@@@2@@__crt_stdio_output@@AAE_NXZ 00449266 f i libucrt:output.obj
 0001:00048270       ?type_case_x@?$output_processor@_WV?$string_output_adapter@_W@__crt_stdio_output@@V?$standard_base@_WV?$string_output_adapter@_W@__crt_stdio_output@@@2@@__crt_stdio_output@@AAE_NXZ 00449270 f i libucrt:output.obj
 0001:0004827a       ?unset_flag@?$output_processor@DV?$stream_output_adapter@D@__crt_stdio_output@@V?$format_validation_base@DV?$stream_output_adapter@D@__crt_stdio_output@@@2@@__crt_stdio_output@@AAEXI@Z 0044927a f i libucrt:output.obj
 0001:0004828b       ?unset_flag@?$output_processor@DV?$stream_output_adapter@D@__crt_stdio_output@@V?$positional_parameter_base@DV?$stream_output_adapter@D@__crt_stdio_output@@@2@@__crt_stdio_output@@AAEXI@Z 0044928b f i libucrt:output.obj
 0001:0004829c       ?unset_flag@?$output_processor@DV?$stream_output_adapter@D@__crt_stdio_output@@V?$standard_base@DV?$stream_output_adapter@D@__crt_stdio_output@@@2@@__crt_stdio_output@@AAEXI@Z 0044929c f i libucrt:output.obj
 0001:000482ad       ?unset_flag@?$output_processor@DV?$string_output_adapter@D@__crt_stdio_output@@V?$format_validation_base@DV?$string_output_adapter@D@__crt_stdio_output@@@2@@__crt_stdio_output@@AAEXI@Z 004492ad f i libucrt:output.obj
 0001:000482be       ?unset_flag@?$output_processor@DV?$string_output_adapter@D@__crt_stdio_output@@V?$positional_parameter_base@DV?$string_output_adapter@D@__crt_stdio_output@@@2@@__crt_stdio_output@@AAEXI@Z 004492be f i libucrt:output.obj
 0001:000482cf       ?unset_flag@?$output_processor@DV?$string_output_adapter@D@__crt_stdio_output@@V?$standard_base@DV?$string_output_adapter@D@__crt_stdio_output@@@2@@__crt_stdio_output@@AAEXI@Z 004492cf f i libucrt:output.obj
 0001:000482e0       ?unset_flag@?$output_processor@_WV?$stream_output_adapter@_W@__crt_stdio_output@@V?$format_validation_base@_WV?$stream_output_adapter@_W@__crt_stdio_output@@@2@@__crt_stdio_output@@AAEXI@Z 004492e0 f i libucrt:output.obj
 0001:000482f1       ?unset_flag@?$output_processor@_WV?$stream_output_adapter@_W@__crt_stdio_output@@V?$positional_parameter_base@_WV?$stream_output_adapter@_W@__crt_stdio_output@@@2@@__crt_stdio_output@@AAEXI@Z 004492f1 f i libucrt:output.obj
 0001:00048302       ?unset_flag@?$output_processor@_WV?$stream_output_adapter@_W@__crt_stdio_output@@V?$standard_base@_WV?$stream_output_adapter@_W@__crt_stdio_output@@@2@@__crt_stdio_output@@AAEXI@Z 00449302 f i libucrt:output.obj
 0001:00048313       ?unset_flag@?$output_processor@_WV?$string_output_adapter@_W@__crt_stdio_output@@V?$format_validation_base@_WV?$string_output_adapter@_W@__crt_stdio_output@@@2@@__crt_stdio_output@@AAEXI@Z 00449313 f i libucrt:output.obj
 0001:00048324       ?unset_flag@?$output_processor@_WV?$string_output_adapter@_W@__crt_stdio_output@@V?$positional_parameter_base@_WV?$string_output_adapter@_W@__crt_stdio_output@@@2@@__crt_stdio_output@@AAEXI@Z 00449324 f i libucrt:output.obj
 0001:00048335       ?unset_flag@?$output_processor@_WV?$string_output_adapter@_W@__crt_stdio_output@@V?$standard_base@_WV?$string_output_adapter@_W@__crt_stdio_output@@@2@@__crt_stdio_output@@AAEXI@Z 00449335 f i libucrt:output.obj
 0001:00048346       ?update_field_width@?$positional_parameter_base@DV?$stream_output_adapter@D@__crt_stdio_output@@@__crt_stdio_output@@IAE_NXZ 00449346 f i libucrt:output.obj
 0001:000483fa       ?update_field_width@?$positional_parameter_base@DV?$string_output_adapter@D@__crt_stdio_output@@@__crt_stdio_output@@IAE_NXZ 004493fa f i libucrt:output.obj
 0001:000484ae       ?update_field_width@?$positional_parameter_base@_WV?$stream_output_adapter@_W@__crt_stdio_output@@@__crt_stdio_output@@IAE_NXZ 004494ae f i libucrt:output.obj
 0001:00048563       ?update_field_width@?$positional_parameter_base@_WV?$string_output_adapter@_W@__crt_stdio_output@@@__crt_stdio_output@@IAE_NXZ 00449563 f i libucrt:output.obj
 0001:00048618       ?update_field_width@?$standard_base@DV?$stream_output_adapter@D@__crt_stdio_output@@@__crt_stdio_output@@IAE_NXZ 00449618 f i libucrt:output.obj
 0001:00048628       ?update_field_width@?$standard_base@DV?$string_output_adapter@D@__crt_stdio_output@@@__crt_stdio_output@@IAE_NXZ 00449628 f i libucrt:output.obj
 0001:00048638       ?update_field_width@?$standard_base@_WV?$stream_output_adapter@_W@__crt_stdio_output@@@__crt_stdio_output@@IAE_NXZ 00449638 f i libucrt:output.obj
 0001:00048648       ?update_field_width@?$standard_base@_WV?$string_output_adapter@_W@__crt_stdio_output@@@__crt_stdio_output@@IAE_NXZ 00449648 f i libucrt:output.obj
 0001:00048658       ?update_precision@?$positional_parameter_base@DV?$stream_output_adapter@D@__crt_stdio_output@@@__crt_stdio_output@@IAE_NXZ 00449658 f i libucrt:output.obj
 0001:0004870c       ?update_precision@?$positional_parameter_base@DV?$string_output_adapter@D@__crt_stdio_output@@@__crt_stdio_output@@IAE_NXZ 0044970c f i libucrt:output.obj
 0001:000487c0       ?update_precision@?$positional_parameter_base@_WV?$stream_output_adapter@_W@__crt_stdio_output@@@__crt_stdio_output@@IAE_NXZ 004497c0 f i libucrt:output.obj
 0001:00048875       ?update_precision@?$positional_parameter_base@_WV?$string_output_adapter@_W@__crt_stdio_output@@@__crt_stdio_output@@IAE_NXZ 00449875 f i libucrt:output.obj
 0001:0004892a       ?update_precision@?$standard_base@DV?$stream_output_adapter@D@__crt_stdio_output@@@__crt_stdio_output@@IAE_NXZ 0044992a f i libucrt:output.obj
 0001:0004893a       ?update_precision@?$standard_base@DV?$string_output_adapter@D@__crt_stdio_output@@@__crt_stdio_output@@IAE_NXZ 0044993a f i libucrt:output.obj
 0001:0004894a       ?update_precision@?$standard_base@_WV?$stream_output_adapter@_W@__crt_stdio_output@@@__crt_stdio_output@@IAE_NXZ 0044994a f i libucrt:output.obj
 0001:0004895a       ?update_precision@?$standard_base@_WV?$string_output_adapter@_W@__crt_stdio_output@@@__crt_stdio_output@@IAE_NXZ 0044995a f i libucrt:output.obj
 0001:0004896a       ?validate@?$stream_output_adapter@D@__crt_stdio_output@@QBE_NXZ 0044996a f i libucrt:output.obj
 0001:0004898b       ?validate@?$stream_output_adapter@_W@__crt_stdio_output@@QBE_NXZ 0044998b f i libucrt:output.obj
 0001:000489a6       ?validate@?$string_output_adapter@D@__crt_stdio_output@@QBE_NXZ 004499a6 f i libucrt:output.obj
 0001:000489c1       ?validate@?$string_output_adapter@_W@__crt_stdio_output@@QBE_NXZ 004499c1 f i libucrt:output.obj
 0001:000489dc       ?validate_and_store_parameter_data@?$positional_parameter_base@DV?$stream_output_adapter@D@__crt_stdio_output@@@__crt_stdio_output@@AAE_NAAUparameter_data@12@W4parameter_type@12@DW4length_modifier@2@@Z 004499dc f i libucrt:output.obj
 0001:00048a27       ?validate_and_store_parameter_data@?$positional_parameter_base@DV?$string_output_adapter@D@__crt_stdio_output@@@__crt_stdio_output@@AAE_NAAUparameter_data@12@W4parameter_type@12@DW4length_modifier@2@@Z 00449a27 f i libucrt:output.obj
 0001:00048a72       ?validate_and_store_parameter_data@?$positional_parameter_base@_WV?$stream_output_adapter@_W@__crt_stdio_output@@@__crt_stdio_output@@AAE_NAAUparameter_data@12@W4parameter_type@12@_WW4length_modifier@2@@Z 00449a72 f i libucrt:output.obj
 0001:00048abf       ?validate_and_store_parameter_data@?$positional_parameter_base@_WV?$string_output_adapter@_W@__crt_stdio_output@@@__crt_stdio_output@@AAE_NAAUparameter_data@12@W4parameter_type@12@_WW4length_modifier@2@@Z 00449abf f i libucrt:output.obj
 0001:00048b0c       ?validate_and_update_state_at_beginning_of_format_character@?$positional_parameter_base@DV?$stream_output_adapter@D@__crt_stdio_output@@@__crt_stdio_output@@IAE_NXZ 00449b0c f i libucrt:output.obj
 0001:00048c04       ?validate_and_update_state_at_beginning_of_format_character@?$positional_parameter_base@DV?$string_output_adapter@D@__crt_stdio_output@@@__crt_stdio_output@@IAE_NXZ 00449c04 f i libucrt:output.obj
 0001:00048cfc       ?validate_and_update_state_at_beginning_of_format_character@?$positional_parameter_base@_WV?$stream_output_adapter@_W@__crt_stdio_output@@@__crt_stdio_output@@IAE_NXZ 00449cfc f i libucrt:output.obj
 0001:00048dfd       ?validate_and_update_state_at_beginning_of_format_character@?$positional_parameter_base@_WV?$string_output_adapter@_W@__crt_stdio_output@@@__crt_stdio_output@@IAE_NXZ 00449dfd f i libucrt:output.obj
 0001:00048efe       ?validate_and_update_state_at_beginning_of_format_character@?$standard_base@DV?$stream_output_adapter@D@__crt_stdio_output@@@__crt_stdio_output@@IAE_NXZ 00449efe f i libucrt:output.obj
 0001:00048f01       ?validate_and_update_state_at_beginning_of_format_character@?$standard_base@DV?$string_output_adapter@D@__crt_stdio_output@@@__crt_stdio_output@@IAE_NXZ 00449f01 f i libucrt:output.obj
 0001:00048f04       ?validate_and_update_state_at_beginning_of_format_character@?$standard_base@_WV?$stream_output_adapter@_W@__crt_stdio_output@@@__crt_stdio_output@@IAE_NXZ 00449f04 f i libucrt:output.obj
 0001:00048f07       ?validate_and_update_state_at_beginning_of_format_character@?$standard_base@_WV?$string_output_adapter@_W@__crt_stdio_output@@@__crt_stdio_output@@IAE_NXZ 00449f07 f i libucrt:output.obj
 0001:00048f0a       ?validate_and_update_state_at_end_of_format_string@?$format_validation_base@DV?$stream_output_adapter@D@__crt_stdio_output@@@__crt_stdio_output@@IBE_NXZ 00449f0a f i libucrt:output.obj
 0001:00048f2c       ?validate_and_update_state_at_end_of_format_string@?$format_validation_base@DV?$string_output_adapter@D@__crt_stdio_output@@@__crt_stdio_output@@IBE_NXZ 00449f2c f i libucrt:output.obj
 0001:00048f4e       ?validate_and_update_state_at_end_of_format_string@?$format_validation_base@_WV?$stream_output_adapter@_W@__crt_stdio_output@@@__crt_stdio_output@@IBE_NXZ 00449f4e f i libucrt:output.obj
 0001:00048f70       ?validate_and_update_state_at_end_of_format_string@?$format_validation_base@_WV?$string_output_adapter@_W@__crt_stdio_output@@@__crt_stdio_output@@IBE_NXZ 00449f70 f i libucrt:output.obj
 0001:00048f92       ?validate_and_update_state_at_end_of_format_string@?$positional_parameter_base@DV?$stream_output_adapter@D@__crt_stdio_output@@@__crt_stdio_output@@IAE_NXZ 00449f92 f i libucrt:output.obj
 0001:00049022       ?validate_and_update_state_at_end_of_format_string@?$positional_parameter_base@DV?$string_output_adapter@D@__crt_stdio_output@@@__crt_stdio_output@@IAE_NXZ 0044a022 f i libucrt:output.obj
 0001:000490b2       ?validate_and_update_state_at_end_of_format_string@?$positional_parameter_base@_WV?$stream_output_adapter@_W@__crt_stdio_output@@@__crt_stdio_output@@IAE_NXZ 0044a0b2 f i libucrt:output.obj
 0001:00049142       ?validate_and_update_state_at_end_of_format_string@?$positional_parameter_base@_WV?$string_output_adapter@_W@__crt_stdio_output@@@__crt_stdio_output@@IAE_NXZ 0044a142 f i libucrt:output.obj
 0001:000491d2       ?validate_and_update_state_at_end_of_format_string@?$standard_base@DV?$stream_output_adapter@D@__crt_stdio_output@@@__crt_stdio_output@@IBE_NXZ 0044a1d2 f i libucrt:output.obj
 0001:000491d5       ?validate_and_update_state_at_end_of_format_string@?$standard_base@DV?$string_output_adapter@D@__crt_stdio_output@@@__crt_stdio_output@@IBE_NXZ 0044a1d5 f i libucrt:output.obj
 0001:000491d8       ?validate_and_update_state_at_end_of_format_string@?$standard_base@_WV?$stream_output_adapter@_W@__crt_stdio_output@@@__crt_stdio_output@@IBE_NXZ 0044a1d8 f i libucrt:output.obj
 0001:000491db       ?validate_and_update_state_at_end_of_format_string@?$standard_base@_WV?$string_output_adapter@_W@__crt_stdio_output@@@__crt_stdio_output@@IBE_NXZ 0044a1db f i libucrt:output.obj
 0001:000491de       ?validate_state_for_type_case_a@?$positional_parameter_base@DV?$stream_output_adapter@D@__crt_stdio_output@@@__crt_stdio_output@@IAE_NXZ 0044a1de f i libucrt:output.obj
 0001:0004922d       ?validate_state_for_type_case_a@?$positional_parameter_base@DV?$string_output_adapter@D@__crt_stdio_output@@@__crt_stdio_output@@IAE_NXZ 0044a22d f i libucrt:output.obj
 0001:0004927c       ?validate_state_for_type_case_a@?$positional_parameter_base@_WV?$stream_output_adapter@_W@__crt_stdio_output@@@__crt_stdio_output@@IAE_NXZ 0044a27c f i libucrt:output.obj
 0001:000492cb       ?validate_state_for_type_case_a@?$positional_parameter_base@_WV?$string_output_adapter@_W@__crt_stdio_output@@@__crt_stdio_output@@IAE_NXZ 0044a2cb f i libucrt:output.obj
 0001:0004931a       ?validate_state_for_type_case_a@?$standard_base@DV?$stream_output_adapter@D@__crt_stdio_output@@@__crt_stdio_output@@IBE_NXZ 0044a31a f i libucrt:output.obj
 0001:0004931d       ?validate_state_for_type_case_a@?$standard_base@DV?$string_output_adapter@D@__crt_stdio_output@@@__crt_stdio_output@@IBE_NXZ 0044a31d f i libucrt:output.obj
 0001:00049320       ?validate_state_for_type_case_a@?$standard_base@_WV?$stream_output_adapter@_W@__crt_stdio_output@@@__crt_stdio_output@@IBE_NXZ 0044a320 f i libucrt:output.obj
 0001:00049323       ?validate_state_for_type_case_a@?$standard_base@_WV?$string_output_adapter@_W@__crt_stdio_output@@@__crt_stdio_output@@IBE_NXZ 0044a323 f i libucrt:output.obj
 0001:00049326       ?validate_stream_is_ansi_if_required@?$__acrt_stdio_char_traits@D@@SA_NQAU_iobuf@@@Z 0044a326 f i libucrt:output.obj
 0001:000493ad       ?validate_stream_is_ansi_if_required@?$__acrt_stdio_char_traits@_W@@SA_NQAU_iobuf@@@Z 0044a3ad f i libucrt:output.obj
 0001:000493b0       ?wide_null_string@?$output_processor@DV?$stream_output_adapter@D@__crt_stdio_output@@V?$format_validation_base@DV?$stream_output_adapter@D@__crt_stdio_output@@@2@@__crt_stdio_output@@CAPA_WXZ 0044a3b0 f i libucrt:output.obj
 0001:000493b6       ?wide_null_string@?$output_processor@DV?$stream_output_adapter@D@__crt_stdio_output@@V?$positional_parameter_base@DV?$stream_output_adapter@D@__crt_stdio_output@@@2@@__crt_stdio_output@@CAPA_WXZ 0044a3b6 f i libucrt:output.obj
 0001:000493bc       ?wide_null_string@?$output_processor@DV?$stream_output_adapter@D@__crt_stdio_output@@V?$standard_base@DV?$stream_output_adapter@D@__crt_stdio_output@@@2@@__crt_stdio_output@@CAPA_WXZ 0044a3bc f i libucrt:output.obj
 0001:000493c2       ?wide_null_string@?$output_processor@DV?$string_output_adapter@D@__crt_stdio_output@@V?$format_validation_base@DV?$string_output_adapter@D@__crt_stdio_output@@@2@@__crt_stdio_output@@CAPA_WXZ 0044a3c2 f i libucrt:output.obj
 0001:000493c8       ?wide_null_string@?$output_processor@DV?$string_output_adapter@D@__crt_stdio_output@@V?$positional_parameter_base@DV?$string_output_adapter@D@__crt_stdio_output@@@2@@__crt_stdio_output@@CAPA_WXZ 0044a3c8 f i libucrt:output.obj
 0001:000493ce       ?wide_null_string@?$output_processor@DV?$string_output_adapter@D@__crt_stdio_output@@V?$standard_base@DV?$string_output_adapter@D@__crt_stdio_output@@@2@@__crt_stdio_output@@CAPA_WXZ 0044a3ce f i libucrt:output.obj
 0001:000493d4       ?wide_null_string@?$output_processor@_WV?$stream_output_adapter@_W@__crt_stdio_output@@V?$format_validation_base@_WV?$stream_output_adapter@_W@__crt_stdio_output@@@2@@__crt_stdio_output@@CAPA_WXZ 0044a3d4 f i libucrt:output.obj
 0001:000493da       ?wide_null_string@?$output_processor@_WV?$stream_output_adapter@_W@__crt_stdio_output@@V?$positional_parameter_base@_WV?$stream_output_adapter@_W@__crt_stdio_output@@@2@@__crt_stdio_output@@CAPA_WXZ 0044a3da f i libucrt:output.obj
 0001:000493e0       ?wide_null_string@?$output_processor@_WV?$stream_output_adapter@_W@__crt_stdio_output@@V?$standard_base@_WV?$stream_output_adapter@_W@__crt_stdio_output@@@2@@__crt_stdio_output@@CAPA_WXZ 0044a3e0 f i libucrt:output.obj
 0001:000493e6       ?wide_null_string@?$output_processor@_WV?$string_output_adapter@_W@__crt_stdio_output@@V?$format_validation_base@_WV?$string_output_adapter@_W@__crt_stdio_output@@@2@@__crt_stdio_output@@CAPA_WXZ 0044a3e6 f i libucrt:output.obj
 0001:000493ec       ?wide_null_string@?$output_processor@_WV?$string_output_adapter@_W@__crt_stdio_output@@V?$positional_parameter_base@_WV?$string_output_adapter@_W@__crt_stdio_output@@@2@@__crt_stdio_output@@CAPA_WXZ 0044a3ec f i libucrt:output.obj
 0001:000493f2       ?wide_null_string@?$output_processor@_WV?$string_output_adapter@_W@__crt_stdio_output@@V?$standard_base@_WV?$string_output_adapter@_W@__crt_stdio_output@@@2@@__crt_stdio_output@@CAPA_WXZ 0044a3f2 f i libucrt:output.obj
 0001:000493f8       ?write_character@?$output_adapter_common@DV?$stream_output_adapter@D@__crt_stdio_output@@@__crt_stdio_output@@QBEXDQAH@Z 0044a3f8 f i libucrt:output.obj
 0001:00049417       ?write_character@?$output_adapter_common@_WV?$stream_output_adapter@_W@__crt_stdio_output@@@__crt_stdio_output@@QBEX_WQAH@Z 0044a417 f i libucrt:output.obj
 0001:00049436       ?write_character@?$string_output_adapter@D@__crt_stdio_output@@QBE_NDQAH@Z 0044a436 f i libucrt:output.obj
 0001:00049478       ?write_character@?$string_output_adapter@_W@__crt_stdio_output@@QBE_N_WQAH@Z 0044a478 f i libucrt:output.obj
 0001:000494bd       ?write_character_without_count_update@?$stream_output_adapter@D@__crt_stdio_output@@QBE_ND@Z 0044a4bd f i libucrt:output.obj
 0001:000494f3       ?write_character_without_count_update@?$stream_output_adapter@_W@__crt_stdio_output@@QBE_N_W@Z 0044a4f3 f i libucrt:output.obj
 0001:0004952c       ?write_stored_string_tchar@?$output_processor@DV?$stream_output_adapter@D@__crt_stdio_output@@V?$format_validation_base@DV?$stream_output_adapter@D@__crt_stdio_output@@@2@@__crt_stdio_output@@AAE_ND@Z 0044a52c f i libucrt:output.obj
 0001:000495d1       ?write_stored_string_tchar@?$output_processor@DV?$stream_output_adapter@D@__crt_stdio_output@@V?$positional_parameter_base@DV?$stream_output_adapter@D@__crt_stdio_output@@@2@@__crt_stdio_output@@AAE_ND@Z 0044a5d1 f i libucrt:output.obj
 0001:00049676       ?write_stored_string_tchar@?$output_processor@DV?$stream_output_adapter@D@__crt_stdio_output@@V?$standard_base@DV?$stream_output_adapter@D@__crt_stdio_output@@@2@@__crt_stdio_output@@AAE_ND@Z 0044a676 f i libucrt:output.obj
 0001:0004971b       ?write_stored_string_tchar@?$output_processor@DV?$string_output_adapter@D@__crt_stdio_output@@V?$format_validation_base@DV?$string_output_adapter@D@__crt_stdio_output@@@2@@__crt_stdio_output@@AAE_ND@Z 0044a71b f i libucrt:output.obj
 0001:000497c0       ?write_stored_string_tchar@?$output_processor@DV?$string_output_adapter@D@__crt_stdio_output@@V?$positional_parameter_base@DV?$string_output_adapter@D@__crt_stdio_output@@@2@@__crt_stdio_output@@AAE_ND@Z 0044a7c0 f i libucrt:output.obj
 0001:00049865       ?write_stored_string_tchar@?$output_processor@DV?$string_output_adapter@D@__crt_stdio_output@@V?$standard_base@DV?$string_output_adapter@D@__crt_stdio_output@@@2@@__crt_stdio_output@@AAE_ND@Z 0044a865 f i libucrt:output.obj
 0001:0004990a       ?write_stored_string_tchar@?$output_processor@_WV?$stream_output_adapter@_W@__crt_stdio_output@@V?$format_validation_base@_WV?$stream_output_adapter@_W@__crt_stdio_output@@@2@@__crt_stdio_output@@AAE_N_W@Z 0044a90a f i libucrt:output.obj
 0001:00049997       ?write_stored_string_tchar@?$output_processor@_WV?$stream_output_adapter@_W@__crt_stdio_output@@V?$positional_parameter_base@_WV?$stream_output_adapter@_W@__crt_stdio_output@@@2@@__crt_stdio_output@@AAE_N_W@Z 0044a997 f i libucrt:output.obj
 0001:00049a24       ?write_stored_string_tchar@?$output_processor@_WV?$stream_output_adapter@_W@__crt_stdio_output@@V?$standard_base@_WV?$stream_output_adapter@_W@__crt_stdio_output@@@2@@__crt_stdio_output@@AAE_N_W@Z 0044aa24 f i libucrt:output.obj
 0001:00049ab1       ?write_stored_string_tchar@?$output_processor@_WV?$string_output_adapter@_W@__crt_stdio_output@@V?$format_validation_base@_WV?$string_output_adapter@_W@__crt_stdio_output@@@2@@__crt_stdio_output@@AAE_N_W@Z 0044aab1 f i libucrt:output.obj
 0001:00049b3e       ?write_stored_string_tchar@?$output_processor@_WV?$string_output_adapter@_W@__crt_stdio_output@@V?$positional_parameter_base@_WV?$string_output_adapter@_W@__crt_stdio_output@@@2@@__crt_stdio_output@@AAE_N_W@Z 0044ab3e f i libucrt:output.obj
 0001:00049bcb       ?write_stored_string_tchar@?$output_processor@_WV?$string_output_adapter@_W@__crt_stdio_output@@V?$standard_base@_WV?$string_output_adapter@_W@__crt_stdio_output@@@2@@__crt_stdio_output@@AAE_N_W@Z 0044abcb f i libucrt:output.obj
 0001:00049c58       ?write_string@?$stream_output_adapter@D@__crt_stdio_output@@QBEXQBDHQAHAAV__crt_deferred_errno_cache@@@Z 0044ac58 f i libucrt:output.obj
 0001:00049c84       ?write_string@?$stream_output_adapter@_W@__crt_stdio_output@@QBEXQB_WHQAHAAV__crt_deferred_errno_cache@@@Z 0044ac84 f i libucrt:output.obj
 0001:00049cb0       ?write_string@?$string_output_adapter@D@__crt_stdio_output@@QBEXQBDHQAHAAV__crt_deferred_errno_cache@@@Z 0044acb0 f i libucrt:output.obj
 0001:00049d17       ?write_string@?$string_output_adapter@_W@__crt_stdio_output@@QBEXQB_WHQAHAAV__crt_deferred_errno_cache@@@Z 0044ad17 f i libucrt:output.obj
 0001:00049d88       ?write_string_impl@?$output_adapter_common@DV?$stream_output_adapter@D@__crt_stdio_output@@@__crt_stdio_output@@IBEXQBDHQAHAAV__crt_deferred_errno_cache@@@Z 0044ad88 f i libucrt:output.obj
 0001:00049e26       ?write_string_impl@?$output_adapter_common@_WV?$stream_output_adapter@_W@__crt_stdio_output@@@__crt_stdio_output@@IBEXQB_WHQAHAAV__crt_deferred_errno_cache@@@Z 0044ae26 f i libucrt:output.obj
 0001:00049ec7       ___acrt_isleadbyte_l_noupdate 0044aec7 f i libucrt:output.obj
 0001:00049ee5       ___stdio_common_vfprintf   0044aee5 f   libucrt:output.obj
 0001:00049f68       ___stdio_common_vfprintf_p 0044af68 f   libucrt:output.obj
 0001:00049feb       ___stdio_common_vfprintf_s 0044afeb f   libucrt:output.obj
 0001:0004a06e       ___stdio_common_vfwprintf  0044b06e f   libucrt:output.obj
 0001:0004a0f1       ___stdio_common_vfwprintf_p 0044b0f1 f   libucrt:output.obj
 0001:0004a174       ___stdio_common_vfwprintf_s 0044b174 f   libucrt:output.obj
 0001:0004a1f7       ___stdio_common_vsnprintf_s 0044b1f7 f   libucrt:output.obj
 0001:0004a21e       ___stdio_common_vsnwprintf_s 0044b21e f   libucrt:output.obj
 0001:0004a245       ___stdio_common_vsprintf   0044b245 f   libucrt:output.obj
 0001:0004a269       ___stdio_common_vsprintf_p 0044b269 f   libucrt:output.obj
 0001:0004a28d       ___stdio_common_vsprintf_s 0044b28d f   libucrt:output.obj
 0001:0004a2b1       ___stdio_common_vswprintf  0044b2b1 f   libucrt:output.obj
 0001:0004a2d5       ___stdio_common_vswprintf_p 0044b2d5 f   libucrt:output.obj
 0001:0004a2f9       ___stdio_common_vswprintf_s 0044b2f9 f   libucrt:output.obj
 0001:0004a31d       __ctype_fast_check_internal 0044b31d f i libucrt:output.obj
 0001:0004a337       __isdigit_fast_internal    0044b337 f i libucrt:output.obj
 0001:0004a351       __tolower_fast_internal    0044b351 f i libucrt:output.obj
 0001:0004a36a       _ldexp                     0044b36a f   libucrt:ldexp.obj
 0001:0004a55c       _localeconv                0044b55c f   libucrt:localeconv.obj
 0001:0004a590       __libm_sse2_pow_precise    0044b590 f   libucrt:pow_sse2_precise.obj
 0001:0004b0e0       ___acrt_initialize_locks   0044c0e0 f   libucrt:locks.obj
 0001:0004b121       ___acrt_lock               0044c121 f   libucrt:locks.obj
 0001:0004b138       ___acrt_uninitialize_locks 0044c138 f   libucrt:locks.obj
 0001:0004b169       ___acrt_unlock             0044c169 f   libucrt:locks.obj
 0001:0004b180       __lock_locales             0044c180 f   libucrt:locks.obj
 0001:0004b18e       __unlock_locales           0044c18e f   libucrt:locks.obj
 0001:0004b197       _malloc                    0044c197 f   libucrt:malloc.obj
 0001:0004b1fd       ??$?R_W@__crt_internal_free_policy@@QBEXQB_W@Z 0044c1fd f i libucrt:setlocale.obj
 0001:0004b26f       ??0?$__crt_unique_heap_ptr@_WU__crt_internal_free_policy@@@@QAE@QA_W@Z 0044c26f f i libucrt:setlocale.obj
 0001:0004b27f       ??1?$__crt_unique_heap_ptr@_WU__crt_internal_free_policy@@@@QAE@XZ 0044c27f f i libucrt:setlocale.obj
 0001:0004b402       ?get@?$__crt_unique_heap_ptr@_WU__crt_internal_free_policy@@@@QBEPA_WXZ 0044c402 f i libucrt:setlocale.obj
 0001:0004b405       ?release@?$__crt_unique_heap_ptr@_WU__crt_internal_free_policy@@@@QAEXXZ 0044c405 f i libucrt:setlocale.obj
 0001:0004b417       ___acrt_should_sync_with_global_locale 0044c417 f i libucrt:setlocale.obj
 0001:0004b433       __invoke_watson_if_oneof   0044c433 f i libucrt:setlocale.obj
 0001:0004b4fb       _setlocale                 0044c4fb f   libucrt:setlocale.obj
 0001:0004b533       ___pctype_func             0044c533 f   libucrt:ctype.obj
 0001:0004b557       ___pwctype_func            0044c557 f   libucrt:ctype.obj
 0001:0004b6f0       ___isascii                 0044c6f0 f   libucrt:_ctype.obj
 0001:0004b710       ___iscsym                  0044c710 f   libucrt:_ctype.obj
 0001:0004b780       ___iscsymf                 0044c780 f   libucrt:_ctype.obj
 0001:0004b820       ___toascii                 0044c820 f   libucrt:_ctype.obj
 0001:0004b830       __isalnum_l                0044c830 f   libucrt:_ctype.obj
 0001:0004b900       __isalpha_l                0044c900 f   libucrt:_ctype.obj
 0001:0004b9d0       __isblank_l                0044c9d0 f   libucrt:_ctype.obj
 0001:0004ba90       __iscntrl_l                0044ca90 f   libucrt:_ctype.obj
 0001:0004bb50       __iscsym_l                 0044cb50 f   libucrt:_ctype.obj
 0001:0004bc10       __iscsymf_l                0044cc10 f   libucrt:_ctype.obj
 0001:0004bcd0       __isdigit_l                0044ccd0 f   libucrt:_ctype.obj
 0001:0004bd90       __isgraph_l                0044cd90 f   libucrt:_ctype.obj
 0001:0004be60       __islower_l                0044ce60 f   libucrt:_ctype.obj
 0001:0004bf20       __isprint_l                0044cf20 f   libucrt:_ctype.obj
 0001:0004bff0       __ispunct_l                0044cff0 f   libucrt:_ctype.obj
 0001:0004c0b0       __isspace_l                0044d0b0 f   libucrt:_ctype.obj
 0001:0004c170       __isupper_l                0044d170 f   libucrt:_ctype.obj
 0001:0004c230       __isxdigit_l               0044d230 f   libucrt:_ctype.obj
 0001:0004c300       _isalnum                   0044d300 f   libucrt:_ctype.obj
 0001:0004c390       _isalpha                   0044d390 f   libucrt:_ctype.obj
 0001:0004c420       _isblank                   0044d420 f   libucrt:_ctype.obj
 0001:0004c4c0       _iscntrl                   0044d4c0 f   libucrt:_ctype.obj
 0001:0004c550       _isdigit                   0044d550 f   libucrt:_ctype.obj
 0001:0004c5e0       _isgraph                   0044d5e0 f   libucrt:_ctype.obj
 0001:0004c670       _islower                   0044d670 f   libucrt:_ctype.obj
 0001:0004c700       _isprint                   0044d700 f   libucrt:_ctype.obj
 0001:0004c790       _ispunct                   0044d790 f   libucrt:_ctype.obj
 0001:0004c820       _isspace                   0044d820 f   libucrt:_ctype.obj
 0001:0004c8b0       _isupper                   0044d8b0 f   libucrt:_ctype.obj
 0001:0004c940       _isxdigit                  0044d940 f   libucrt:_ctype.obj
 0001:0004c9cb       ??$?RG@__crt_internal_free_policy@@QBEXQBG@Z 0044d9cb f i libucrt:initctype.obj
 0001:0004c9dd       ??$?RJ@__crt_internal_free_policy@@QBEXQBJ@Z 0044d9dd f i libucrt:initctype.obj
 0001:0004c9ef       ??0?$__crt_unique_heap_ptr@GU__crt_internal_free_policy@@@@QAE@QAG@Z 0044d9ef f i libucrt:initctype.obj
 0001:0004c9ff       ??0?$__crt_unique_heap_ptr@JU__crt_internal_free_policy@@@@QAE@QAJ@Z 0044d9ff f i libucrt:initctype.obj
 0001:0004ca0f       ??1?$__crt_unique_heap_ptr@GU__crt_internal_free_policy@@@@QAE@XZ 0044da0f f i libucrt:initctype.obj
 0001:0004ca21       ??1?$__crt_unique_heap_ptr@JU__crt_internal_free_policy@@@@QAE@XZ 0044da21 f i libucrt:initctype.obj
 0001:0004ca33       ?detach@?$__crt_unique_heap_ptr@EU__crt_internal_free_policy@@@@QAEPAEXZ 0044da33 f i libucrt:initctype.obj
 0001:0004ca39       ?detach@?$__crt_unique_heap_ptr@GU__crt_internal_free_policy@@@@QAEPAGXZ 0044da39 f i libucrt:initctype.obj
 0001:0004ca3f       ?detach@?$__crt_unique_heap_ptr@JU__crt_internal_free_policy@@@@QAEPAJXZ 0044da3f f i libucrt:initctype.obj
 0001:0004ca45       ?release@?$__crt_unique_heap_ptr@GU__crt_internal_free_policy@@@@QAEXXZ 0044da45 f i libucrt:initctype.obj
 0001:0004ca57       ?release@?$__crt_unique_heap_ptr@JU__crt_internal_free_policy@@@@QAEXXZ 0044da57 f i libucrt:initctype.obj
 0001:0004ca69       ____lc_codepage_func       0044da69 f   libucrt:initctype.obj
 0001:0004ca8e       ____lc_collate_cp_func     0044da8e f   libucrt:initctype.obj
 0001:0004cab3       ____lc_locale_name_func    0044dab3 f   libucrt:initctype.obj
 0001:0004cada       ____mb_cur_max_func        0044dada f   libucrt:initctype.obj
 0001:0004caff       ____mb_cur_max_l_func      0044daff f   libucrt:initctype.obj
 0001:0004cb18       ___acrt_locale_initialize_ctype 0044db18 f   libucrt:initctype.obj
 0001:0004cf76       __invoke_watson_if_error   0044df76 f i libucrt:wcsdup.obj
 0001:0004cf98       __wcsdup                   0044df98 f   libucrt:wcsdup.obj
 0001:0004d274       ___ascii_tolower           0044e274 f i libucrt:tolower_toupper.obj
 0001:0004d28b       __tolower                  0044e28b f   libucrt:tolower_toupper.obj
 0001:0004d298       __tolower_l                0044e298 f   libucrt:tolower_toupper.obj
 0001:0004d39c       __toupper                  0044e39c f   libucrt:tolower_toupper.obj
 0001:0004d3a9       __toupper_fast_internal    0044e3a9 f i libucrt:tolower_toupper.obj
 0001:0004d3c2       __toupper_l                0044e3c2 f   libucrt:tolower_toupper.obj
 0001:0004d4c7       _tolower                   0044e4c7 f   libucrt:tolower_toupper.obj
 0001:0004d4f7       _toupper                   0044e4f7 f   libucrt:tolower_toupper.obj
 0001:0004d527       ?is_in_use@__crt_stdio_stream@@QBE_NXZ 0044e527 f i libucrt:fclose.obj
 0001:0004d533       __fclose_nolock            0044e533 f   libucrt:fclose.obj
 0001:0004d5aa       _fclose                    0044e5aa f   libucrt:fclose.obj
 0001:0004d8f2       ??0__crt_stdio_stream@@QAE@QAU__crt_stdio_stream_data@@@Z 0044e8f2 f i libucrt:fflush.obj
 0001:0004da16       ?__acrt_stdio_reset_buffer@@YAXV__crt_stdio_stream@@@Z 0044ea16 f i libucrt:fflush.obj
 0001:0004daac       ?has_all_of@__crt_stdio_stream@@QBE_NJ@Z 0044eaac f i libucrt:fflush.obj
 0001:0004db14       ?set_flags@__crt_stdio_stream@@QBE_NJ@Z 0044eb14 f i libucrt:fflush.obj
 0001:0004db38       ?unset_flags@__crt_stdio_stream@@QBE_NJ@Z 0044eb38 f i libucrt:fflush.obj
 0001:0004db61       ___acrt_stdio_flush_nolock 0044eb61 f   libucrt:fflush.obj
 0001:0004dbc6       __fflush_nolock            0044ebc6 f   libucrt:fflush.obj
 0001:0004dc0e       __flushall                 0044ec0e f   libucrt:fflush.obj
 0001:0004dc17       _fflush                    0044ec17 f   libucrt:fflush.obj
 0001:0004dc6c       _fgetpos                   0044ec6c f   libucrt:fgetpos.obj
 0001:0004dcc7       __fputc_nolock             0044ecc7 f   libucrt:fputc.obj
 0001:0004dcf0       __fputchar                 0044ecf0 f   libucrt:fputc.obj
 0001:0004dd0a       __putc_nolock              0044ed0a f   libucrt:fputc.obj
 0001:0004dd15       _fputc                     0044ed15 f   libucrt:fputc.obj
 0001:0004de1f       _putc                      0044ee1f f   libucrt:fputc.obj
 0001:0004de2a       _putchar                   0044ee2a f   libucrt:fputc.obj
 0001:0004de35       ?has_any_buffer@__crt_stdio_stream@@QBE_NXZ 0044ee35 f i libucrt:fread.obj
 0001:0004de44       ?has_any_of@__crt_stdio_stream@@QBE_NJ@Z 0044ee44 f i libucrt:fread.obj
 0001:0004de59       __fread_nolock             0044ee59 f   libucrt:fread.obj
 0001:0004de76       __fread_nolock_s           0044ee76 f   libucrt:fread.obj
 0001:0004e05c       _fread                     0044f05c f   libucrt:fread.obj
 0001:0004e079       _fread_s                   0044f079 f   libucrt:fread.obj
 0001:0004e197       _fsetpos                   0044f197 f   libucrt:fsetpos.obj
 0001:0004e1d2       ?LongLongSub@@YAJ_J0PA_J@Z 0044f1d2 f i libucrt:fseek.obj
 0001:0004e48e       ?lowio_handle@__crt_stdio_stream@@QBEHXZ 0044f48e f i libucrt:fseek.obj
 0001:0004e495       __fseek_nolock             0044f495 f   libucrt:fseek.obj
 0001:0004e4b0       __fseeki64                 0044f4b0 f   libucrt:fseek.obj
 0001:0004e4cb       __fseeki64_nolock          0044f4cb f   libucrt:fseek.obj
 0001:0004e4e6       _fseek                     0044f4e6 f   libucrt:fseek.obj
 0001:0004e61d       ?has_big_buffer@__crt_stdio_stream@@QBE_NXZ 0044f61d f i libucrt:fwrite.obj
 0001:0004e629       __fwrite_nolock            0044f629 f   libucrt:fwrite.obj
 0001:0004e7aa       _fwrite                    0044f7aa f   libucrt:fwrite.obj
 0001:0004e983       ?detach@?$__crt_unique_heap_ptr@DU__crt_internal_free_policy@@@@QAEPADXZ 0044f983 f i libucrt:setvbuf.obj
 0001:0004e9bc       _setvbuf                   0044f9bc f   libucrt:setvbuf.obj
 0001:0004ea3e       __ungetc_nolock            0044fa3e f   libucrt:ungetc.obj
 0001:0004eb38       _ungetc                    0044fb38 f   libucrt:ungetc.obj
 0001:0004ebab       _frexp                     0044fbab f   libucrt:frexp.obj
 0001:0004eca5       _realloc                   0044fca5 f   libucrt:realloc.obj
 0001:0004ecb0       _strcspn                   0044fcb0 f   libucrt:strcspn.obj
 0001:0004ed00       __CIpow                    0044fd00 f   libucrt:pow_impl.obj
 0001:0004ed3b       __CIpow_default            0044fd3b f   libucrt:pow_impl.obj
 0001:0004ed54       __pow_default              0044fd54     libucrt:pow_impl.obj
 0001:0004ef49       __set_abort_behavior       0044ff49 f   libucrt:abort.obj
 0001:0004ef6a       _abort                     0044ff6a f   libucrt:abort.obj
 0001:0004efae       ___strncnt                 0044ffae f   libucrt:strncnt.obj
 0001:0004f143       ??$__acrt_mbs_to_wcs_cp@U__crt_win32_buffer_internal_dynamic_resizing@@@@YAHQBDAAV?$__crt_win32_buffer@_WU__crt_win32_buffer_internal_dynamic_resizing@@@@I@Z 00450143 f i libucrt:strftime.obj
 0001:0004f160       ??$__acrt_wcs_to_mbs_cp@U__crt_win32_buffer_no_resizing@@@@YAHQB_WAAV?$__crt_win32_buffer@DU__crt_win32_buffer_no_resizing@@@@I@Z 00450160 f i libucrt:strftime.obj
 0001:0004f17d       ??0?$__crt_win32_buffer@DU__crt_win32_buffer_no_resizing@@@@QAE@QADI@Z 0045017d f i libucrt:strftime.obj
 0001:0004f1a1       ??0?$__crt_win32_buffer@_WU__crt_win32_buffer_internal_dynamic_resizing@@@@QAE@XZ 004501a1 f i libucrt:strftime.obj
 0001:0004f1b7       ??1?$__crt_win32_buffer@DU__crt_win32_buffer_no_resizing@@@@QAE@XZ 004501b7 f i libucrt:strftime.obj
 0001:0004f1c2       ??1?$__crt_win32_buffer@_WU__crt_win32_buffer_internal_dynamic_resizing@@@@QAE@XZ 004501c2 f i libucrt:strftime.obj
 0001:0004f20c       ?_deallocate@?$__crt_win32_buffer@DU__crt_win32_buffer_no_resizing@@@@AAEXXZ 0045020c f i libucrt:strftime.obj
 0001:0004f217       ?_deallocate@?$__crt_win32_buffer@_WU__crt_win32_buffer_internal_dynamic_resizing@@@@AAEXXZ 00450217 f i libucrt:strftime.obj
 0001:0004f231       ?allocate@?$__crt_win32_buffer@DU__crt_win32_buffer_no_resizing@@@@QAEHI@Z 00450231 f i libucrt:strftime.obj
 0001:0004f258       ?allocate@?$__crt_win32_buffer@_WU__crt_win32_buffer_internal_dynamic_resizing@@@@QAEHI@Z 00450258 f i libucrt:strftime.obj
 0001:0004f297       ?allocate@__crt_win32_buffer_internal_dynamic_resizing@@SAHQAPAXIABV__crt_win32_buffer_empty_debug_info@@@Z 00450297 f i libucrt:strftime.obj
 0001:0004f2b6       ?allocate@__crt_win32_buffer_no_resizing@@SAHQAPAXIABV__crt_win32_buffer_empty_debug_info@@@Z 004502b6 f i libucrt:strftime.obj
 0001:0004f2c3       ?capacity@?$__crt_win32_buffer@DU__crt_win32_buffer_no_resizing@@@@QBEIXZ 004502c3 f i libucrt:strftime.obj
 0001:0004f2c7       ?capacity@?$__crt_win32_buffer@_WU__crt_win32_buffer_internal_dynamic_resizing@@@@QBEIXZ 004502c7 f i libucrt:strftime.obj
 0001:0004f2cb       ?data@?$__crt_win32_buffer@DU__crt_win32_buffer_no_resizing@@@@QAEPADXZ 004502cb f i libucrt:strftime.obj
 0001:0004f2cf       ?data@?$__crt_win32_buffer@_WU__crt_win32_buffer_internal_dynamic_resizing@@@@QAEPA_WXZ 004502cf f i libucrt:strftime.obj
 0001:0004f2d3       ?deallocate@__crt_win32_buffer_internal_dynamic_resizing@@SAXQAXABV__crt_win32_buffer_empty_debug_info@@@Z 004502d3 f i libucrt:strftime.obj
 0001:0004f2e3       ?deallocate@__crt_win32_buffer_no_resizing@@SAXQAXABV__crt_win32_buffer_empty_debug_info@@@Z 004502e3 f i libucrt:strftime.obj
 0001:0004f2e6       ?debug_info@?$__crt_win32_buffer@DU__crt_win32_buffer_no_resizing@@@@QBEABV__crt_win32_buffer_empty_debug_info@@XZ 004502e6 f i libucrt:strftime.obj
 0001:0004f2e9       ?debug_info@?$__crt_win32_buffer@_WU__crt_win32_buffer_internal_dynamic_resizing@@@@QBEABV__crt_win32_buffer_empty_debug_info@@XZ 004502e9 f i libucrt:strftime.obj
 0001:0004f2ec       ?set_to_nullptr@?$__crt_win32_buffer@DU__crt_win32_buffer_no_resizing@@@@QAEXXZ 004502ec f i libucrt:strftime.obj
