 KepcoOPC

 Timestamp is 6216b085 (Wed Feb 23 16:09:09 2022)

 Preferred load address is 00400000

 Start         Length     Name                   Class
 0001:00000000 0003fe0aH .text$mn                CODE
 0001:0003fe0a 00000047H .text$x                 CODE
 0002:00000000 0000016cH .idata$5                DATA
 0002:0000016c 00000008H .00cfg                  DATA
 0002:00000174 00000004H .CRT$XCA                DATA
 0002:00000178 00000004H .CRT$XCAA               DATA
 0002:0000017c 00000004H .CRT$XCZ                DATA
 0002:00000180 00000004H .CRT$XIA                DATA
 0002:00000184 00000004H .CRT$XIAA               DATA
 0002:00000188 00000004H .CRT$XIAC               DATA
 0002:0000018c 00000010H .CRT$XIC                DATA
 0002:0000019c 00000004H .CRT$XIZ                DATA
 0002:000001a0 00000004H .CRT$XPA                DATA
 0002:000001a4 00000008H .CRT$XPX                DATA
 0002:000001ac 00000004H .CRT$XPXA               DATA
 0002:000001b0 00000004H .CRT$XPZ                DATA
 0002:000001b4 00000004H .CRT$XTA                DATA
 0002:000001b8 00000008H .CRT$XTZ                DATA
 0002:000001bc 00000000H .gfids$y                DATA
 0002:000001c0 00007bc0H .rdata                  DATA
 0002:00007d80 00000004H .rdata$CastGuardVftablesA DATA
 0002:00007d84 00000004H .rdata$CastGuardVftablesC DATA
 0002:00007d88 000002a0H .rdata$r                DATA
 0002:00008028 0000001cH .rdata$sxdata           DATA
 0002:00008044 00000550H .rdata$voltmd           DATA
 0002:00008594 000003b8H .rdata$zzzdbg           DATA
 0002:0000894c 00000004H .rtc$IAA                DATA
 0002:00008950 00000004H .rtc$IZZ                DATA
 0002:00008954 00000004H .rtc$TAA                DATA
 0002:00008958 00000008H .rtc$TZZ                DATA
 0002:00008960 000008a4H .xdata$x                DATA
 0002:00009204 00000000H .edata                  DATA
 0002:00009204 00000028H .idata$2                DATA
 0002:0000922c 00000014H .idata$3                DATA
 0002:00009240 0000016cH .idata$4                DATA
 0002:000093ac 00000608H .idata$6                DATA
 0003:00000000 000008b0H .data                   DATA
 0003:000008b0 00000058H .data$r                 DATA
 0003:00000908 000000b8H .data$rs                DATA
 0003:000009c0 00001534H .bss                    DATA
 0004:00000000 00000060H .rsrc$01                DATA
 0004:00000060 00000180H .rsrc$02                DATA

  Address         Publics by Value              Rva+Base       Lib:Object

 0000:00000000       ___hybrid_code_map_count   00000000     <absolute>
 0000:00000000       ___guard_fids_count        00000000     <absolute>
 0000:00000000       ___guard_longjmp_count     00000000     <absolute>
 0000:00000000       ___dynamic_value_reloc_table 00000000     <absolute>
 0000:00000000       ___hybrid_auxiliary_iat    00000000     <absolute>
 0000:00000000       ___arm64x_redirection_metadata_count 00000000     <absolute>
 0000:00000000       ___arm64x_redirection_metadata 00000000     <absolute>
 0000:00000000       ___guard_fids_table        00000000     <absolute>
 0000:00000000       ___enclave_config          00000000     <absolute>
 0000:00000000       ___guard_eh_cont_table     00000000     <absolute>
 0000:00000000       ___arm64x_extra_rfe_table  00000000     <absolute>
 0000:00000000       ___guard_iat_count         00000000     <absolute>
 0000:00000000       ___arm64x_native_entrypoint 00000000     <absolute>
 0000:00000000       ___hybrid_code_map         00000000     <absolute>
 0000:00000000       ___guard_longjmp_table     00000000     <absolute>
 0000:00000000       ___guard_iat_table         00000000     <absolute>
 0000:00000000       ___x64_code_ranges_to_entry_points 00000000     <absolute>
 0000:00000000       ___AbsoluteZero            00000000     <absolute>
 0000:00000000       __except_list              00000000     <absolute>
 0000:00000000       ___arm64x_extra_rfe_table_size 00000000     <absolute>
 0000:00000000       ___guard_eh_cont_count     00000000     <absolute>
 0000:00000000       ___hybrid_auxiliary_iat_copy 00000000     <absolute>
 0000:00000000       ___x64_code_ranges_to_entry_points_count 00000000     <absolute>
 0000:00000000       ___guard_check_icall_a64n_fptr 00000000     <absolute>
 0000:00000007       ___safe_se_handler_count   00000007     <absolute>
 0000:00000100       ___guard_flags             00000100     <absolute>
 0000:00000000       ___ImageBase               00400000     <linker-defined>
 0001:00000000       ___local_stdio_printf_options 00401000 f i KepcoOPC.obj
 0001:00000010       _main                      00401010 f   KepcoOPC.obj
 0001:00000360       _printf                    00401360 f i KepcoOPC.obj
 0001:00000390       _send_with_wait            00401390 f   KepcoOPC.obj
 0001:00000490       _sprintf                   00401490 f i KepcoOPC.obj
 0001:000004c1       _viOpenDefaultRM@4         004014c1 f   visa32:VISA32.dll
 0001:000004c7       _viOpen@20                 004014c7 f   visa32:VISA32.dll
 0001:000004cd       _viClose@4                 004014cd f   visa32:VISA32.dll
 0001:000004d3       _viSetAttribute@12         004014d3 f   visa32:VISA32.dll
 0001:000004d9       _viRead@16                 004014d9 f   visa32:VISA32.dll
 0001:000004df       _viWrite@16                004014df f   visa32:VISA32.dll
 0001:000004e5       _viReadSTB@8               004014e5 f   visa32:VISA32.dll
 0001:000004eb       @__security_check_cookie@4 004014eb f   LIBCMT:secchk.obj
 0001:0000074a       ?configure_argv@__scrt_narrow_argv_policy@@SAHXZ 0040174a f i LIBCMT:exe_main.obj
 0001:00000757       ?initialize_environment@__scrt_narrow_environment_policy@@SAHXZ 00401757 f i LIBCMT:exe_main.obj
 0001:00000780       ?set_app_type@__scrt_main_policy@@SAXXZ 00401780 f i LIBCMT:exe_main.obj
 0001:00000789       ?set_commode@__scrt_file_policy@@SAXXZ 00401789 f i LIBCMT:exe_main.obj
 0001:0000079a       ?set_fmode@__scrt_file_policy@@SAXXZ 0040179a f i LIBCMT:exe_main.obj
 0001:000007a7       _mainCRTStartup            004017a7 f   LIBCMT:exe_main.obj
 0001:000007b1       ___raise_securityfailure   004017b1 f   LIBCMT:gs_report.obj
 0001:000007d9       ___report_gsfailure        004017d9 f   LIBCMT:gs_report.obj
 0001:000008d3       ___report_rangecheckfailure 004018d3 f   LIBCMT:gs_report.obj
 0001:000008df       ___report_securityfailure  004018df f   LIBCMT:gs_report.obj
 0001:000009ae       ___report_securityfailureEx 004019ae f   LIBCMT:gs_report.obj
 0001:00000b3b       _NtCurrentTeb              00401b3b f i LIBCMT:utility.obj
 0001:00000b42       ___scrt_acquire_startup_lock 00401b42 f   LIBCMT:utility.obj
 0001:00000b74       ___scrt_dllmain_after_initialize_c 00401b74 f   LIBCMT:utility.obj
 0001:00000b9f       ___scrt_dllmain_before_initialize_c 00401b9f f   LIBCMT:utility.obj
 0001:00000bad       ___scrt_dllmain_crt_thread_attach 00401bad f   LIBCMT:utility.obj
 0001:00000bcc       ___scrt_dllmain_crt_thread_detach 00401bcc f   LIBCMT:utility.obj
 0001:00000bd9       ___scrt_dllmain_exception_filter 00401bd9 f   LIBCMT:utility.obj
 0001:00000c0d       ___scrt_dllmain_uninitialize_c 00401c0d f   LIBCMT:utility.obj
 0001:00000c30       ___scrt_dllmain_uninitialize_critical 00401c30 f   LIBCMT:utility.obj
 0001:00000c3d       ___scrt_initialize_crt     00401c3d f   LIBCMT:utility.obj
 0001:00000c76       ___scrt_initialize_onexit_tables 00401c76 f   LIBCMT:utility.obj
 0001:00000cfd       ___scrt_is_nonwritable_in_current_image 00401cfd f   LIBCMT:utility.obj
 0001:00000d91       ___scrt_release_startup_lock 00401d91 f   LIBCMT:utility.obj
 0001:00000dae       ___scrt_uninitialize_crt   00401dae f   LIBCMT:utility.obj
 0001:00000dd6       __onexit                   00401dd6 f   LIBCMT:utility.obj
 0001:00000e03       _at_quick_exit             00401e03 f   LIBCMT:utility.obj
 0001:00000e26       _atexit                    00401e26 f   LIBCMT:utility.obj
 0001:00000e88       ___security_init_cookie    00401e88 f   LIBCMT:gs_support.obj
 0001:00000ed3       __matherr                  00401ed3 f   LIBCMT:matherr.obj
 0001:00000ed6       __get_startup_argv_mode    00401ed6 f   LIBCMT:argv_mode.obj
 0001:00000eda       __get_startup_commit_mode  00401eda f   LIBCMT:commit_mode.obj
 0001:00000edd       __get_startup_file_mode    00401edd f   LIBCMT:file_mode.obj
 0001:00000ee3       __get_startup_new_mode     00401ee3 f   LIBCMT:new_mode.obj
 0001:00000ee6       __get_startup_thread_locale_mode 00401ee6 f   LIBCMT:thread_locale.obj
 0001:00000ee9       ?__scrt_initialize_type_info@@YAXXZ 00401ee9 f   LIBCMT:tncleanup.obj
 0001:00000ef5       ?__scrt_uninitialize_type_info@@YAXXZ 00401ef5 f   LIBCMT:tncleanup.obj
 0001:00000f01       __should_initialize_environment 00401f01 f   LIBCMT:env_mode.obj
 0001:00000f04       __initialize_default_precision 00401f04 f   LIBCMT:default_precision.obj
 0001:00000f25       __initialize_invalid_parameter_handler 00401f25 f   LIBCMT:invalid_parameter_handler.obj
 0001:00000f28       __initialize_denormal_control 00401f28 f   LIBCMT:denormal_control.obj
 0001:00000f2b       ___local_stdio_scanf_options 00401f2b f i LIBCMT:default_local_stdio_options.obj
 0001:00000f31       ___scrt_initialize_default_local_stdio_options 00401f31 f   LIBCMT:default_local_stdio_options.obj
 0001:00000f4e       ___scrt_is_user_matherr_present 00401f4e f   LIBCMT:matherr_detection.obj
 0001:00000f5a       ___scrt_get_dyn_tls_init_callback 00401f5a f   LIBCMT:dyn_tls_init.obj
 0001:00000f60       ___scrt_get_dyn_tls_dtor_callback 00401f60 f   LIBCMT:dyn_tls_dtor.obj
 0001:00000f66       ___scrt_fastfail           00401f66 f   LIBCMT:utility_desktop.obj
 0001:00001081       ___scrt_get_show_window_mode 00402081 f   LIBCMT:utility_desktop.obj
 0001:000010b2       ___scrt_initialize_mta     004020b2 f   LIBCMT:utility_desktop.obj
 0001:000010b7       ___scrt_initialize_winrt   004020b7 f   LIBCMT:utility_desktop.obj
 0001:000010ba       ___scrt_is_managed_app     004020ba f   LIBCMT:utility_desktop.obj
 0001:000010fd       ___scrt_set_unhandled_exception_filter 004020fd f   LIBCMT:utility_desktop.obj
 0001:00001109       ___scrt_exe_initialize_mta 00402109 f   LIBCMT:utility_desktop.obj
 0001:00001109       ___scrt_stub_for_initialize_mta 00402109 f   LIBCMT:utility_desktop.obj
 0001:0000110c       ___scrt_unhandled_exception_filter@4 0040210c f   LIBCMT:utility_desktop.obj
 0001:00001162       __crt_debugger_hook        00402162 f   LIBCMT:utility_desktop.obj
 0001:0000116a       __RTC_Initialize           0040216a f   LIBCMT:initsect.obj
 0001:00001196       __RTC_Terminate            00402196 f   LIBCMT:initsect.obj
 0001:000011d0       __SEH_prolog4              004021d0 f   LIBCMT:sehprolg4.obj
 0001:00001220       __SEH_epilog4              00402220 f   LIBCMT:sehprolg4.obj
 0001:00001234       @_guard_check_icall_nop@4  00402234 f i LIBCMT:guard_support.obj
 0001:00001237       _ReadNoFence               00402237 f i LIBCMT:guard_support.obj
 0001:00001241       _ReadPointerNoFence        00402241 f i LIBCMT:guard_support.obj
 0001:0000124b       ___castguard_check_failure_debugbreak 0040224b f i LIBCMT:guard_support.obj
 0001:00001266       ___castguard_check_failure_fastfail 00402266 f i LIBCMT:guard_support.obj
 0001:00001285       ___castguard_check_failure_nop 00402285 f i LIBCMT:guard_support.obj
 0001:00001288       ___castguard_check_failure_os_handled 00402288 f i LIBCMT:guard_support.obj
 0001:000012dc       ___castguard_slow_path_check_debugbreak 004022dc f i LIBCMT:guard_support.obj
 0001:00001309       ___castguard_slow_path_check_fastfail 00402309 f i LIBCMT:guard_support.obj
 0001:0000133a       ___castguard_slow_path_check_nop 0040233a f i LIBCMT:guard_support.obj
 0001:0000133d       ___castguard_slow_path_check_os_handled 0040233d f i LIBCMT:guard_support.obj
 0001:000013a3       __guard_icall_checks_enforced 004023a3 f i LIBCMT:guard_support.obj
 0001:000013b5       ___isa_available_init      004023b5 f   LIBCMT:cpu_disp.obj
 0001:00001586       ___scrt_is_ucrt_dll_in_use 00402586 f   LIBCMT:ucrt_detection.obj
 0001:000015e0       __except_handler4          004025e0 f   libvcruntime:chandler4.obj
 0001:0000173e       ___vcrt_initialize         0040273e f   libvcruntime:initialization.obj
 0001:0000175d       ___vcrt_thread_attach      0040275d f   libvcruntime:initialization.obj
 0001:00001768       ___vcrt_thread_detach      00402768 f   libvcruntime:initialization.obj
 0001:00001773       ___vcrt_uninitialize       00402773 f   libvcruntime:initialization.obj
 0001:0000178a       ___vcrt_uninitialize_critical 0040278a f   libvcruntime:initialization.obj
 0001:000017a3       ??$?RD@__crt_internal_free_policy@@QBEXQBD@Z 004027a3 f i libvcruntime:std_type_info.obj
 0001:000017b3       ??$?RX@__crt_internal_free_policy@@QBEXQBX@Z 004027b3 f i libvcruntime:std_type_info.obj
 0001:000017c3       ??$__crt_interlocked_compare_exchange_pointer@$$CBDPAD$$T@@YAPBDPDSBDQAD$$T@Z 004027c3 f i libvcruntime:std_type_info.obj
 0001:000017d5       ??$__crt_interlocked_read_pointer@$$CBD@@YAPBDPDSBD@Z 004027d5 f i libvcruntime:std_type_info.obj
 0001:000017df       ??0?$__crt_unique_heap_ptr@DU__crt_internal_free_policy@@@@QAE@QAD@Z 004027df f i libvcruntime:std_type_info.obj
 0001:000017ed       ??0?$__crt_unique_heap_ptr@XU__crt_internal_free_policy@@@@QAE@QAX@Z 004027ed f i libvcruntime:std_type_info.obj
 0001:000017fb       ??1?$__crt_unique_heap_ptr@DU__crt_internal_free_policy@@@@QAE@XZ 004027fb f i libvcruntime:std_type_info.obj
 0001:0000180b       ??1?$__crt_unique_heap_ptr@XU__crt_internal_free_policy@@@@QAE@XZ 0040280b f i libvcruntime:std_type_info.obj
 0001:0000181b       ??B?$__crt_unique_heap_ptr@DU__crt_internal_free_policy@@@@QBE_NXZ 0040281b f i libvcruntime:std_type_info.obj
 0001:00001822       ??B?$__crt_unique_heap_ptr@XU__crt_internal_free_policy@@@@QBE_NXZ 00402822 f i libvcruntime:std_type_info.obj
 0001:00001855       ?__crt_interlocked_read_32@@YAHPDH@Z 00402855 f i libvcruntime:std_type_info.obj
 0001:0000185f       ?detach@?$__crt_unique_heap_ptr@XU__crt_internal_free_policy@@@@QAEPAXXZ 0040285f f i libvcruntime:std_type_info.obj
 0001:00001865       ?get@?$__crt_unique_heap_ptr@DU__crt_internal_free_policy@@@@QBEPADXZ 00402865 f i libvcruntime:std_type_info.obj
 0001:00001868       ?get@?$__crt_unique_heap_ptr@XU__crt_internal_free_policy@@@@QBEPAXXZ 00402868 f i libvcruntime:std_type_info.obj
 0001:0000186b       ?is_valid@?$__crt_unique_heap_ptr@DU__crt_internal_free_policy@@@@QBE_NXZ 0040286b f i libvcruntime:std_type_info.obj
 0001:00001872       ?is_valid@?$__crt_unique_heap_ptr@XU__crt_internal_free_policy@@@@QBE_NXZ 00402872 f i libvcruntime:std_type_info.obj
 0001:00001879       ?release@?$__crt_unique_heap_ptr@DU__crt_internal_free_policy@@@@QAEXXZ 00402879 f i libvcruntime:std_type_info.obj
 0001:00001889       ?release@?$__crt_unique_heap_ptr@XU__crt_internal_free_policy@@@@QAEXXZ 00402889 f i libvcruntime:std_type_info.obj
 0001:00001899       ___std_type_info_compare   00402899 f   libvcruntime:std_type_info.obj
 0001:000018d5       ___std_type_info_destroy_list 004028d5 f   libvcruntime:std_type_info.obj
 0001:000018f8       ___std_type_info_hash      004028f8 f   libvcruntime:std_type_info.obj
 0001:0000191e       ___std_type_info_name      0040291e f   libvcruntime:std_type_info.obj
 0001:000019e3       ___DestructExceptionObject 004029e3 f   libvcruntime:ehhelpers.obj
 0001:00001a84       ?_CallMemberFunction0@@YGXQAX0@Z 00402a84 f i libvcruntime:ehhelpers.obj
 0001:00001ae9       ?raw_name@type_info@@QBEPBDXZ 00402ae9 f i libvcruntime:ehhelpers.obj
 0001:00001aed       __IsExceptionObjectToBeDestroyed 00402aed f   libvcruntime:ehhelpers.obj
 0001:00001b13       __SetWinRTOutOfMemoryExceptionCallback 00402b13 f   libvcruntime:ehhelpers.obj
 0001:00001b20       ___AdjustPointer           00402b20 f   libvcruntime:ehhelpers.obj
 0001:00001b45       ___FrameUnwindFilter       00402b45 f   libvcruntime:ehhelpers.obj
 0001:00001b9b       ___GetPlatformExceptionInfo 00402b9b f   libvcruntime:ehhelpers.obj
 0001:00001be7       ___current_exception       00402be7 f   libvcruntime:ehhelpers.obj
 0001:00001bf0       ___current_exception_context 00402bf0 f   libvcruntime:ehhelpers.obj
 0001:00001bf9       ___processing_throw        00402bf9 f   libvcruntime:ehhelpers.obj
 0001:00001c02       ___std_terminate           00402c02 f   libvcruntime:ehhelpers.obj
 0001:00001c07       __is_exception_typeof      00402c07 f   libvcruntime:ehhelpers.obj
 0001:00001cb0       _memset                    00402cb0 f   libvcruntime:memset.obj
 0001:00001e10       __local_unwind4            00402e10 f   libvcruntime:exsup4.obj
 0001:00001f00       __seh_longjmp_unwind4@4    00402f00 f   libvcruntime:exsup4.obj
 0001:00001f30       @_EH4_CallFilterFunc@8     00402f30 f   libvcruntime:exsup4.obj
 0001:00001f50       @_EH4_TransferToHandler@8  00402f50 f   libvcruntime:exsup4.obj
 0001:00001f70       @_EH4_GlobalUnwind2@8      00402f70 f   libvcruntime:exsup4.obj
 0001:00001f90       @_EH4_LocalUnwind@16       00402f90 f   libvcruntime:exsup4.obj
 0001:00001fb2       ___except_validate_context_record 00402fb2 f   libvcruntime:jbcxrval.obj
 0001:00001fe2       ___except_validate_jump_buffer 00402fe2 f   libvcruntime:jbcxrval.obj
 0001:0000200f       ___except_validate_jump_buffer_common 0040300f f i libvcruntime:jbcxrval.obj
 0001:00002048       ??$?RU__vcrt_ptd@@@__crt_internal_free_policy@@QBEXQBU__vcrt_ptd@@@Z 00403048 f i libvcruntime:per_thread_data.obj
 0001:00002058       ??0?$__crt_unique_heap_ptr@U__vcrt_ptd@@U__crt_internal_free_policy@@@@QAE@QAU__vcrt_ptd@@@Z 00403058 f i libvcruntime:per_thread_data.obj
 0001:00002075       ??1?$__crt_unique_heap_ptr@U__vcrt_ptd@@U__crt_internal_free_policy@@@@QAE@XZ 00403075 f i libvcruntime:per_thread_data.obj
 0001:0000208e       ??B?$__crt_unique_heap_ptr@U__vcrt_ptd@@U__crt_internal_free_policy@@@@QBE_NXZ 0040308e f i libvcruntime:per_thread_data.obj
 0001:00002095       ?detach@?$__crt_unique_heap_ptr@U__vcrt_ptd@@U__crt_internal_free_policy@@@@QAEPAU__vcrt_ptd@@XZ 00403095 f i libvcruntime:per_thread_data.obj
 0001:0000209b       ?get@?$__crt_unique_heap_ptr@U__vcrt_ptd@@U__crt_internal_free_policy@@@@QBEPAU__vcrt_ptd@@XZ 0040309b f i libvcruntime:per_thread_data.obj
 0001:0000209e       ?is_valid@?$__crt_unique_heap_ptr@U__vcrt_ptd@@U__crt_internal_free_policy@@@@QBE_NXZ 0040309e f i libvcruntime:per_thread_data.obj
 0001:000020a5       ?release@?$__crt_unique_heap_ptr@U__vcrt_ptd@@U__crt_internal_free_policy@@@@QAEXXZ 004030a5 f i libvcruntime:per_thread_data.obj
 0001:000020cf       ___vcrt_freefls@4          004030cf f   libvcruntime:per_thread_data.obj
 0001:000020eb       ___vcrt_freeptd            004030eb f   libvcruntime:per_thread_data.obj
 0001:00002121       ___vcrt_getptd             00403121 f   libvcruntime:per_thread_data.obj
 0001:0000212f       ___vcrt_getptd_noexit      0040312f f   libvcruntime:per_thread_data.obj
 0001:000021c1       ___vcrt_getptd_noinit      004031c1 f   libvcruntime:per_thread_data.obj
 0001:000021f8       ___vcrt_initialize_ptd     004031f8 f   libvcruntime:per_thread_data.obj
 0001:0000222b       ___vcrt_uninitialize_ptd   0040322b f   libvcruntime:per_thread_data.obj
 0001:00002246       ___vcrt_initialize_locks   00403246 f   libvcruntime:locks.obj
 0001:00002282       ___vcrt_lock               00403282 f   libvcruntime:locks.obj
 0001:00002297       ___vcrt_uninitialize_locks 00403297 f   libvcruntime:locks.obj
 0001:000022c6       ___vcrt_unlock             004032c6 f   libvcruntime:locks.obj
 0001:000022db       ??$?0$00@DName@@QAE@PBDU?$StringLifeSelector@$00@@@Z 004032db f i libvcruntime:undname.obj
 0001:0000230e       ??$?0$00@pcharNode@@QAE@PBDHU?$StringLifeSelector@$00@@@Z 0040330e f i libvcruntime:undname.obj
 0001:00002329       ??$?0$01@DName@@QAE@PBDU?$StringLifeSelector@$01@@@Z 00403329 f i libvcruntime:undname.obj
 0001:0000235c       ??$?0$01@pcharNode@@QAE@PBDHU?$StringLifeSelector@$01@@@Z 0040335c f i libvcruntime:undname.obj
 0001:0000239c       ??$?0$0A@@DName@@QAE@PBDU?$StringLifeSelector@$0A@@@@Z 0040339c f i libvcruntime:undname.obj
 0001:000023cf       ??$?0$0A@@pcharNode@@QAE@PBDHU?$StringLifeSelector@$0A@@@@Z 004033cf f i libvcruntime:undname.obj
 0001:0000240f       ??$?0_K$0A@@?$optional@_K@std@@QAE@$$QA_K@Z 0040340f f i libvcruntime:undname.obj
 0001:00002429       ??$?0_K@?$_Optional_construct_base@_K@std@@QAE@Uin_place_t@1@$$QA_K@Z 00403429 f i libvcruntime:undname.obj
 0001:00002443       ??$?0_K@?$_Optional_destruct_base@_K$00@std@@QAE@Uin_place_t@1@$$QA_K@Z 00403443 f i libvcruntime:undname.obj
 0001:0000245d       ??$append@VDNameNode@@@DName@@AAEXPBVDNameNode@@@Z 0040345d f i libvcruntime:undname.obj
 0001:0000249e       ??$append@VDNameStatusNode@@@DName@@AAEXPBVDNameStatusNode@@@Z 0040349e f i libvcruntime:undname.obj
 0001:000024df       ??$append@VcharNode@@@DName@@AAEXPBVcharNode@@@Z 004034df f i libvcruntime:undname.obj
 0001:00002520       ??$append@VpDNameNode@@@DName@@AAEXPBVpDNameNode@@@Z 00403520 f i libvcruntime:undname.obj
 0001:00002561       ??$append@VpcharNode@@@DName@@AAEXPBVpcharNode@@@Z 00403561 f i libvcruntime:undname.obj
 0001:000025a2       ??$doPchar@$00@DName@@AAEXPBDH@Z 004035a2 f i libvcruntime:undname.obj
 0001:0000260d       ??$doPchar@$01@DName@@AAEXPBDH@Z 0040360d f i libvcruntime:undname.obj
 0001:0000267e       ??$doPchar@$0A@@DName@@AAEXPBDH@Z 0040367e f i libvcruntime:undname.obj
 0001:000026ef       ??$forward@_K@std@@YA$$QA_KAA_K@Z 004036ef f i libvcruntime:undname.obj
 0001:000026f7       ??$size@D$04@std@@YAIAAY04$$CBD@Z 004036f7 f i libvcruntime:undname.obj
 0001:000026fb       ??$size@D$0EB@@std@@YAIAAY0EB@$$CBD@Z 004036fb f i libvcruntime:undname.obj
 0001:000026ff       ??0?$_Optional_construct_base@_K@std@@QAE@XZ 004036ff f i libvcruntime:undname.obj
 0001:00002706       ??0?$_Optional_destruct_base@_K$00@std@@QAE@XZ 00403706 f i libvcruntime:undname.obj
 0001:0000270d       ??0?$optional@_K@std@@QAE@XZ 0040370d f i libvcruntime:undname.obj
 0001:00002714       ??0Block@_HeapManager@@QAE@XZ 00403714 f i libvcruntime:undname.obj
 0001:0000271a       ??0DName@@QAE@AAPBDD@Z     0040371a f   libvcruntime:undname.obj
 0001:0000279a       ??0DName@@QAE@ABUStringLiteral@@@Z 0040379a f   libvcruntime:undname.obj
 0001:000027c1       ??0DName@@QAE@ABV0@@Z      004037c1 f i libvcruntime:undname.obj
 0001:000027d7       ??0DName@@QAE@D@Z          004037d7 f   libvcruntime:undname.obj
 0001:000027f3       ??0DName@@QAE@PAV0@@Z      004037f3 f   libvcruntime:undname.obj
 0001:0000283a       ??0DName@@QAE@W4DNameStatus@@@Z 0040383a f   libvcruntime:undname.obj
 0001:0000287a       ??0DName@@QAE@XZ           0040387a f i libvcruntime:undname.obj
 0001:00002884       ??0DName@@QAE@_J@Z         00403884 f   libvcruntime:undname.obj
 0001:00002910       ??0DName@@QAE@_K@Z         00403910 f   libvcruntime:undname.obj
 0001:00002976       ??0DNameNode@@IAE@XZ       00403976 f i libvcruntime:undname.obj
 0001:0000297f       ??0Replicator@@QAE@XZ      0040397f f i libvcruntime:undname.obj
 0001:0000298e       ??0UnDecorator@@QAE@PBDP6APADJ@ZK@Z 0040398e f i libvcruntime:undname.obj
 0001:000029da       ??0_Nontrivial_dummy_type@std@@QAE@XZ 004039da f i libvcruntime:undname.obj
 0001:000029dd       ??0charNode@@QAE@D@Z       004039dd f i libvcruntime:undname.obj
 0001:000029f2       ??0pDNameNode@@QAE@PAVDName@@@Z 004039f2 f   libvcruntime:undname.obj
 0001:00002a1a       ??0pairNode@@QAE@PBVDNameNode@@0@Z 00403a1a f i libvcruntime:undname.obj
 0001:00002a40       ??2@YAPAXIAAV_HeapManager@@H@Z 00403a40 f   libvcruntime:undname.obj
 0001:00002a5f       ??4DName@@QAEAAV0@ABUStringLiteral@@@Z 00403a5f f   libvcruntime:undname.obj
 0001:00002a80       ??4DName@@QAEAAV0@ABV0@@Z  00403a80 f   libvcruntime:undname.obj
 0001:00002a96       ??4DName@@QAEAAV0@D@Z      00403a96 f i libvcruntime:undname.obj
 0001:00002ab2       ??4DName@@QAEAAV0@PAV0@@Z  00403ab2 f   libvcruntime:undname.obj
 0001:00002af5       ??4DName@@QAEAAV0@W4DNameStatus@@@Z 00403af5 f   libvcruntime:undname.obj
 0001:00002b27       ??AReplicator@@QBE?AVDName@@H@Z 00403b27 f   libvcruntime:undname.obj
 0001:00002b6d       ??B?$optional@_K@std@@QBE_NXZ 00403b6d f i libvcruntime:undname.obj
 0001:00002b71       ??D?$optional@_K@std@@QGAEAA_KXZ 00403b71 f i libvcruntime:undname.obj
 0001:00002b74       ??H@YA?AVDName@@ABUStringLiteral@@ABV0@@Z 00403b74 f i libvcruntime:undname.obj
 0001:00002b96       ??H@YA?AVDName@@DABV0@@Z   00403b96 f i libvcruntime:undname.obj
 0001:00002bc1       ??H@YA?AVDName@@W4DNameStatus@@ABV0@@Z 00403bc1 f i libvcruntime:undname.obj
 0001:00002be3       ??HDName@@QBE?AV0@ABUStringLiteral@@@Z 00403be3 f   libvcruntime:undname.obj
 0001:00002c05       ??HDName@@QBE?AV0@ABV0@@Z  00403c05 f   libvcruntime:undname.obj
 0001:00002c27       ??HDName@@QBE?AV0@D@Z      00403c27 f   libvcruntime:undname.obj
 0001:00002c49       ??HDName@@QBE?AV0@PAV0@@Z  00403c49 f   libvcruntime:undname.obj
 0001:00002c6b       ??HDName@@QBE?AV0@W4DNameStatus@@@Z 00403c6b f   libvcruntime:undname.obj
 0001:00002c8d       ??HStringLiteral@@QBE?AU0@H@Z 00403c8d f i libvcruntime:undname.obj
 0001:00002ca7       ??YDName@@QAEAAV0@ABUStringLiteral@@@Z 00403ca7 f   libvcruntime:undname.obj
 0001:00002cff       ??YDName@@QAEAAV0@ABV0@@Z  00403cff f   libvcruntime:undname.obj
 0001:00002d56       ??YDName@@QAEAAV0@D@Z      00403d56 f   libvcruntime:undname.obj
 0001:00002dab       ??YDName@@QAEAAV0@PAV0@@Z  00403dab f   libvcruntime:undname.obj
 0001:00002e0f       ??YDName@@QAEAAV0@W4DNameStatus@@@Z 00403e0f f   libvcruntime:undname.obj
 0001:00002e4f       ??YReplicator@@QAEAAV0@ABVDName@@@Z 00403e4f f   libvcruntime:undname.obj
 0001:00002e8d       ??_5DName@@QAEAAV0@ABV0@@Z 00403e8d f   libvcruntime:undname.obj
 0001:00002ea9       ??__K_l@@YA?AUStringLiteral@@PBDI@Z 00403ea9 f i libvcruntime:undname.obj
 0001:00002eb4       ?Constructor@_HeapManager@@QAEXP6APAXI@ZP6AXPAX@Z@Z 00403eb4 f i libvcruntime:undname.obj
 0001:00002ed1       ?Destructor@_HeapManager@@QAEXXZ 00403ed1 f i libvcruntime:undname.obj
 0001:00002f18       ?UScore@UnDecorator@@SA?AUStringLiteral@@W4Tokens@@@Z 00403f18 f   libvcruntime:undname.obj
 0001:00002f3f       ?composeDeclaration@UnDecorator@@CA?AVDName@@ABV2@@Z 00403f3f f i libvcruntime:undname.obj
 0001:00003c72       ?doAccessSpecifiers@UnDecorator@@SAHXZ 00404c72 f i libvcruntime:undname.obj
 0001:00003c80       ?doAllocationLanguage@UnDecorator@@SAHXZ 00404c80 f i libvcruntime:undname.obj
 0001:00003c8e       ?doAllocationModel@UnDecorator@@SAHXZ 00404c8e f i libvcruntime:undname.obj
 0001:00003c9c       ?doEcsu@UnDecorator@@SAHXZ 00404c9c f i libvcruntime:undname.obj
 0001:00003caa       ?doEllipsis@UnDecorator@@SAHXZ 00404caa f i libvcruntime:undname.obj
 0001:00003cb8       ?doFunctionReturns@UnDecorator@@SAHXZ 00404cb8 f i libvcruntime:undname.obj
 0001:00003cc6       ?doMSKeywords@UnDecorator@@SAHXZ 00404cc6 f i libvcruntime:undname.obj
 0001:00003cd3       ?doMemberTypes@UnDecorator@@SAHXZ 00404cd3 f i libvcruntime:undname.obj
 0001:00003ce1       ?doNameOnly@UnDecorator@@SAHXZ 00404ce1 f i libvcruntime:undname.obj
 0001:00003cec       ?doNoIdentCharCheck@UnDecorator@@SAHXZ 00404cec f i libvcruntime:undname.obj
 0001:00003cf7       ?doPchar@DName@@AAEXD@Z    00404cf7 f   libvcruntime:undname.obj
 0001:00003d2f       ?doPtr64@UnDecorator@@SAHXZ 00404d2f f i libvcruntime:undname.obj
 0001:00003d3d       ?doRestrictionSpec@UnDecorator@@SAHXZ 00404d3d f i libvcruntime:undname.obj
 0001:00003d4b       ?doThisTypes@UnDecorator@@SAHXZ 00404d4b f i libvcruntime:undname.obj
 0001:00003d5d       ?doThrowTypes@UnDecorator@@SAHXZ 00404d5d f i libvcruntime:undname.obj
 0001:00003d6b       ?doTypeOnly@UnDecorator@@SAHXZ 00404d6b f i libvcruntime:undname.obj
 0001:00003d76       ?doUnderScore@UnDecorator@@SAHXZ 00404d76 f i libvcruntime:undname.obj
 0001:00003d81       ?getAddressOf@UnDecorator@@CA?AVDName@@XZ 00404d81 f   libvcruntime:undname.obj
 0001:00003df4       ?getArgumentList@UnDecorator@@CA?AVDName@@XZ 00404df4 f   libvcruntime:undname.obj
 0001:00003f03       ?getArgumentTypes@UnDecorator@@CA?AVDName@@XZ 00404f03 f   libvcruntime:undname.obj
 0001:0000401c       ?getArrayAccess@UnDecorator@@CA?AVDName@@XZ 0040501c f   libvcruntime:undname.obj
 0001:0000409b       ?getArrayObject@UnDecorator@@CA?AVDName@@XZ 0040509b f   libvcruntime:undname.obj
 0001:0000413d       ?getArrayType@UnDecorator@@CA?AVDName@@ABV2@@Z 0040513d f i libvcruntime:undname.obj
 0001:000042da       ?getBasedType@UnDecorator@@CA?AVDName@@XZ 004052da f   libvcruntime:undname.obj
 0001:00004395       ?getBasicDataType@UnDecorator@@CA?AVDName@@ABV2@@Z 00405395 f   libvcruntime:undname.obj
 0001:000048c9       ?getCHPEName@UnDecorator@@QAEPADPADH@Z 004058c9 f i libvcruntime:undname.obj
 0001:000049a6       ?getCallIndex@UnDecorator@@CA?AVDName@@XZ 004059a6 f i libvcruntime:undname.obj
 0001:000049ba       ?getCallingConvention@UnDecorator@@CA?AVDName@@XZ 004059ba f   libvcruntime:undname.obj
 0001:00004a97       ?getDataIndirectType@UnDecorator@@CA?AVDName@@ABV2@W4IndirectionKind@@0H@Z 00405a97 f   libvcruntime:undname.obj
 0001:0000512d       ?getDataIndirectType@UnDecorator@@CA?AVDName@@XZ 0040612d f i libvcruntime:undname.obj
 0001:0000515b       ?getDataType@UnDecorator@@CA?AVDName@@PAV2@@Z 0040615b f   libvcruntime:undname.obj
 0001:00005232       ?getDecoratedName@UnDecorator@@CA?AVDName@@XZ 00406232 f   libvcruntime:undname.obj
 0001:0000549c       ?getDimension@UnDecorator@@CA?AVDName@@_N@Z 0040649c f   libvcruntime:undname.obj
 0001:000055b3       ?getDispatchTarget@UnDecorator@@CA?AVDName@@XZ 004065b3 f   libvcruntime:undname.obj
 0001:00005607       ?getDisplacement@UnDecorator@@CA?AVDName@@XZ 00406607 f i libvcruntime:undname.obj
 0001:0000561b       ?getECSUDataType@UnDecorator@@CA?AVDName@@XZ 0040661b f   libvcruntime:undname.obj
 0001:000057ab       ?getECSUName@UnDecorator@@CA?AVDName@@XZ 004067ab f i libvcruntime:undname.obj
 0001:000057bc       ?getEnumType@UnDecorator@@CA?AVDName@@XZ 004067bc f i libvcruntime:undname.obj
 0001:000058dc       ?getExtendedDataIndirectType@UnDecorator@@CA?AVDName@@AAW4IndirectionKind@@AA_NH@Z 004068dc f   libvcruntime:undname.obj
 0001:00005a8f       ?getExternalDataType@UnDecorator@@CA?AVDName@@ABV2@@Z 00406a8f f i libvcruntime:undname.obj
 0001:00005af4       ?getFloatingPoint@UnDecorator@@CA?AVDName@@H@Z 00406af4 f   libvcruntime:undname.obj
 0001:00005be8       ?getFunctionIndirectType@UnDecorator@@CA?AVDName@@ABV2@@Z 00406be8 f   libvcruntime:undname.obj
 0001:00005fa1       ?getGuardNumber@UnDecorator@@CA?AVDName@@XZ 00406fa1 f i libvcruntime:undname.obj
 0001:00005fb5       ?getLastChar@DName@@QBEDXZ 00406fb5 f i libvcruntime:undname.obj
 0001:00005fd5       ?getLastChar@DNameStatusNode@@UBEDXZ 00406fd5 f i libvcruntime:undname.obj
 0001:00005fe1       ?getLastChar@charNode@@UBEDXZ 00406fe1 f i libvcruntime:undname.obj
 0001:00005fe5       ?getLastChar@pDNameNode@@UBEDXZ 00406fe5 f i libvcruntime:undname.obj
 0001:00005ff3       ?getLastChar@pairNode@@UBEDXZ 00406ff3 f i libvcruntime:undname.obj
 0001:00006028       ?getLastChar@pcharNode@@UBEDXZ 00407028 f i libvcruntime:undname.obj
 0001:0000603a       ?getLexicalFrame@UnDecorator@@CA?AVDName@@XZ 0040703a f i libvcruntime:undname.obj
 0001:0000606b       ?getMemberAccess@UnDecorator@@CA?AVDName@@XZ 0040706b f   libvcruntime:undname.obj
 0001:000060e6       ?getMemoryWithBuffer@_HeapManager@@QAEPAXI@Z 004070e6 f   libvcruntime:undname.obj
 0001:00006150       ?getMemoryWithoutBuffer@_HeapManager@@QAEPAXI@Z 00407150 f   libvcruntime:undname.obj
 0001:00006170       ?getNoexcept@UnDecorator@@CA?AVDName@@XZ 00407170 f   libvcruntime:undname.obj
 0001:000061c4       ?getNumberOfDimensions@UnDecorator@@CAHXZ 004071c4 f   libvcruntime:undname.obj
 0001:00006225       ?getOperatorName@UnDecorator@@CA?AVDName@@_NPA_N@Z 00407225 f i libvcruntime:undname.obj
 0001:0000698b       ?getPointerToMember@UnDecorator@@CA?AVDName@@XZ 0040798b f   libvcruntime:undname.obj
 0001:00006a46       ?getPointerType@UnDecorator@@CA?AVDName@@ABV2@0@Z 00407a46 f i libvcruntime:undname.obj
 0001:00006a61       ?getPointerTypeArray@UnDecorator@@CA?AVDName@@ABV2@0@Z 00407a61 f i libvcruntime:undname.obj
 0001:00006a7c       ?getPrimaryDataType@UnDecorator@@CA?AVDName@@ABV2@@Z 00407a7c f   libvcruntime:undname.obj
 0001:00006ccb       ?getPtrRefDataType@UnDecorator@@CA?AVDName@@ABV2@H@Z 00407ccb f   libvcruntime:undname.obj
 0001:00006e38       ?getPtrRefType@UnDecorator@@CA?AVDName@@ABV2@0W4IndirectionKind@@@Z 00407e38 f   libvcruntime:undname.obj
 0001:00006f49       ?getReferenceType@UnDecorator@@CA?AVDName@@ABV2@0W4IndirectionKind@@@Z 00407f49 f i libvcruntime:undname.obj
 0001:00006f65       ?getRestrictionSpec@UnDecorator@@CA?AVDName@@XZ 00407f65 f   libvcruntime:undname.obj
 0001:0000708d       ?getReturnType@UnDecorator@@CA?AVDName@@PAV2@@Z 0040808d f   libvcruntime:undname.obj
 0001:000070bc       ?getScope@UnDecorator@@CA?AVDName@@XZ 004080bc f   libvcruntime:undname.obj
 0001:0000746e       ?getScopedName@UnDecorator@@CA?AVDName@@XZ 0040846e f   libvcruntime:undname.obj
 0001:00007559       ?getSignedDimension@UnDecorator@@CA?AVDName@@XZ 00408559 f   libvcruntime:undname.obj
 0001:000075aa       ?getStorageConvention@UnDecorator@@CA?AVDName@@XZ 004085aa f i libvcruntime:undname.obj
 0001:000075bb       ?getString@DName@@QBEPADPAD0@Z 004085bb f i libvcruntime:undname.obj
 0001:000075e8       ?getString@DName@@QBEPADPADH@Z 004085e8 f i libvcruntime:undname.obj
 0001:0000763d       ?getString@DNameStatusNode@@UBEPADPAD0@Z 0040863d f i libvcruntime:undname.obj
 0001:00007683       ?getString@charNode@@UBEPADPAD0@Z 00408683 f i libvcruntime:undname.obj
 0001:00007698       ?getString@pDNameNode@@UBEPADPAD0@Z 00408698 f i libvcruntime:undname.obj
 0001:000076af       ?getString@pairNode@@UBEPADPAD0@Z 004086af f i libvcruntime:undname.obj
 0001:000076f5       ?getString@pcharNode@@UBEPADPAD0@Z 004086f5 f i libvcruntime:undname.obj
 0001:00007710       ?getStringEncoding@UnDecorator@@CA?AVDName@@W4PrefixKind@@H@Z 00408710 f   libvcruntime:undname.obj
 0001:000077c8       ?getStringHelper@@YAPADPADPBD1H@Z 004087c8 f i libvcruntime:undname.obj
 0001:000077f2       ?getStringObject@UnDecorator@@CA?AVDName@@XZ 004087f2 f   libvcruntime:undname.obj
 0001:00007849       ?getSymbolName@UnDecorator@@CA?AVDName@@XZ 00408849 f i libvcruntime:undname.obj
 0001:00007891       ?getTemplateArgumentList@UnDecorator@@CA?AVDName@@XZ 00408891 f   libvcruntime:undname.obj
 0001:00007a4d       ?getTemplateName@UnDecorator@@CA?AVDName@@_N@Z 00408a4d f   libvcruntime:undname.obj
 0001:00007bae       ?getTemplateNonTypeArgument@UnDecorator@@CA?AVDName@@XZ 00408bae f   libvcruntime:undname.obj
 0001:00007f62       ?getTemplateTypeArgument@UnDecorator@@CA?AVDName@@XZ 00408f62 f   libvcruntime:undname.obj
 0001:00008068       ?getThisType@UnDecorator@@CA?AVDName@@XZ 00409068 f i libvcruntime:undname.obj
 0001:00008097       ?getThrowTypes@UnDecorator@@CA?AVDName@@XZ 00409097 f   libvcruntime:undname.obj
 0001:000080ba       ?getTypeEncoding@UnDecorator@@CAHXZ 004090ba f i libvcruntime:undname.obj
 0001:0000841a       ?getUndecoratedName@UnDecorator@@QAEPADPADH@Z 0040941a f i libvcruntime:undname.obj
 0001:00008539       ?getUnionObject@UnDecorator@@CA?AVDName@@XZ 00409539 f   libvcruntime:undname.obj
 0001:000085e8       ?getVCallThunkType@UnDecorator@@CA?AVDName@@XZ 004095e8 f i libvcruntime:undname.obj
 0001:0000863e       ?getValue@UnDecorator@@CA?AV?$optional@_K@std@@XZ 0040963e f   libvcruntime:undname.obj
 0001:000086ac       ?getValueObject@UnDecorator@@CA?AVDName@@XZ 004096ac f   libvcruntime:undname.obj
 0001:000087c4       ?getVbTableType@UnDecorator@@CA?AVDName@@ABV2@@Z 004097c4 f i libvcruntime:undname.obj
 0001:000087d9       ?getVdispMapType@UnDecorator@@CA?AVDName@@ABV2@@Z 004097d9 f i libvcruntime:undname.obj
 0001:0000883a       ?getVfTableType@UnDecorator@@CA?AVDName@@ABV2@@Z 0040983a f i libvcruntime:undname.obj
 0001:00008990       ?getZName@UnDecorator@@CA?AVDName@@_N0@Z 00409990 f   libvcruntime:undname.obj
 0001:00008ba5       ?haveTemplateParameters@UnDecorator@@SAHXZ 00409ba5 f i libvcruntime:undname.obj
 0001:00008bb0       ?isArray@DName@@QBEHXZ     00409bb0 f i libvcruntime:undname.obj
 0001:00008bba       ?isComArray@DName@@QBEHXZ  00409bba f i libvcruntime:undname.obj
 0001:00008bc4       ?isEmpty@DName@@QBEHXZ     00409bc4 f i libvcruntime:undname.obj
 0001:00008bcc       ?isFull@Replicator@@QBEHXZ 00409bcc f i libvcruntime:undname.obj
 0001:00008bd5       ?isNoTE@DName@@QBEHXZ      00409bd5 f i libvcruntime:undname.obj
 0001:00008bdf       ?isPinPtr@DName@@QBEHXZ    00409bdf f i libvcruntime:undname.obj
 0001:00008be9       ?isPtrRef@DName@@QBEHXZ    00409be9 f i libvcruntime:undname.obj
 0001:00008bf3       ?isUDC@DName@@QBEHXZ       00409bf3 f i libvcruntime:undname.obj
 0001:00008c04       ?isUDTThunk@DName@@QBEHXZ  00409c04 f i libvcruntime:undname.obj
 0001:00008c15       ?isVCallThunk@DName@@QBEHXZ 00409c15 f i libvcruntime:undname.obj
 0001:00008c1f       ?isValid@DName@@QBEHXZ     00409c1f f i libvcruntime:undname.obj
 0001:00008c29       ?length@DName@@QBEHXZ      00409c29 f i libvcruntime:undname.obj
 0001:00008c48       ?length@DNameStatusNode@@UBEHXZ 00409c48 f i libvcruntime:undname.obj
 0001:00008c4c       ?length@charNode@@UBEHXZ   00409c4c f i libvcruntime:undname.obj
 0001:00008c50       ?length@pDNameNode@@UBEHXZ 00409c50 f i libvcruntime:undname.obj
 0001:00008c5e       ?length@pairNode@@UBEHXZ   00409c5e f i libvcruntime:undname.obj
 0001:00008ca7       ?length@pcharNode@@UBEHXZ  00409ca7 f i libvcruntime:undname.obj
 0001:00008cab       ?make@DNameStatusNode@@SAPBV1@W4DNameStatus@@@Z 00409cab f i libvcruntime:undname.obj
 0001:00008cc7       ?parseDecoratedName@UnDecorator@@CA?AVDName@@XZ 00409cc7 f   libvcruntime:undname.obj
 0001:00008dc1       ?raw_length@DNameStatusNode@@UBEHXZ 00409dc1 f i libvcruntime:undname.obj
 0001:00008dc5       ?raw_length@charNode@@UBEHXZ 00409dc5 f i libvcruntime:undname.obj
 0001:00008dc9       ?raw_length@pDNameNode@@UBEHXZ 00409dc9 f i libvcruntime:undname.obj
 0001:00008dcd       ?raw_length@pairNode@@UBEHXZ 00409dcd f i libvcruntime:undname.obj
 0001:00008dd1       ?raw_length@pcharNode@@UBEHXZ 00409dd1 f i libvcruntime:undname.obj
 0001:00008dd5       ?setIsArray@DName@@QAEXXZ  00409dd5 f i libvcruntime:undname.obj
 0001:00008ddd       ?setIsComArray@DName@@QAEXXZ 00409ddd f i libvcruntime:undname.obj
 0001:00008de5       ?setIsNoTE@DName@@QAEXXZ   00409de5 f i libvcruntime:undname.obj
 0001:00008ded       ?setIsPinPtr@DName@@QAEXXZ 00409ded f i libvcruntime:undname.obj
 0001:00008df5       ?setIsUDC@DName@@QAEXXZ    00409df5 f i libvcruntime:undname.obj
 0001:00008e02       ?setIsVCallThunk@DName@@QAEXXZ 00409e02 f i libvcruntime:undname.obj
 0001:00008e0a       ?setPtrRef@DName@@QAEAAV1@XZ 00409e0a f i libvcruntime:undname.obj
 0001:00008e14       ?status@DName@@QBE?AW4DNameStatus@@XZ 00409e14 f i libvcruntime:undname.obj
 0001:00008e80       ___unDName                 00409e80 f   libvcruntime:undname.obj
 0001:00008ea3       ___unDNameEx               00409ea3 f   libvcruntime:undname.obj
 0001:00008f42       __vsprintf_s_l             00409f42 f i libvcruntime:undname.obj
 0001:00008f6f       _sprintf_s                 00409f6f f i libvcruntime:undname.obj
 0001:00008f8b       _unDNameGenerateCHPE       00409f8b f   libvcruntime:undname.obj
 0001:00009030       __global_unwind2           0040a030 f   libvcruntime:exsup.obj
 0001:000090b0       __local_unwind2            0040a0b0 f   libvcruntime:exsup.obj
 0001:00009150       __abnormal_termination     0040a150 f   libvcruntime:exsup.obj
 0001:00009180       __NLG_Notify1              0040a180 f   libvcruntime:exsup.obj
 0001:00009190       __NLG_Notify               0040a190 f   libvcruntime:exsup.obj
 0001:000091a7       __NLG_Dispatch             0040a1a7     libvcruntime:exsup.obj
 0001:000091a7       __NLG_Dispatch2            0040a1a7     libvcruntime:exsup.obj
 0001:000091b0       __NLG_Call                 0040a1b0 f   libvcruntime:exsup.obj
 0001:000091b2       __NLG_Return2              0040a1b2     libvcruntime:exsup.obj
 0001:000091b3       ??$__crt_interlocked_exchange_pointer@UHINSTANCE__@@PAU1@@@YAPAUHINSTANCE__@@PDSAU0@QAU0@@Z 0040a1b3 f i libvcruntime:winapi_downlevel.obj
 0001:000091c0       ??$__crt_interlocked_exchange_pointer@UHINSTANCE__@@PAX@@YAPAUHINSTANCE__@@PDSAU0@QAX@Z 0040a1c0 f i libvcruntime:winapi_downlevel.obj
 0001:000091cd       ??$__crt_interlocked_exchange_pointer@XPAX@@YAPAXPDSAXQAX@Z 0040a1cd f i libvcruntime:winapi_downlevel.obj
 0001:000091da       ??$__crt_interlocked_read_pointer@UHINSTANCE__@@@@YAPAUHINSTANCE__@@PDSAU0@@Z 0040a1da f i libvcruntime:winapi_downlevel.obj
 0001:000091e4       ??$__crt_interlocked_read_pointer@X@@YAPAXPDSAX@Z 0040a1e4 f i libvcruntime:winapi_downlevel.obj
 0001:00009413       ___vcrt_FlsAlloc           0040a413 f   libvcruntime:winapi_downlevel.obj
 0001:0000944e       ___vcrt_FlsFree            0040a44e f   libvcruntime:winapi_downlevel.obj
 0001:00009489       ___vcrt_FlsGetValue        0040a489 f   libvcruntime:winapi_downlevel.obj
 0001:000094c4       ___vcrt_FlsSetValue        0040a4c4 f   libvcruntime:winapi_downlevel.obj
 0001:00009502       ___vcrt_InitializeCriticalSectionEx 0040a502 f   libvcruntime:winapi_downlevel.obj
 0001:00009549       ??$__crt_interlocked_exchange_pointer@$$A6AXXZP6AXXZ@@YAP6AXXZPDS6AXXZQ6AXXZ@Z 0040a549 f i libvcruntime:purevirt.obj
 0001:00009556       ??$__crt_interlocked_read_pointer@$$A6AXXZ@@YAP6AXXZPDS6AXXZ@Z 0040a556 f i libvcruntime:purevirt.obj
 0001:00009560       __get_purecall_handler     0040a560 f   libvcruntime:purevirt.obj
 0001:00009566       __purecall                 0040a566 f   libvcruntime:purevirt.obj
 0001:00009582       __set_purecall_handler     0040a582 f   libvcruntime:purevirt.obj
 0001:00009591       ??$?0AAViterator@TryBlockMap@__FrameHandler3@@AAV012@$0A@@?$pair@Viterator@TryBlockMap@__FrameHandler3@@V123@@std@@QAE@AAViterator@TryBlockMap@__FrameHandler3@@0@Z 0040a591 f i libvcruntime:trnsctrl.obj
 0001:000095b5       ??$forward@AAViterator@TryBlockMap@__FrameHandler3@@@std@@YAAAViterator@TryBlockMap@__FrameHandler3@@AAV123@@Z 0040a5b5 f i libvcruntime:trnsctrl.obj
 0001:000095bd       ??0iterator@TryBlockMap@__FrameHandler3@@QAE@AAV12@I@Z 0040a5bd f i libvcruntime:trnsctrl.obj
 0001:000095d1       ?GetRangeOfTrysToCheck@__FrameHandler3@@SA?AU?$pair@Viterator@TryBlockMap@__FrameHandler3@@V123@@std@@AAVTryBlockMap@1@HPAXPBU_s_FuncInfo@@H@Z 0040a5d1 f   libvcruntime:trnsctrl.obj
 0001:00009641       ?_CallCatchBlock2@@YAPAXPAUEHRegistrationNode@@PBU_s_FuncInfo@@PAXHK@Z 0040a641 f   libvcruntime:trnsctrl.obj
 0001:0000969e       ?_CallSETranslator@@YAHPAUEHExceptionRecord@@PAUEHRegistrationNode@@PAX2PBU_s_FuncInfo@@H1@Z 0040a69e f   libvcruntime:trnsctrl.obj
 0001:00009794       ?_JumpToContinuation@@YGXPAXPAUEHRegistrationNode@@@Z 0040a794 f   libvcruntime:trnsctrl.obj
 0001:000097c4       ?_UnwindNestedFrames@@YGXPAUEHRegistrationNode@@PAUEHExceptionRecord@@@Z 0040a7c4 f   libvcruntime:trnsctrl.obj
 0001:00009817       __CatchGuardHandler        0040a817 f   libvcruntime:trnsctrl.obj
 0001:00009848       __CreateFrameInfo          0040a848 f   libvcruntime:trnsctrl.obj
 0001:0000986c       __FindAndUnlinkFrame       0040a86c f   libvcruntime:trnsctrl.obj
 0001:000098b4       __TranslatorGuardHandler   0040a8b4 f   libvcruntime:trnsctrl.obj
 0001:00009951       ___CxxFrameHandler         0040a951 f   libvcruntime:trnsctrl.obj
 0001:00009987       ___CxxFrameHandler2        0040a987 f   libvcruntime:trnsctrl.obj
 0001:000099bd       ___CxxFrameHandler3        0040a9bd f   libvcruntime:trnsctrl.obj
 0001:000099f3       ___CxxLongjmpUnwind@4      0040a9f3 f   libvcruntime:trnsctrl.obj
 0001:00009a20       _memcpy                    0040aa20 f   libvcruntime:memcpy.obj
 0001:0000a6cb       ??$TypeMatchHelper@V__FrameHandler3@@@@YAHPBU_s_HandlerType@@PBU_s_CatchableType@@PBU_s_ThrowInfo@@@Z 0040b6cb f i libvcruntime:frame.obj
 0001:0000a759       ??$__InternalCxxFrameHandler@V__FrameHandler3@@@@YA?AW4_EXCEPTION_DISPOSITION@@PAUEHExceptionRecord@@PAUEHRegistrationNode@@PAU_CONTEXT@@PAXPBU_s_FuncInfo@@H1E@Z 0040b759 f i libvcruntime:frame.obj
 0001:0000a85b       ??0HandlerMap@__FrameHandler3@@QAE@PBU_s_TryBlockMapEntry@@II@Z 0040b85b f i libvcruntime:frame.obj
 0001:0000a872       ??0TryBlockMap@__FrameHandler3@@QAE@PBU_s_FuncInfo@@I@Z 0040b872 f i libvcruntime:frame.obj
 0001:0000a886       ??0bad_exception@std@@QAE@ABV01@@Z 0040b886 f i libvcruntime:frame.obj
 0001:0000a8a1       ??0bad_exception@std@@QAE@XZ 0040b8a1 f i libvcruntime:frame.obj
 0001:0000a8b9       ??0exception@std@@QAE@ABV01@@Z 0040b8b9 f i libvcruntime:frame.obj
 0001:0000a8e5       ??0exception@std@@QAE@QBDH@Z 0040b8e5 f i libvcruntime:frame.obj
 0001:0000a902       ??0iterator@HandlerMap@__FrameHandler3@@QAE@AAV12@I@Z 0040b902 f i libvcruntime:frame.obj
 0001:0000a916       ??1bad_exception@std@@UAE@XZ 0040b916 f i libvcruntime:frame.obj
 0001:0000a927       ??1exception@std@@UAE@XZ   0040b927 f i libvcruntime:frame.obj
 0001:0000a938       ??8iterator@HandlerMap@__FrameHandler3@@QBE_NABV012@@Z 0040b938 f i libvcruntime:frame.obj
 0001:0000a94b       ??8type_info@@QBE_NABV0@@Z 0040b94b f i libvcruntime:frame.obj
 0001:0000a96a       ??9iterator@HandlerMap@__FrameHandler3@@QBE_NABV012@@Z 0040b96a f i libvcruntime:frame.obj
 0001:0000a97d       ??Diterator@HandlerMap@__FrameHandler3@@QAE?BU_s_HandlerType@@XZ 0040b97d f i libvcruntime:frame.obj
 0001:0000a99c       ??Diterator@TryBlockMap@__FrameHandler3@@QAE?BU_s_TryBlockMapEntry@@XZ 0040b99c f i libvcruntime:frame.obj
 0001:0000a9be       ??Eiterator@HandlerMap@__FrameHandler3@@QAEAAV012@XZ 0040b9be f i libvcruntime:frame.obj
 0001:0000a9c4       ??Eiterator@TryBlockMap@__FrameHandler3@@QAEAAV012@XZ 0040b9c4 f i libvcruntime:frame.obj
 0001:0000a9ca       ??Miterator@TryBlockMap@__FrameHandler3@@QBE_NABV012@@Z 0040b9ca f i libvcruntime:frame.obj
 0001:0000a9dd       ??_Ebad_exception@std@@UAEPAXI@Z 0040b9dd f i libvcruntime:frame.obj
 0001:0000a9dd       ??_Gbad_exception@std@@UAEPAXI@Z 0040b9dd f i libvcruntime:frame.obj
 0001:0000aa0a       ??_Gexception@std@@UAEPAXI@Z 0040ba0a f i libvcruntime:frame.obj
 0001:0000aa0a       ??_Eexception@std@@UAEPAXI@Z 0040ba0a f i libvcruntime:frame.obj
 0001:0000aa37       ?BuildCatchObject@__FrameHandler3@@SAXPAUEHExceptionRecord@@PAXPBU_s_HandlerType@@PBU_s_CatchableType@@@Z 0040ba37 f   libvcruntime:frame.obj
 0001:0000aa3c       ?BuildCatchObjectHelper@__FrameHandler3@@SAHPAUEHExceptionRecord@@PAXPBU_s_HandlerType@@PBU_s_CatchableType@@@Z 0040ba3c f   libvcruntime:frame.obj
 0001:0000ac92       ?FrameUnwindToEmptyState@__FrameHandler3@@SAXPAUEHRegistrationNode@@PAXPBU_s_FuncInfo@@@Z 0040bc92 f   libvcruntime:frame.obj
 0001:0000acaa       ?FrameUnwindToState@__FrameHandler3@@SAXPAUEHRegistrationNode@@PAXPBU_s_FuncInfo@@H@Z 0040bcaa f   libvcruntime:frame.obj
 0001:0000ad92       ?GetMaxState@__FrameHandler3@@SAHPAXPBU_s_FuncInfo@@@Z 0040bd92 f i libvcruntime:frame.obj
 0001:0000ae70       ?TypeMatch@__FrameHandler3@@SAHPBU_s_HandlerType@@PBU_s_CatchableType@@PBU_s_ThrowInfo@@@Z 0040be70 f   libvcruntime:frame.obj
 0001:0000ae79       ?_CallMemberFunction1@@YGXQAX00@Z 0040be79 f i libvcruntime:frame.obj
 0001:0000ae89       ?_CallMemberFunction2@@YGXQAX00H@Z 0040be89 f i libvcruntime:frame.obj
 0001:0000ae9c       ?begin@HandlerMap@__FrameHandler3@@QAE?AViterator@12@XZ 0040be9c f i libvcruntime:frame.obj
 0001:0000aeac       ?end@HandlerMap@__FrameHandler3@@QAE?AViterator@12@XZ 0040beac f i libvcruntime:frame.obj
 0001:0000aebd       ?getESTypes@__FrameHandler3@@SAPBU_s_ESTypeList@@PBU_s_FuncInfo@@@Z 0040bebd f i libvcruntime:frame.obj
 0001:0000aec8       ?getLastEntry@HandlerMap@__FrameHandler3@@QAEPBU_s_HandlerType@@XZ 0040bec8 f i libvcruntime:frame.obj
 0001:0000aed6       ?getMagicNum@__FrameHandler3@@SAIPBU_s_FuncInfo@@@Z 0040bed6 f i libvcruntime:frame.obj
 0001:0000aee5       ?getNumTryBlocks@TryBlockMap@__FrameHandler3@@QAEIXZ 0040bee5 f i libvcruntime:frame.obj
 0001:0000aeeb       ?isEHs@__FrameHandler3@@SA_NPBU_s_FuncInfo@@@Z 0040beeb f i libvcruntime:frame.obj
 0001:0000aef8       ?isNoExcept@__FrameHandler3@@SA_NPBU_s_FuncInfo@@@Z 0040bef8 f i libvcruntime:frame.obj
 0001:0000af08       ?what@exception@std@@UBEPBDXZ 0040bf08 f i libvcruntime:frame.obj
 0001:0000af15       ___BuildCatchObject        0040bf15 f   libvcruntime:frame.obj
 0001:0000af1a       ___BuildCatchObjectHelper  0040bf1a f   libvcruntime:frame.obj
 0001:0000af23       ___TypeMatch               0040bf23 f   libvcruntime:frame.obj
 0001:0000af2c       ___vcrt_EncodePointer      0040bf2c f i libvcruntime:frame.obj
 0001:0000af40       __CallSettingFrame@12      0040bf40 f   libvcruntime:lowhelpr.obj
 0001:0000af67       __NLG_Return               0040bf67     libvcruntime:lowhelpr.obj
 0001:0000afa0       __get_unexpected           0040bfa0 f   libvcruntime:unexpected.obj
 0001:0000afb2       _set_unexpected            0040bfb2 f   libvcruntime:unexpected.obj
 0001:0000afd0       _unexpected                0040bfd0 f   libvcruntime:unexpected.obj
 0001:0000afed       ?GetCurrentState@__FrameHandler3@@SAHPAUEHRegistrationNode@@PAXPBU_s_FuncInfo@@@Z 0040bfed f   libvcruntime:ehstate.obj
 0001:0000b00a       ?SetState@__FrameHandler3@@SAXPAUEHRegistrationNode@@PBU_s_FuncInfo@@H@Z 0040c00a f   libvcruntime:ehstate.obj
 0001:0000b018       ??$?RD@__crt_public_free_policy@@QBEXQBD@Z 0040c018 f i libvcruntime:std_exception.obj
 0001:0000b028       ??0?$__crt_unique_heap_ptr@DU__crt_public_free_policy@@@@QAE@QAD@Z 0040c028 f i libvcruntime:std_exception.obj
 0001:0000b036       ??1?$__crt_unique_heap_ptr@DU__crt_public_free_policy@@@@QAE@XZ 0040c036 f i libvcruntime:std_exception.obj
 0001:0000b046       ??B?$__crt_unique_heap_ptr@DU__crt_public_free_policy@@@@QBE_NXZ 0040c046 f i libvcruntime:std_exception.obj
 0001:0000b04d       ?detach@?$__crt_unique_heap_ptr@DU__crt_public_free_policy@@@@QAEPADXZ 0040c04d f i libvcruntime:std_exception.obj
 0001:0000b053       ?get@?$__crt_unique_heap_ptr@DU__crt_public_free_policy@@@@QBEPADXZ 0040c053 f i libvcruntime:std_exception.obj
 0001:0000b056       ?is_valid@?$__crt_unique_heap_ptr@DU__crt_public_free_policy@@@@QBE_NXZ 0040c056 f i libvcruntime:std_exception.obj
 0001:0000b05d       ?release@?$__crt_unique_heap_ptr@DU__crt_public_free_policy@@@@QAEXXZ 0040c05d f i libvcruntime:std_exception.obj
 0001:0000b06d       ___std_exception_copy      0040c06d f   libvcruntime:std_exception.obj
 0001:0000b0d0       ___std_exception_destroy   0040c0d0 f   libvcruntime:std_exception.obj
 0001:0000b0ef       __CxxThrowException@8      0040c0ef f   libvcruntime:throw.obj
 0001:0000b160       _memmove                   0040c160 f   libvcruntime:memmove.obj
 0001:0000b6d4       ??$?B$$A6GXPAXK0@Z@__crt_fast_encoded_nullptr_t@@QBEP6GXPAXK0@ZXZ 0040c6d4 f i libucrt:exit.obj
 0001:0000b74d       ??$__crt_fast_decode_pointer@P6GXPAXK0@Z@@YAP6GXPAXK0@ZQ6GX0K0@Z@Z 0040c74d f i libucrt:exit.obj
 0001:0000b763       ??$__crt_fast_encode_pointer@P6GXPAXK0@Z@@YAP6GXPAXK0@ZQ6GX0K0@Z@Z 0040c763 f i libucrt:exit.obj
 0001:0000b782       ??$__crt_get_proc_address@P6GXI@Z@@YAP6GXI@ZQAUHINSTANCE__@@QBD@Z 0040c782 f i libucrt:exit.obj
 0001:0000b795       ??$__crt_interlocked_read@J@@YAJPDJ@Z 0040c795 f i libucrt:exit.obj
 0001:0000b7e2       ??0?$__crt_unique_handle_t@U__crt_hmodule_traits@@@@QAE@QAUHINSTANCE__@@@Z 0040c7e2 f i libucrt:exit.obj
 0001:0000b7f2       ??1?$__crt_unique_handle_t@U__crt_hmodule_traits@@@@QAE@XZ 0040c7f2 f i libucrt:exit.obj
 0001:0000b8f5       ?__acrt_select_exit_lock@@YA?AW4__acrt_lock_id@@XZ 0040c8f5 f i libucrt:exit.obj
 0001:0000b8f9       ?__crt_fast_encode_pointer@@YA?AU__crt_fast_encoded_nullptr_t@@$$T@Z 0040c8f9 f i libucrt:exit.obj
 0001:0000b904       ?__crt_rotate_pointer_value@@YAIIH@Z 0040c904 f i libucrt:exit.obj
 0001:0000b926       ?close@?$__crt_unique_handle_t@U__crt_hmodule_traits@@@@QAEXXZ 0040c926 f i libucrt:exit.obj
 0001:0000b93d       ?close@__crt_hmodule_traits@@SA_NPAUHINSTANCE__@@@Z 0040c93d f i libucrt:exit.obj
 0001:0000b9f8       ?get@?$__crt_unique_handle_t@U__crt_hmodule_traits@@@@QBEPAUHINSTANCE__@@XZ 0040c9f8 f i libucrt:exit.obj
 0001:0000b9fb       ?get_address_of@?$__crt_unique_handle_t@U__crt_hmodule_traits@@@@QAEPAPAUHINSTANCE__@@XZ 0040c9fb f i libucrt:exit.obj
 0001:0000b9fe       ?get_invalid_value@__crt_hmodule_traits@@SAPAUHINSTANCE__@@XZ 0040c9fe f i libucrt:exit.obj
 0001:0000bab9       __Exit                     0040cab9 f   libucrt:exit.obj
 0001:0000bacf       ___acrt_initialize_thread_local_exit_callback 0040cacf f   libucrt:exit.obj
 0001:0000bade       __c_exit                   0040cade f   libucrt:exit.obj
 0001:0000baed       __cexit                    0040caed f   libucrt:exit.obj
 0001:0000bafc       __exit                     0040cafc f   libucrt:exit.obj
 0001:0000bb12       __is_c_termination_complete 0040cb12 f   libucrt:exit.obj
 0001:0000bb19       __register_thread_local_exe_atexit_callback 0040cb19 f   libucrt:exit.obj
 0001:0000bb3f       _exit                      0040cb3f f   libucrt:exit.obj
 0001:0000bb55       _quick_exit                0040cb55 f   libucrt:exit.obj
 0001:0000bb6b       __beep                     0040cb6b f   libucrt:slbeep.obj
 0001:0000bb7e       __sleep                    0040cb7e f   libucrt:slbeep.obj
 0001:0000bb94       ??$?RPAU__crt_stdio_stream_data@@@__crt_internal_free_policy@@QBEXQBQAU__crt_stdio_stream_data@@@Z 0040cb94 f i libucrt:_file.obj
 0001:0000bba6       ??0?$__crt_unique_heap_ptr@PAU__crt_stdio_stream_data@@U__crt_internal_free_policy@@@@QAE@QAPAU__crt_stdio_stream_data@@@Z 0040cba6 f i libucrt:_file.obj
 0001:0000bbb6       ??0__crt_stdio_stream@@QAE@QAU_iobuf@@@Z 0040cbb6 f i libucrt:_file.obj
 0001:0000bbc6       ??1?$__crt_unique_heap_ptr@PAU__crt_stdio_stream_data@@U__crt_internal_free_policy@@@@QAE@XZ 0040cbc6 f i libucrt:_file.obj
 0001:0000bbd8       ??C__crt_stdio_stream@@QBEPAU__crt_stdio_stream_data@@XZ 0040cbd8 f i libucrt:_file.obj
 0001:0000bbdb       ?detach@?$__crt_unique_heap_ptr@PAU__crt_stdio_stream_data@@U__crt_internal_free_policy@@@@QAEPAPAU__crt_stdio_stream_data@@XZ 0040cbdb f i libucrt:_file.obj
 0001:0000bbe1       ?release@?$__crt_unique_heap_ptr@PAU__crt_stdio_stream_data@@U__crt_internal_free_policy@@@@QAEXXZ 0040cbe1 f i libucrt:_file.obj
 0001:0000bbf3       ___acrt_initialize_stdio   0040cbf3 f   libucrt:_file.obj
 0001:0000bcbb       ___acrt_iob_func           0040ccbb f   libucrt:_file.obj
 0001:0000bccb       ___acrt_uninitialize_stdio 0040cccb f   libucrt:_file.obj
 0001:0000bd17       __get_stream_buffer_pointers 0040cd17 f   libucrt:_file.obj
 0001:0000bd5d       __lock_file                0040cd5d f   libucrt:_file.obj
 0001:0000bd71       __unlock_file              0040cd71 f   libucrt:_file.obj
 0001:0000c049       ??0__crt_stdio_stream@@QAE@QAU__crt_stdio_stream_data@@@Z 0040d049 f i libucrt:fflush.obj
 0001:0000c16d       ?__acrt_stdio_reset_buffer@@YAXV__crt_stdio_stream@@@Z 0040d16d f i libucrt:fflush.obj
 0001:0000c203       ?get_flags@__crt_stdio_stream@@QBEJXZ 0040d203 f i libucrt:fflush.obj
 0001:0000c20a       ?has_all_of@__crt_stdio_stream@@QBE_NJ@Z 0040d20a f i libucrt:fflush.obj
 0001:0000c272       ?public_stream@__crt_stdio_stream@@QBEPAU_iobuf@@XZ 0040d272 f i libucrt:fflush.obj
 0001:0000c275       ?set_flags@__crt_stdio_stream@@QBE_NJ@Z 0040d275 f i libucrt:fflush.obj
 0001:0000c299       ?unset_flags@__crt_stdio_stream@@QBE_NJ@Z 0040d299 f i libucrt:fflush.obj
 0001:0000c2c2       ?valid@__crt_stdio_stream@@QBE_NXZ 0040d2c2 f i libucrt:fflush.obj
 0001:0000c2c9       ___acrt_stdio_flush_nolock 0040d2c9 f   libucrt:fflush.obj
 0001:0000c32e       __fflush_nolock            0040d32e f   libucrt:fflush.obj
 0001:0000c376       __flushall                 0040d376 f   libucrt:fflush.obj
 0001:0000c37f       _fflush                    0040d37f f   libucrt:fflush.obj
 0001:0000c3d4       ?is_string_backed@__crt_stdio_stream@@QBE_NXZ 0040d3d4 f i libucrt:fgetc.obj
 0001:0000c3e0       __fgetc_nolock             0040d3e0 f   libucrt:fgetc.obj
 0001:0000c41c       __fgetchar                 0040d41c f   libucrt:fgetc.obj
 0001:0000c42c       __getc_nolock              0040d42c f   libucrt:fgetc.obj
 0001:0000c437       _fgetc                     0040d437 f   libucrt:fgetc.obj
 0001:0000c53f       _getc                      0040d53f f   libucrt:fgetc.obj
 0001:0000c54a       _getchar                   0040d54a f   libucrt:fgetc.obj
 0001:0000c54f       ??$?0ABV?$stream_output_adapter@D@__crt_stdio_output@@AB_KABQBDABQAU__crt_locale_pointers@@ABQAD@?$format_validation_base@DV?$stream_output_adapter@D@__crt_stdio_output@@@__crt_stdio_output@@IAE@ABV?$stream_output_adapter@D@1@AB_KABQBDABQAU__crt_locale_pointers@@ABQAD@Z 0040d54f f i libucrt:output.obj
 0001:0000c572       ??$?0ABV?$stream_output_adapter@D@__crt_stdio_output@@AB_KABQBDABQAU__crt_locale_pointers@@ABQAD@?$positional_parameter_base@DV?$stream_output_adapter@D@__crt_stdio_output@@@__crt_stdio_output@@IAE@ABV?$stream_output_adapter@D@1@AB_KABQBDABQAU__crt_locale_pointers@@ABQAD@Z 0040d572 f i libucrt:output.obj
 0001:0000c5ba       ??$?0ABV?$stream_output_adapter@D@__crt_stdio_output@@AB_KABQBDABQAU__crt_locale_pointers@@ABQAD@?$standard_base@DV?$stream_output_adapter@D@__crt_stdio_output@@@__crt_stdio_output@@IAE@ABV?$stream_output_adapter@D@1@AB_KABQBDABQAU__crt_locale_pointers@@ABQAD@Z 0040d5ba f i libucrt:output.obj
 0001:0000c5ef       ??$?0ABV?$stream_output_adapter@_W@__crt_stdio_output@@AB_KABQB_WABQAU__crt_locale_pointers@@ABQAD@?$format_validation_base@_WV?$stream_output_adapter@_W@__crt_stdio_output@@@__crt_stdio_output@@IAE@ABV?$stream_output_adapter@_W@1@AB_KABQB_WABQAU__crt_locale_pointers@@ABQAD@Z 0040d5ef f i libucrt:output.obj
 0001:0000c612       ??$?0ABV?$stream_output_adapter@_W@__crt_stdio_output@@AB_KABQB_WABQAU__crt_locale_pointers@@ABQAD@?$positional_parameter_base@_WV?$stream_output_adapter@_W@__crt_stdio_output@@@__crt_stdio_output@@IAE@ABV?$stream_output_adapter@_W@1@AB_KABQB_WABQAU__crt_locale_pointers@@ABQAD@Z 0040d612 f i libucrt:output.obj
 0001:0000c65a       ??$?0ABV?$stream_output_adapter@_W@__crt_stdio_output@@AB_KABQB_WABQAU__crt_locale_pointers@@ABQAD@?$standard_base@_WV?$stream_output_adapter@_W@__crt_stdio_output@@@__crt_stdio_output@@IAE@ABV?$stream_output_adapter@_W@1@AB_KABQB_WABQAU__crt_locale_pointers@@ABQAD@Z 0040d65a f i libucrt:output.obj
 0001:0000c68f       ??$?0ABV?$string_output_adapter@D@__crt_stdio_output@@AB_KABQBDABQAU__crt_locale_pointers@@ABQAD@?$format_validation_base@DV?$string_output_adapter@D@__crt_stdio_output@@@__crt_stdio_output@@IAE@ABV?$string_output_adapter@D@1@AB_KABQBDABQAU__crt_locale_pointers@@ABQAD@Z 0040d68f f i libucrt:output.obj
 0001:0000c6b2       ??$?0ABV?$string_output_adapter@D@__crt_stdio_output@@AB_KABQBDABQAU__crt_locale_pointers@@ABQAD@?$positional_parameter_base@DV?$string_output_adapter@D@__crt_stdio_output@@@__crt_stdio_output@@IAE@ABV?$string_output_adapter@D@1@AB_KABQBDABQAU__crt_locale_pointers@@ABQAD@Z 0040d6b2 f i libucrt:output.obj
 0001:0000c6fa       ??$?0ABV?$string_output_adapter@D@__crt_stdio_output@@AB_KABQBDABQAU__crt_locale_pointers@@ABQAD@?$standard_base@DV?$string_output_adapter@D@__crt_stdio_output@@@__crt_stdio_output@@IAE@ABV?$string_output_adapter@D@1@AB_KABQBDABQAU__crt_locale_pointers@@ABQAD@Z 0040d6fa f i libucrt:output.obj
 0001:0000c72f       ??$?0ABV?$string_output_adapter@_W@__crt_stdio_output@@AB_KABQB_WABQAU__crt_locale_pointers@@ABQAD@?$format_validation_base@_WV?$string_output_adapter@_W@__crt_stdio_output@@@__crt_stdio_output@@IAE@ABV?$string_output_adapter@_W@1@AB_KABQB_WABQAU__crt_locale_pointers@@ABQAD@Z 0040d72f f i libucrt:output.obj
 0001:0000c752       ??$?0ABV?$string_output_adapter@_W@__crt_stdio_output@@AB_KABQB_WABQAU__crt_locale_pointers@@ABQAD@?$positional_parameter_base@_WV?$string_output_adapter@_W@__crt_stdio_output@@@__crt_stdio_output@@IAE@ABV?$string_output_adapter@_W@1@AB_KABQB_WABQAU__crt_locale_pointers@@ABQAD@Z 0040d752 f i libucrt:output.obj
 0001:0000c79a       ??$?0ABV?$string_output_adapter@_W@__crt_stdio_output@@AB_KABQB_WABQAU__crt_locale_pointers@@ABQAD@?$standard_base@_WV?$string_output_adapter@_W@__crt_stdio_output@@@__crt_stdio_output@@IAE@ABV?$string_output_adapter@_W@1@AB_KABQB_WABQAU__crt_locale_pointers@@ABQAD@Z 0040d79a f i libucrt:output.obj
 0001:0000d994       ??$count@D@formatting_buffer@__crt_stdio_output@@QBEIXZ 0040e994 f i libucrt:output.obj
 0001:0000d9ac       ??$count@_W@formatting_buffer@__crt_stdio_output@@QBEIXZ 0040e9ac f i libucrt:output.obj
 0001:0000d9c5       ??$data@D@formatting_buffer@__crt_stdio_output@@QAEPADXZ 0040e9c5 f i libucrt:output.obj
 0001:0000d9d2       ??$data@_W@formatting_buffer@__crt_stdio_output@@QAEPA_WXZ 0040e9d2 f i libucrt:output.obj
 0001:0000d9df       ??$ensure_buffer_is_big_enough@D@formatting_buffer@__crt_stdio_output@@QAE_NI@Z 0040e9df f i libucrt:output.obj
 0001:0000da5c       ??$ensure_buffer_is_big_enough@_W@formatting_buffer@__crt_stdio_output@@QAE_NI@Z 0040ea5c f i libucrt:output.obj
 0001:0000dada       ??$extract_argument_from_va_list@C_J@?$positional_parameter_base@DV?$stream_output_adapter@D@__crt_stdio_output@@@__crt_stdio_output@@IAE_NAA_J@Z 0040eada f i libucrt:output.obj
 0001:0000db53       ??$extract_argument_from_va_list@C_J@?$positional_parameter_base@DV?$string_output_adapter@D@__crt_stdio_output@@@__crt_stdio_output@@IAE_NAA_J@Z 0040eb53 f i libucrt:output.obj
 0001:0000dbcc       ??$extract_argument_from_va_list@C_J@?$positional_parameter_base@_WV?$stream_output_adapter@_W@__crt_stdio_output@@@__crt_stdio_output@@IAE_NAA_J@Z 0040ebcc f i libucrt:output.obj
 0001:0000dc45       ??$extract_argument_from_va_list@C_J@?$positional_parameter_base@_WV?$string_output_adapter@_W@__crt_stdio_output@@@__crt_stdio_output@@IAE_NAA_J@Z 0040ec45 f i libucrt:output.obj
 0001:0000dcbe       ??$extract_argument_from_va_list@C_J@?$standard_base@DV?$stream_output_adapter@D@__crt_stdio_output@@@__crt_stdio_output@@IAE_NAA_J@Z 0040ecbe f i libucrt:output.obj
 0001:0000dcdd       ??$extract_argument_from_va_list@C_J@?$standard_base@DV?$string_output_adapter@D@__crt_stdio_output@@@__crt_stdio_output@@IAE_NAA_J@Z 0040ecdd f i libucrt:output.obj
 0001:0000dcfc       ??$extract_argument_from_va_list@C_J@?$standard_base@_WV?$stream_output_adapter@_W@__crt_stdio_output@@@__crt_stdio_output@@IAE_NAA_J@Z 0040ecfc f i libucrt:output.obj
 0001:0000dd1b       ??$extract_argument_from_va_list@C_J@?$standard_base@_WV?$string_output_adapter@_W@__crt_stdio_output@@@__crt_stdio_output@@IAE_NAA_J@Z 0040ed1b f i libucrt:output.obj
 0001:0000dd3a       ??$extract_argument_from_va_list@E_J@?$positional_parameter_base@DV?$stream_output_adapter@D@__crt_stdio_output@@@__crt_stdio_output@@IAE_NAA_J@Z 0040ed3a f i libucrt:output.obj
 0001:0000ddb3       ??$extract_argument_from_va_list@E_J@?$positional_parameter_base@DV?$string_output_adapter@D@__crt_stdio_output@@@__crt_stdio_output@@IAE_NAA_J@Z 0040edb3 f i libucrt:output.obj
 0001:0000de2c       ??$extract_argument_from_va_list@E_J@?$positional_parameter_base@_WV?$stream_output_adapter@_W@__crt_stdio_output@@@__crt_stdio_output@@IAE_NAA_J@Z 0040ee2c f i libucrt:output.obj
 0001:0000dea5       ??$extract_argument_from_va_list@E_J@?$positional_parameter_base@_WV?$string_output_adapter@_W@__crt_stdio_output@@@__crt_stdio_output@@IAE_NAA_J@Z 0040eea5 f i libucrt:output.obj
 0001:0000df1e       ??$extract_argument_from_va_list@E_J@?$standard_base@DV?$stream_output_adapter@D@__crt_stdio_output@@@__crt_stdio_output@@IAE_NAA_J@Z 0040ef1e f i libucrt:output.obj
 0001:0000df3d       ??$extract_argument_from_va_list@E_J@?$standard_base@DV?$string_output_adapter@D@__crt_stdio_output@@@__crt_stdio_output@@IAE_NAA_J@Z 0040ef3d f i libucrt:output.obj
 0001:0000df5c       ??$extract_argument_from_va_list@E_J@?$standard_base@_WV?$stream_output_adapter@_W@__crt_stdio_output@@@__crt_stdio_output@@IAE_NAA_J@Z 0040ef5c f i libucrt:output.obj
 0001:0000df7b       ??$extract_argument_from_va_list@E_J@?$standard_base@_WV?$string_output_adapter@_W@__crt_stdio_output@@@__crt_stdio_output@@IAE_NAA_J@Z 0040ef7b f i libucrt:output.obj
 0001:0000df9a       ??$extract_argument_from_va_list@F_J@?$positional_parameter_base@DV?$stream_output_adapter@D@__crt_stdio_output@@@__crt_stdio_output@@IAE_NAA_J@Z 0040ef9a f i libucrt:output.obj
 0001:0000e013       ??$extract_argument_from_va_list@F_J@?$positional_parameter_base@DV?$string_output_adapter@D@__crt_stdio_output@@@__crt_stdio_output@@IAE_NAA_J@Z 0040f013 f i libucrt:output.obj
 0001:0000e08c       ??$extract_argument_from_va_list@F_J@?$positional_parameter_base@_WV?$stream_output_adapter@_W@__crt_stdio_output@@@__crt_stdio_output@@IAE_NAA_J@Z 0040f08c f i libucrt:output.obj
 0001:0000e105       ??$extract_argument_from_va_list@F_J@?$positional_parameter_base@_WV?$string_output_adapter@_W@__crt_stdio_output@@@__crt_stdio_output@@IAE_NAA_J@Z 0040f105 f i libucrt:output.obj
 0001:0000e17e       ??$extract_argument_from_va_list@F_J@?$standard_base@DV?$stream_output_adapter@D@__crt_stdio_output@@@__crt_stdio_output@@IAE_NAA_J@Z 0040f17e f i libucrt:output.obj
 0001:0000e19d       ??$extract_argument_from_va_list@F_J@?$standard_base@DV?$string_output_adapter@D@__crt_stdio_output@@@__crt_stdio_output@@IAE_NAA_J@Z 0040f19d f i libucrt:output.obj
 0001:0000e1bc       ??$extract_argument_from_va_list@F_J@?$standard_base@_WV?$stream_output_adapter@_W@__crt_stdio_output@@@__crt_stdio_output@@IAE_NAA_J@Z 0040f1bc f i libucrt:output.obj
 0001:0000e1db       ??$extract_argument_from_va_list@F_J@?$standard_base@_WV?$string_output_adapter@_W@__crt_stdio_output@@@__crt_stdio_output@@IAE_NAA_J@Z 0040f1db f i libucrt:output.obj
 0001:0000e1fa       ??$extract_argument_from_va_list@GD@?$positional_parameter_base@DV?$stream_output_adapter@D@__crt_stdio_output@@@__crt_stdio_output@@IAE_NAAD@Z 0040f1fa f i libucrt:output.obj
 0001:0000e272       ??$extract_argument_from_va_list@GD@?$positional_parameter_base@DV?$string_output_adapter@D@__crt_stdio_output@@@__crt_stdio_output@@IAE_NAAD@Z 0040f272 f i libucrt:output.obj
 0001:0000e2ea       ??$extract_argument_from_va_list@GD@?$standard_base@DV?$stream_output_adapter@D@__crt_stdio_output@@@__crt_stdio_output@@IAE_NAAD@Z 0040f2ea f i libucrt:output.obj
 0001:0000e304       ??$extract_argument_from_va_list@GD@?$standard_base@DV?$string_output_adapter@D@__crt_stdio_output@@@__crt_stdio_output@@IAE_NAAD@Z 0040f304 f i libucrt:output.obj
 0001:0000e31e       ??$extract_argument_from_va_list@G_J@?$positional_parameter_base@DV?$stream_output_adapter@D@__crt_stdio_output@@@__crt_stdio_output@@IAE_NAA_J@Z 0040f31e f i libucrt:output.obj
 0001:0000e397       ??$extract_argument_from_va_list@G_J@?$positional_parameter_base@DV?$string_output_adapter@D@__crt_stdio_output@@@__crt_stdio_output@@IAE_NAA_J@Z 0040f397 f i libucrt:output.obj
 0001:0000e410       ??$extract_argument_from_va_list@G_J@?$positional_parameter_base@_WV?$stream_output_adapter@_W@__crt_stdio_output@@@__crt_stdio_output@@IAE_NAA_J@Z 0040f410 f i libucrt:output.obj
 0001:0000e489       ??$extract_argument_from_va_list@G_J@?$positional_parameter_base@_WV?$string_output_adapter@_W@__crt_stdio_output@@@__crt_stdio_output@@IAE_NAA_J@Z 0040f489 f i libucrt:output.obj
 0001:0000e502       ??$extract_argument_from_va_list@G_J@?$standard_base@DV?$stream_output_adapter@D@__crt_stdio_output@@@__crt_stdio_output@@IAE_NAA_J@Z 0040f502 f i libucrt:output.obj
 0001:0000e521       ??$extract_argument_from_va_list@G_J@?$standard_base@DV?$string_output_adapter@D@__crt_stdio_output@@@__crt_stdio_output@@IAE_NAA_J@Z 0040f521 f i libucrt:output.obj
 0001:0000e540       ??$extract_argument_from_va_list@G_J@?$standard_base@_WV?$stream_output_adapter@_W@__crt_stdio_output@@@__crt_stdio_output@@IAE_NAA_J@Z 0040f540 f i libucrt:output.obj
 0001:0000e55f       ??$extract_argument_from_va_list@G_J@?$standard_base@_WV?$string_output_adapter@_W@__crt_stdio_output@@@__crt_stdio_output@@IAE_NAA_J@Z 0040f55f f i libucrt:output.obj
 0001:0000e57e       ??$extract_argument_from_va_list@H_J@?$positional_parameter_base@DV?$stream_output_adapter@D@__crt_stdio_output@@@__crt_stdio_output@@IAE_NAA_J@Z 0040f57e f i libucrt:output.obj
 0001:0000e5f5       ??$extract_argument_from_va_list@H_J@?$positional_parameter_base@DV?$string_output_adapter@D@__crt_stdio_output@@@__crt_stdio_output@@IAE_NAA_J@Z 0040f5f5 f i libucrt:output.obj
 0001:0000e66c       ??$extract_argument_from_va_list@H_J@?$positional_parameter_base@_WV?$stream_output_adapter@_W@__crt_stdio_output@@@__crt_stdio_output@@IAE_NAA_J@Z 0040f66c f i libucrt:output.obj
 0001:0000e6e3       ??$extract_argument_from_va_list@H_J@?$positional_parameter_base@_WV?$string_output_adapter@_W@__crt_stdio_output@@@__crt_stdio_output@@IAE_NAA_J@Z 0040f6e3 f i libucrt:output.obj
 0001:0000e75a       ??$extract_argument_from_va_list@H_J@?$standard_base@DV?$stream_output_adapter@D@__crt_stdio_output@@@__crt_stdio_output@@IAE_NAA_J@Z 0040f75a f i libucrt:output.obj
 0001:0000e778       ??$extract_argument_from_va_list@H_J@?$standard_base@DV?$string_output_adapter@D@__crt_stdio_output@@@__crt_stdio_output@@IAE_NAA_J@Z 0040f778 f i libucrt:output.obj
 0001:0000e796       ??$extract_argument_from_va_list@H_J@?$standard_base@_WV?$stream_output_adapter@_W@__crt_stdio_output@@@__crt_stdio_output@@IAE_NAA_J@Z 0040f796 f i libucrt:output.obj
 0001:0000e7b4       ??$extract_argument_from_va_list@H_J@?$standard_base@_WV?$string_output_adapter@_W@__crt_stdio_output@@@__crt_stdio_output@@IAE_NAA_J@Z 0040f7b4 f i libucrt:output.obj
 0001:0000e7d2       ??$extract_argument_from_va_list@I_J@?$positional_parameter_base@DV?$stream_output_adapter@D@__crt_stdio_output@@@__crt_stdio_output@@IAE_NAA_J@Z 0040f7d2 f i libucrt:output.obj
 0001:0000e852       ??$extract_argument_from_va_list@I_J@?$positional_parameter_base@DV?$string_output_adapter@D@__crt_stdio_output@@@__crt_stdio_output@@IAE_NAA_J@Z 0040f852 f i libucrt:output.obj
 0001:0000e8d2       ??$extract_argument_from_va_list@I_J@?$positional_parameter_base@_WV?$stream_output_adapter@_W@__crt_stdio_output@@@__crt_stdio_output@@IAE_NAA_J@Z 0040f8d2 f i libucrt:output.obj
 0001:0000e952       ??$extract_argument_from_va_list@I_J@?$positional_parameter_base@_WV?$string_output_adapter@_W@__crt_stdio_output@@@__crt_stdio_output@@IAE_NAA_J@Z 0040f952 f i libucrt:output.obj
 0001:0000e9d2       ??$extract_argument_from_va_list@I_J@?$standard_base@DV?$stream_output_adapter@D@__crt_stdio_output@@@__crt_stdio_output@@IAE_NAA_J@Z 0040f9d2 f i libucrt:output.obj
 0001:0000e9f0       ??$extract_argument_from_va_list@I_J@?$standard_base@DV?$string_output_adapter@D@__crt_stdio_output@@@__crt_stdio_output@@IAE_NAA_J@Z 0040f9f0 f i libucrt:output.obj
 0001:0000ea0e       ??$extract_argument_from_va_list@I_J@?$standard_base@_WV?$stream_output_adapter@_W@__crt_stdio_output@@@__crt_stdio_output@@IAE_NAA_J@Z 0040fa0e f i libucrt:output.obj
 0001:0000ea2c       ??$extract_argument_from_va_list@I_J@?$standard_base@_WV?$string_output_adapter@_W@__crt_stdio_output@@@__crt_stdio_output@@IAE_NAA_J@Z 0040fa2c f i libucrt:output.obj
 0001:0000ea4a       ??$extract_argument_from_va_list@PADPAD@?$positional_parameter_base@DV?$stream_output_adapter@D@__crt_stdio_output@@@__crt_stdio_output@@IAE_NAAPAD@Z 0040fa4a f i libucrt:output.obj
 0001:0000eac2       ??$extract_argument_from_va_list@PADPAD@?$positional_parameter_base@DV?$string_output_adapter@D@__crt_stdio_output@@@__crt_stdio_output@@IAE_NAAPAD@Z 0040fac2 f i libucrt:output.obj
 0001:0000eb3a       ??$extract_argument_from_va_list@PADPAD@?$positional_parameter_base@_WV?$stream_output_adapter@_W@__crt_stdio_output@@@__crt_stdio_output@@IAE_NAAPAD@Z 0040fb3a f i libucrt:output.obj
 0001:0000ebb2       ??$extract_argument_from_va_list@PADPAD@?$positional_parameter_base@_WV?$string_output_adapter@_W@__crt_stdio_output@@@__crt_stdio_output@@IAE_NAAPAD@Z 0040fbb2 f i libucrt:output.obj
 0001:0000ec2a       ??$extract_argument_from_va_list@PADPAD@?$standard_base@DV?$stream_output_adapter@D@__crt_stdio_output@@@__crt_stdio_output@@IAE_NAAPAD@Z 0040fc2a f i libucrt:output.obj
 0001:0000ec44       ??$extract_argument_from_va_list@PADPAD@?$standard_base@DV?$string_output_adapter@D@__crt_stdio_output@@@__crt_stdio_output@@IAE_NAAPAD@Z 0040fc44 f i libucrt:output.obj
 0001:0000ec5e       ??$extract_argument_from_va_list@PADPAD@?$standard_base@_WV?$stream_output_adapter@_W@__crt_stdio_output@@@__crt_stdio_output@@IAE_NAAPAD@Z 0040fc5e f i libucrt:output.obj
 0001:0000ec78       ??$extract_argument_from_va_list@PADPAD@?$standard_base@_WV?$string_output_adapter@_W@__crt_stdio_output@@@__crt_stdio_output@@IAE_NAAPAD@Z 0040fc78 f i libucrt:output.obj
 0001:0000ec92       ??$extract_argument_from_va_list@PAUansi_string@?1??type_case_Z@?$output_processor@DV?$stream_output_adapter@D@__crt_stdio_output@@V?$format_validation_base@DV?$stream_output_adapter@D@__crt_stdio_output@@@2@@__crt_stdio_output@@AAE_NXZ@PAU1?1??234@AAE_NXZ@@?$standard_base@DV?$stream_output_adapter@D@__crt_stdio_output@@@__crt_stdio_output@@IAE_NAAPAUansi_string@?1??type_case_Z@?$output_processor@DV?$stream_output_adapter@D@__crt_stdio_output@@V?$format_validation_base@DV?$stream_output_adapter@D@__crt_stdio_output@@@2@@1@AAE_NXZ@@Z 0040fc92 f i libucrt:output.obj
 0001:0000ecac       ??$extract_argument_from_va_list@PAUansi_string@?1??type_case_Z@?$output_processor@DV?$stream_output_adapter@D@__crt_stdio_output@@V?$positional_parameter_base@DV?$stream_output_adapter@D@__crt_stdio_output@@@2@@__crt_stdio_output@@AAE_NXZ@PAU1?1??234@AAE_NXZ@@?$positional_parameter_base@DV?$stream_output_adapter@D@__crt_stdio_output@@@__crt_stdio_output@@IAE_NAAPAUansi_string@?1??type_case_Z@?$output_processor@DV?$stream_output_adapter@D@__crt_stdio_output@@V?$positional_parameter_base@DV?$stream_output_adapter@D@__crt_stdio_output@@@2@@1@AAE_NXZ@@Z 0040fcac f i libucrt:output.obj
 0001:0000ed24       ??$extract_argument_from_va_list@PAUansi_string@?1??type_case_Z@?$output_processor@DV?$stream_output_adapter@D@__crt_stdio_output@@V?$positional_parameter_base@DV?$stream_output_adapter@D@__crt_stdio_output@@@2@@__crt_stdio_output@@AAE_NXZ@PAU1?1??234@AAE_NXZ@@?$standard_base@DV?$stream_output_adapter@D@__crt_stdio_output@@@__crt_stdio_output@@IAE_NAAPAUansi_string@?1??type_case_Z@?$output_processor@DV?$stream_output_adapter@D@__crt_stdio_output@@V?$positional_parameter_base@DV?$stream_output_adapter@D@__crt_stdio_output@@@2@@1@AAE_NXZ@@Z 0040fd24 f i libucrt:output.obj
 0001:0000ed3e       ??$extract_argument_from_va_list@PAUansi_string@?1??type_case_Z@?$output_processor@DV?$stream_output_adapter@D@__crt_stdio_output@@V?$standard_base@DV?$stream_output_adapter@D@__crt_stdio_output@@@2@@__crt_stdio_output@@AAE_NXZ@PAU1?1??234@AAE_NXZ@@?$standard_base@DV?$stream_output_adapter@D@__crt_stdio_output@@@__crt_stdio_output@@IAE_NAAPAUansi_string@?1??type_case_Z@?$output_processor@DV?$stream_output_adapter@D@__crt_stdio_output@@V?$standard_base@DV?$stream_output_adapter@D@__crt_stdio_output@@@2@@1@AAE_NXZ@@Z 0040fd3e f i libucrt:output.obj
 0001:0000ed58       ??$extract_argument_from_va_list@PAUansi_string@?1??type_case_Z@?$output_processor@DV?$string_output_adapter@D@__crt_stdio_output@@V?$format_validation_base@DV?$string_output_adapter@D@__crt_stdio_output@@@2@@__crt_stdio_output@@AAE_NXZ@PAU1?1??234@AAE_NXZ@@?$standard_base@DV?$string_output_adapter@D@__crt_stdio_output@@@__crt_stdio_output@@IAE_NAAPAUansi_string@?1??type_case_Z@?$output_processor@DV?$string_output_adapter@D@__crt_stdio_output@@V?$format_validation_base@DV?$string_output_adapter@D@__crt_stdio_output@@@2@@1@AAE_NXZ@@Z 0040fd58 f i libucrt:output.obj
 0001:0000ed72       ??$extract_argument_from_va_list@PAUansi_string@?1??type_case_Z@?$output_processor@DV?$string_output_adapter@D@__crt_stdio_output@@V?$positional_parameter_base@DV?$string_output_adapter@D@__crt_stdio_output@@@2@@__crt_stdio_output@@AAE_NXZ@PAU1?1??234@AAE_NXZ@@?$positional_parameter_base@DV?$string_output_adapter@D@__crt_stdio_output@@@__crt_stdio_output@@IAE_NAAPAUansi_string@?1??type_case_Z@?$output_processor@DV?$string_output_adapter@D@__crt_stdio_output@@V?$positional_parameter_base@DV?$string_output_adapter@D@__crt_stdio_output@@@2@@1@AAE_NXZ@@Z 0040fd72 f i libucrt:output.obj
 0001:0000edea       ??$extract_argument_from_va_list@PAUansi_string@?1??type_case_Z@?$output_processor@DV?$string_output_adapter@D@__crt_stdio_output@@V?$positional_parameter_base@DV?$string_output_adapter@D@__crt_stdio_output@@@2@@__crt_stdio_output@@AAE_NXZ@PAU1?1??234@AAE_NXZ@@?$standard_base@DV?$string_output_adapter@D@__crt_stdio_output@@@__crt_stdio_output@@IAE_NAAPAUansi_string@?1??type_case_Z@?$output_processor@DV?$string_output_adapter@D@__crt_stdio_output@@V?$positional_parameter_base@DV?$string_output_adapter@D@__crt_stdio_output@@@2@@1@AAE_NXZ@@Z 0040fdea f i libucrt:output.obj
 0001:0000ee04       ??$extract_argument_from_va_list@PAUansi_string@?1??type_case_Z@?$output_processor@DV?$string_output_adapter@D@__crt_stdio_output@@V?$standard_base@DV?$string_output_adapter@D@__crt_stdio_output@@@2@@__crt_stdio_output@@AAE_NXZ@PAU1?1??234@AAE_NXZ@@?$standard_base@DV?$string_output_adapter@D@__crt_stdio_output@@@__crt_stdio_output@@IAE_NAAPAUansi_string@?1??type_case_Z@?$output_processor@DV?$string_output_adapter@D@__crt_stdio_output@@V?$standard_base@DV?$string_output_adapter@D@__crt_stdio_output@@@2@@1@AAE_NXZ@@Z 0040fe04 f i libucrt:output.obj
 0001:0000ee1e       ??$extract_argument_from_va_list@PAUansi_string@?1??type_case_Z@?$output_processor@_WV?$stream_output_adapter@_W@__crt_stdio_output@@V?$format_validation_base@_WV?$stream_output_adapter@_W@__crt_stdio_output@@@2@@__crt_stdio_output@@AAE_NXZ@PAU1?1??234@AAE_NXZ@@?$standard_base@_WV?$stream_output_adapter@_W@__crt_stdio_output@@@__crt_stdio_output@@IAE_NAAPAUansi_string@?1??type_case_Z@?$output_processor@_WV?$stream_output_adapter@_W@__crt_stdio_output@@V?$format_validation_base@_WV?$stream_output_adapter@_W@__crt_stdio_output@@@2@@1@AAE_NXZ@@Z 0040fe1e f i libucrt:output.obj
 0001:0000ee38       ??$extract_argument_from_va_list@PAUansi_string@?1??type_case_Z@?$output_processor@_WV?$stream_output_adapter@_W@__crt_stdio_output@@V?$positional_parameter_base@_WV?$stream_output_adapter@_W@__crt_stdio_output@@@2@@__crt_stdio_output@@AAE_NXZ@PAU1?1??234@AAE_NXZ@@?$positional_parameter_base@_WV?$stream_output_adapter@_W@__crt_stdio_output@@@__crt_stdio_output@@IAE_NAAPAUansi_string@?1??type_case_Z@?$output_processor@_WV?$stream_output_adapter@_W@__crt_stdio_output@@V?$positional_parameter_base@_WV?$stream_output_adapter@_W@__crt_stdio_output@@@2@@1@AAE_NXZ@@Z 0040fe38 f i libucrt:output.obj
 0001:0000eeb0       ??$extract_argument_from_va_list@PAUansi_string@?1??type_case_Z@?$output_processor@_WV?$stream_output_adapter@_W@__crt_stdio_output@@V?$positional_parameter_base@_WV?$stream_output_adapter@_W@__crt_stdio_output@@@2@@__crt_stdio_output@@AAE_NXZ@PAU1?1??234@AAE_NXZ@@?$standard_base@_WV?$stream_output_adapter@_W@__crt_stdio_output@@@__crt_stdio_output@@IAE_NAAPAUansi_string@?1??type_case_Z@?$output_processor@_WV?$stream_output_adapter@_W@__crt_stdio_output@@V?$positional_parameter_base@_WV?$stream_output_adapter@_W@__crt_stdio_output@@@2@@1@AAE_NXZ@@Z 0040feb0 f i libucrt:output.obj
 0001:0000eeca       ??$extract_argument_from_va_list@PAUansi_string@?1??type_case_Z@?$output_processor@_WV?$stream_output_adapter@_W@__crt_stdio_output@@V?$standard_base@_WV?$stream_output_adapter@_W@__crt_stdio_output@@@2@@__crt_stdio_output@@AAE_NXZ@PAU1?1??234@AAE_NXZ@@?$standard_base@_WV?$stream_output_adapter@_W@__crt_stdio_output@@@__crt_stdio_output@@IAE_NAAPAUansi_string@?1??type_case_Z@?$output_processor@_WV?$stream_output_adapter@_W@__crt_stdio_output@@V?$standard_base@_WV?$stream_output_adapter@_W@__crt_stdio_output@@@2@@1@AAE_NXZ@@Z 0040feca f i libucrt:output.obj
 0001:0000eee4       ??$extract_argument_from_va_list@PAUansi_string@?1??type_case_Z@?$output_processor@_WV?$string_output_adapter@_W@__crt_stdio_output@@V?$format_validation_base@_WV?$string_output_adapter@_W@__crt_stdio_output@@@2@@__crt_stdio_output@@AAE_NXZ@PAU1?1??234@AAE_NXZ@@?$standard_base@_WV?$string_output_adapter@_W@__crt_stdio_output@@@__crt_stdio_output@@IAE_NAAPAUansi_string@?1??type_case_Z@?$output_processor@_WV?$string_output_adapter@_W@__crt_stdio_output@@V?$format_validation_base@_WV?$string_output_adapter@_W@__crt_stdio_output@@@2@@1@AAE_NXZ@@Z 0040fee4 f i libucrt:output.obj
 0001:0000eefe       ??$extract_argument_from_va_list@PAUansi_string@?1??type_case_Z@?$output_processor@_WV?$string_output_adapter@_W@__crt_stdio_output@@V?$positional_parameter_base@_WV?$string_output_adapter@_W@__crt_stdio_output@@@2@@__crt_stdio_output@@AAE_NXZ@PAU1?1??234@AAE_NXZ@@?$positional_parameter_base@_WV?$string_output_adapter@_W@__crt_stdio_output@@@__crt_stdio_output@@IAE_NAAPAUansi_string@?1??type_case_Z@?$output_processor@_WV?$string_output_adapter@_W@__crt_stdio_output@@V?$positional_parameter_base@_WV?$string_output_adapter@_W@__crt_stdio_output@@@2@@1@AAE_NXZ@@Z 0040fefe f i libucrt:output.obj
 0001:0000ef76       ??$extract_argument_from_va_list@PAUansi_string@?1??type_case_Z@?$output_processor@_WV?$string_output_adapter@_W@__crt_stdio_output@@V?$positional_parameter_base@_WV?$string_output_adapter@_W@__crt_stdio_output@@@2@@__crt_stdio_output@@AAE_NXZ@PAU1?1??234@AAE_NXZ@@?$standard_base@_WV?$string_output_adapter@_W@__crt_stdio_output@@@__crt_stdio_output@@IAE_NAAPAUansi_string@?1??type_case_Z@?$output_processor@_WV?$string_output_adapter@_W@__crt_stdio_output@@V?$positional_parameter_base@_WV?$string_output_adapter@_W@__crt_stdio_output@@@2@@1@AAE_NXZ@@Z 0040ff76 f i libucrt:output.obj
 0001:0000ef90       ??$extract_argument_from_va_list@PAUansi_string@?1??type_case_Z@?$output_processor@_WV?$string_output_adapter@_W@__crt_stdio_output@@V?$standard_base@_WV?$string_output_adapter@_W@__crt_stdio_output@@@2@@__crt_stdio_output@@AAE_NXZ@PAU1?1??234@AAE_NXZ@@?$standard_base@_WV?$string_output_adapter@_W@__crt_stdio_output@@@__crt_stdio_output@@IAE_NAAPAUansi_string@?1??type_case_Z@?$output_processor@_WV?$string_output_adapter@_W@__crt_stdio_output@@V?$standard_base@_WV?$string_output_adapter@_W@__crt_stdio_output@@@2@@1@AAE_NXZ@@Z 0040ff90 f i libucrt:output.obj
 0001:0000efaa       ??$extract_argument_from_va_list@PAXPAX@?$positional_parameter_base@DV?$stream_output_adapter@D@__crt_stdio_output@@@__crt_stdio_output@@IAE_NAAPAX@Z 0040ffaa f i libucrt:output.obj
 0001:0000f022       ??$extract_argument_from_va_list@PAXPAX@?$positional_parameter_base@DV?$string_output_adapter@D@__crt_stdio_output@@@__crt_stdio_output@@IAE_NAAPAX@Z 00410022 f i libucrt:output.obj
 0001:0000f09a       ??$extract_argument_from_va_list@PAXPAX@?$positional_parameter_base@_WV?$stream_output_adapter@_W@__crt_stdio_output@@@__crt_stdio_output@@IAE_NAAPAX@Z 0041009a f i libucrt:output.obj
 0001:0000f112       ??$extract_argument_from_va_list@PAXPAX@?$positional_parameter_base@_WV?$string_output_adapter@_W@__crt_stdio_output@@@__crt_stdio_output@@IAE_NAAPAX@Z 00410112 f i libucrt:output.obj
 0001:0000f18a       ??$extract_argument_from_va_list@PAXPAX@?$standard_base@DV?$stream_output_adapter@D@__crt_stdio_output@@@__crt_stdio_output@@IAE_NAAPAX@Z 0041018a f i libucrt:output.obj
 0001:0000f1a4       ??$extract_argument_from_va_list@PAXPAX@?$standard_base@DV?$string_output_adapter@D@__crt_stdio_output@@@__crt_stdio_output@@IAE_NAAPAX@Z 004101a4 f i libucrt:output.obj
 0001:0000f1be       ??$extract_argument_from_va_list@PAXPAX@?$standard_base@_WV?$stream_output_adapter@_W@__crt_stdio_output@@@__crt_stdio_output@@IAE_NAAPAX@Z 004101be f i libucrt:output.obj
 0001:0000f1d8       ??$extract_argument_from_va_list@PAXPAX@?$standard_base@_WV?$string_output_adapter@_W@__crt_stdio_output@@@__crt_stdio_output@@IAE_NAAPAX@Z 004101d8 f i libucrt:output.obj
 0001:0000f1f2       ??$extract_argument_from_va_list@U_CRT_DOUBLE@@U1@@?$positional_parameter_base@DV?$stream_output_adapter@D@__crt_stdio_output@@@__crt_stdio_output@@IAE_NAAU_CRT_DOUBLE@@@Z 004101f2 f i libucrt:output.obj
 0001:0000f278       ??$extract_argument_from_va_list@U_CRT_DOUBLE@@U1@@?$positional_parameter_base@DV?$string_output_adapter@D@__crt_stdio_output@@@__crt_stdio_output@@IAE_NAAU_CRT_DOUBLE@@@Z 00410278 f i libucrt:output.obj
 0001:0000f2fe       ??$extract_argument_from_va_list@U_CRT_DOUBLE@@U1@@?$positional_parameter_base@_WV?$stream_output_adapter@_W@__crt_stdio_output@@@__crt_stdio_output@@IAE_NAAU_CRT_DOUBLE@@@Z 004102fe f i libucrt:output.obj
 0001:0000f384       ??$extract_argument_from_va_list@U_CRT_DOUBLE@@U1@@?$positional_parameter_base@_WV?$string_output_adapter@_W@__crt_stdio_output@@@__crt_stdio_output@@IAE_NAAU_CRT_DOUBLE@@@Z 00410384 f i libucrt:output.obj
 0001:0000f40a       ??$extract_argument_from_va_list@U_CRT_DOUBLE@@U1@@?$standard_base@DV?$stream_output_adapter@D@__crt_stdio_output@@@__crt_stdio_output@@IAE_NAAU_CRT_DOUBLE@@@Z 0041040a f i libucrt:output.obj
 0001:0000f42a       ??$extract_argument_from_va_list@U_CRT_DOUBLE@@U1@@?$standard_base@DV?$string_output_adapter@D@__crt_stdio_output@@@__crt_stdio_output@@IAE_NAAU_CRT_DOUBLE@@@Z 0041042a f i libucrt:output.obj
 0001:0000f44a       ??$extract_argument_from_va_list@U_CRT_DOUBLE@@U1@@?$standard_base@_WV?$stream_output_adapter@_W@__crt_stdio_output@@@__crt_stdio_output@@IAE_NAAU_CRT_DOUBLE@@@Z 0041044a f i libucrt:output.obj
 0001:0000f46a       ??$extract_argument_from_va_list@U_CRT_DOUBLE@@U1@@?$standard_base@_WV?$string_output_adapter@_W@__crt_stdio_output@@@__crt_stdio_output@@IAE_NAAU_CRT_DOUBLE@@@Z 0041046a f i libucrt:output.obj
 0001:0000f48a       ??$extract_argument_from_va_list@_J_J@?$positional_parameter_base@DV?$stream_output_adapter@D@__crt_stdio_output@@@__crt_stdio_output@@IAE_NAA_J@Z 0041048a f i libucrt:output.obj
 0001:0000f510       ??$extract_argument_from_va_list@_J_J@?$positional_parameter_base@DV?$string_output_adapter@D@__crt_stdio_output@@@__crt_stdio_output@@IAE_NAA_J@Z 00410510 f i libucrt:output.obj
 0001:0000f596       ??$extract_argument_from_va_list@_J_J@?$positional_parameter_base@_WV?$stream_output_adapter@_W@__crt_stdio_output@@@__crt_stdio_output@@IAE_NAA_J@Z 00410596 f i libucrt:output.obj
 0001:0000f61c       ??$extract_argument_from_va_list@_J_J@?$positional_parameter_base@_WV?$string_output_adapter@_W@__crt_stdio_output@@@__crt_stdio_output@@IAE_NAA_J@Z 0041061c f i libucrt:output.obj
 0001:0000f6a2       ??$extract_argument_from_va_list@_J_J@?$standard_base@DV?$stream_output_adapter@D@__crt_stdio_output@@@__crt_stdio_output@@IAE_NAA_J@Z 004106a2 f i libucrt:output.obj
 0001:0000f6c2       ??$extract_argument_from_va_list@_J_J@?$standard_base@DV?$string_output_adapter@D@__crt_stdio_output@@@__crt_stdio_output@@IAE_NAA_J@Z 004106c2 f i libucrt:output.obj
 0001:0000f6e2       ??$extract_argument_from_va_list@_J_J@?$standard_base@_WV?$stream_output_adapter@_W@__crt_stdio_output@@@__crt_stdio_output@@IAE_NAA_J@Z 004106e2 f i libucrt:output.obj
 0001:0000f702       ??$extract_argument_from_va_list@_J_J@?$standard_base@_WV?$string_output_adapter@_W@__crt_stdio_output@@@__crt_stdio_output@@IAE_NAA_J@Z 00410702 f i libucrt:output.obj
 0001:0000f722       ??$extract_argument_from_va_list@_K_J@?$positional_parameter_base@DV?$stream_output_adapter@D@__crt_stdio_output@@@__crt_stdio_output@@IAE_NAA_J@Z 00410722 f i libucrt:output.obj
 0001:0000f7a8       ??$extract_argument_from_va_list@_K_J@?$positional_parameter_base@DV?$string_output_adapter@D@__crt_stdio_output@@@__crt_stdio_output@@IAE_NAA_J@Z 004107a8 f i libucrt:output.obj
 0001:0000f82e       ??$extract_argument_from_va_list@_K_J@?$positional_parameter_base@_WV?$stream_output_adapter@_W@__crt_stdio_output@@@__crt_stdio_output@@IAE_NAA_J@Z 0041082e f i libucrt:output.obj
 0001:0000f8b4       ??$extract_argument_from_va_list@_K_J@?$positional_parameter_base@_WV?$string_output_adapter@_W@__crt_stdio_output@@@__crt_stdio_output@@IAE_NAA_J@Z 004108b4 f i libucrt:output.obj
 0001:0000f93a       ??$extract_argument_from_va_list@_K_J@?$standard_base@DV?$stream_output_adapter@D@__crt_stdio_output@@@__crt_stdio_output@@IAE_NAA_J@Z 0041093a f i libucrt:output.obj
 0001:0000f95a       ??$extract_argument_from_va_list@_K_J@?$standard_base@DV?$string_output_adapter@D@__crt_stdio_output@@@__crt_stdio_output@@IAE_NAA_J@Z 0041095a f i libucrt:output.obj
 0001:0000f97a       ??$extract_argument_from_va_list@_K_J@?$standard_base@_WV?$stream_output_adapter@_W@__crt_stdio_output@@@__crt_stdio_output@@IAE_NAA_J@Z 0041097a f i libucrt:output.obj
 0001:0000f99a       ??$extract_argument_from_va_list@_K_J@?$standard_base@_WV?$string_output_adapter@_W@__crt_stdio_output@@@__crt_stdio_output@@IAE_NAA_J@Z 0041099a f i libucrt:output.obj
 0001:0000f9ba       ??$extract_argument_from_va_list@_W_W@?$positional_parameter_base@DV?$stream_output_adapter@D@__crt_stdio_output@@@__crt_stdio_output@@IAE_NAA_W@Z 004109ba f i libucrt:output.obj
 0001:0000fa36       ??$extract_argument_from_va_list@_W_W@?$positional_parameter_base@DV?$string_output_adapter@D@__crt_stdio_output@@@__crt_stdio_output@@IAE_NAA_W@Z 00410a36 f i libucrt:output.obj
 0001:0000fab2       ??$extract_argument_from_va_list@_W_W@?$positional_parameter_base@_WV?$stream_output_adapter@_W@__crt_stdio_output@@@__crt_stdio_output@@IAE_NAA_W@Z 00410ab2 f i libucrt:output.obj
 0001:0000fb2e       ??$extract_argument_from_va_list@_W_W@?$positional_parameter_base@_WV?$string_output_adapter@_W@__crt_stdio_output@@@__crt_stdio_output@@IAE_NAA_W@Z 00410b2e f i libucrt:output.obj
 0001:0000fbaa       ??$extract_argument_from_va_list@_W_W@?$standard_base@DV?$stream_output_adapter@D@__crt_stdio_output@@@__crt_stdio_output@@IAE_NAA_W@Z 00410baa f i libucrt:output.obj
 0001:0000fbc6       ??$extract_argument_from_va_list@_W_W@?$standard_base@DV?$string_output_adapter@D@__crt_stdio_output@@@__crt_stdio_output@@IAE_NAA_W@Z 00410bc6 f i libucrt:output.obj
 0001:0000fbe2       ??$extract_argument_from_va_list@_W_W@?$standard_base@_WV?$stream_output_adapter@_W@__crt_stdio_output@@@__crt_stdio_output@@IAE_NAA_W@Z 00410be2 f i libucrt:output.obj
 0001:0000fbfe       ??$extract_argument_from_va_list@_W_W@?$standard_base@_WV?$string_output_adapter@_W@__crt_stdio_output@@@__crt_stdio_output@@IAE_NAA_W@Z 00410bfe f i libucrt:output.obj
 0001:0000fc1a       ??$get_parameter_type@D@?$positional_parameter_base@DV?$stream_output_adapter@D@__crt_stdio_output@@@__crt_stdio_output@@CA?AW4parameter_type@01@PAD@Z 00410c1a f i libucrt:output.obj
 0001:0000fc1e       ??$get_parameter_type@D@?$positional_parameter_base@DV?$string_output_adapter@D@__crt_stdio_output@@@__crt_stdio_output@@CA?AW4parameter_type@01@PAD@Z 00410c1e f i libucrt:output.obj
 0001:0000fc22       ??$get_parameter_type@D@?$positional_parameter_base@_WV?$stream_output_adapter@_W@__crt_stdio_output@@@__crt_stdio_output@@CA?AW4parameter_type@01@PAD@Z 00410c22 f i libucrt:output.obj
 0001:0000fc26       ??$get_parameter_type@D@?$positional_parameter_base@_WV?$string_output_adapter@_W@__crt_stdio_output@@@__crt_stdio_output@@CA?AW4parameter_type@01@PAD@Z 00410c26 f i libucrt:output.obj
 0001:0000fc2a       ??$get_parameter_type@Uansi_string@?1??type_case_Z@?$output_processor@DV?$stream_output_adapter@D@__crt_stdio_output@@V?$positional_parameter_base@DV?$stream_output_adapter@D@__crt_stdio_output@@@2@@__crt_stdio_output@@AAE_NXZ@@?$positional_parameter_base@DV?$stream_output_adapter@D@__crt_stdio_output@@@__crt_stdio_output@@CA?AW4parameter_type@01@PAUansi_string@?1??type_case_Z@?$output_processor@DV?$stream_output_adapter@D@__crt_stdio_output@@V?$positional_parameter_base@DV?$stream_output_adapter@D@__crt_stdio_output@@@2@@1@AAE_NXZ@@Z 00410c2a f i libucrt:output.obj
 0001:0000fc2e       ??$get_parameter_type@Uansi_string@?1??type_case_Z@?$output_processor@DV?$string_output_adapter@D@__crt_stdio_output@@V?$positional_parameter_base@DV?$string_output_adapter@D@__crt_stdio_output@@@2@@__crt_stdio_output@@AAE_NXZ@@?$positional_parameter_base@DV?$string_output_adapter@D@__crt_stdio_output@@@__crt_stdio_output@@CA?AW4parameter_type@01@PAUansi_string@?1??type_case_Z@?$output_processor@DV?$string_output_adapter@D@__crt_stdio_output@@V?$positional_parameter_base@DV?$string_output_adapter@D@__crt_stdio_output@@@2@@1@AAE_NXZ@@Z 00410c2e f i libucrt:output.obj
 0001:0000fc32       ??$get_parameter_type@Uansi_string@?1??type_case_Z@?$output_processor@_WV?$stream_output_adapter@_W@__crt_stdio_output@@V?$positional_parameter_base@_WV?$stream_output_adapter@_W@__crt_stdio_output@@@2@@__crt_stdio_output@@AAE_NXZ@@?$positional_parameter_base@_WV?$stream_output_adapter@_W@__crt_stdio_output@@@__crt_stdio_output@@CA?AW4parameter_type@01@PAUansi_string@?1??type_case_Z@?$output_processor@_WV?$stream_output_adapter@_W@__crt_stdio_output@@V?$positional_parameter_base@_WV?$stream_output_adapter@_W@__crt_stdio_output@@@2@@1@AAE_NXZ@@Z 00410c32 f i libucrt:output.obj
 0001:0000fc36       ??$get_parameter_type@Uansi_string@?1??type_case_Z@?$output_processor@_WV?$string_output_adapter@_W@__crt_stdio_output@@V?$positional_parameter_base@_WV?$string_output_adapter@_W@__crt_stdio_output@@@2@@__crt_stdio_output@@AAE_NXZ@@?$positional_parameter_base@_WV?$string_output_adapter@_W@__crt_stdio_output@@@__crt_stdio_output@@CA?AW4parameter_type@01@PAUansi_string@?1??type_case_Z@?$output_processor@_WV?$string_output_adapter@_W@__crt_stdio_output@@V?$positional_parameter_base@_WV?$string_output_adapter@_W@__crt_stdio_output@@@2@@1@AAE_NXZ@@Z 00410c36 f i libucrt:output.obj
 0001:0000fc3a       ??$get_parameter_type@X@?$positional_parameter_base@DV?$stream_output_adapter@D@__crt_stdio_output@@@__crt_stdio_output@@CA?AW4parameter_type@01@PAX@Z 00410c3a f i libucrt:output.obj
 0001:0000fc3e       ??$get_parameter_type@X@?$positional_parameter_base@DV?$string_output_adapter@D@__crt_stdio_output@@@__crt_stdio_output@@CA?AW4parameter_type@01@PAX@Z 00410c3e f i libucrt:output.obj
 0001:0000fc42       ??$get_parameter_type@X@?$positional_parameter_base@_WV?$stream_output_adapter@_W@__crt_stdio_output@@@__crt_stdio_output@@CA?AW4parameter_type@01@PAX@Z 00410c42 f i libucrt:output.obj
 0001:0000fc46       ??$get_parameter_type@X@?$positional_parameter_base@_WV?$string_output_adapter@_W@__crt_stdio_output@@@__crt_stdio_output@@CA?AW4parameter_type@01@PAX@Z 00410c46 f i libucrt:output.obj
 0001:0000fc4a       ??$is_character_specifier@D@?$positional_parameter_base@DV?$stream_output_adapter@D@__crt_stdio_output@@@__crt_stdio_output@@CA_ND@Z 00410c4a f i libucrt:output.obj
 0001:0000fc62       ??$is_character_specifier@D@?$positional_parameter_base@DV?$string_output_adapter@D@__crt_stdio_output@@@__crt_stdio_output@@CA_ND@Z 00410c62 f i libucrt:output.obj
 0001:0000fc7a       ??$is_character_specifier@_W@?$positional_parameter_base@_WV?$stream_output_adapter@_W@__crt_stdio_output@@@__crt_stdio_output@@CA_N_W@Z 00410c7a f i libucrt:output.obj
 0001:0000fc95       ??$is_character_specifier@_W@?$positional_parameter_base@_WV?$string_output_adapter@_W@__crt_stdio_output@@@__crt_stdio_output@@CA_N_W@Z 00410c95 f i libucrt:output.obj
 0001:0000fcb0       ??$is_integral_specifier@D@?$positional_parameter_base@DV?$stream_output_adapter@D@__crt_stdio_output@@@__crt_stdio_output@@CA_ND@Z 00410cb0 f i libucrt:output.obj
 0001:0000fcdc       ??$is_integral_specifier@D@?$positional_parameter_base@DV?$string_output_adapter@D@__crt_stdio_output@@@__crt_stdio_output@@CA_ND@Z 00410cdc f i libucrt:output.obj
 0001:0000fd08       ??$is_integral_specifier@_W@?$positional_parameter_base@_WV?$stream_output_adapter@_W@__crt_stdio_output@@@__crt_stdio_output@@CA_N_W@Z 00410d08 f i libucrt:output.obj
 0001:0000fd43       ??$is_integral_specifier@_W@?$positional_parameter_base@_WV?$string_output_adapter@_W@__crt_stdio_output@@@__crt_stdio_output@@CA_N_W@Z 00410d43 f i libucrt:output.obj
 0001:0000fd7e       ??$is_pointer_specifier@D@?$positional_parameter_base@DV?$stream_output_adapter@D@__crt_stdio_output@@@__crt_stdio_output@@CA_ND@Z 00410d7e f i libucrt:output.obj
 0001:0000fd8c       ??$is_pointer_specifier@D@?$positional_parameter_base@DV?$string_output_adapter@D@__crt_stdio_output@@@__crt_stdio_output@@CA_ND@Z 00410d8c f i libucrt:output.obj
 0001:0000fd9a       ??$is_pointer_specifier@_W@?$positional_parameter_base@_WV?$stream_output_adapter@_W@__crt_stdio_output@@@__crt_stdio_output@@CA_N_W@Z 00410d9a f i libucrt:output.obj
 0001:0000fda9       ??$is_pointer_specifier@_W@?$positional_parameter_base@_WV?$string_output_adapter@_W@__crt_stdio_output@@@__crt_stdio_output@@CA_N_W@Z 00410da9 f i libucrt:output.obj
 0001:0000fdb8       ??$is_string_specifier@D@?$positional_parameter_base@DV?$stream_output_adapter@D@__crt_stdio_output@@@__crt_stdio_output@@CA_ND@Z 00410db8 f i libucrt:output.obj
 0001:0000fdd0       ??$is_string_specifier@D@?$positional_parameter_base@DV?$string_output_adapter@D@__crt_stdio_output@@@__crt_stdio_output@@CA_ND@Z 00410dd0 f i libucrt:output.obj
 0001:0000fde8       ??$is_string_specifier@_W@?$positional_parameter_base@_WV?$stream_output_adapter@_W@__crt_stdio_output@@@__crt_stdio_output@@CA_N_W@Z 00410de8 f i libucrt:output.obj
 0001:0000fe03       ??$is_string_specifier@_W@?$positional_parameter_base@_WV?$string_output_adapter@_W@__crt_stdio_output@@@__crt_stdio_output@@CA_N_W@Z 00410e03 f i libucrt:output.obj
 0001:0000fe1e       ??$is_wide_character_specifier@D@__crt_stdio_output@@YA_N_KDW4length_modifier@0@@Z 00410e1e f i libucrt:output.obj
 0001:0000fe4f       ??$is_wide_character_specifier@_W@__crt_stdio_output@@YA_N_K_WW4length_modifier@0@@Z 00410e4f f i libucrt:output.obj
 0001:0000fe9d       ??$peek_va_arg@C@__crt_stdio_output@@YACPAD@Z 00410e9d f i libucrt:output.obj
 0001:0000fea9       ??$peek_va_arg@E@__crt_stdio_output@@YAEPAD@Z 00410ea9 f i libucrt:output.obj
 0001:0000feb5       ??$peek_va_arg@F@__crt_stdio_output@@YAFPAD@Z 00410eb5 f i libucrt:output.obj
 0001:0000fec2       ??$peek_va_arg@G@__crt_stdio_output@@YAGPAD@Z 00410ec2 f i libucrt:output.obj
 0001:0000fecf       ??$peek_va_arg@H@__crt_stdio_output@@YAHPAD@Z 00410ecf f i libucrt:output.obj
 0001:0000fedb       ??$peek_va_arg@I@__crt_stdio_output@@YAIPAD@Z 00410edb f i libucrt:output.obj
 0001:0000fee7       ??$peek_va_arg@PAD@__crt_stdio_output@@YAPADPAD@Z 00410ee7 f i libucrt:output.obj
 0001:0000fef3       ??$peek_va_arg@PAUansi_string@?1??type_case_Z@?$output_processor@DV?$stream_output_adapter@D@__crt_stdio_output@@V?$positional_parameter_base@DV?$stream_output_adapter@D@__crt_stdio_output@@@2@@__crt_stdio_output@@AAE_NXZ@@__crt_stdio_output@@YAPAUansi_string@?1??type_case_Z@?$output_processor@DV?$stream_output_adapter@D@__crt_stdio_output@@V?$positional_parameter_base@DV?$stream_output_adapter@D@__crt_stdio_output@@@2@@0@AAE_NXZ@PAD@Z 00410ef3 f i libucrt:output.obj
 0001:0000feff       ??$peek_va_arg@PAUansi_string@?1??type_case_Z@?$output_processor@DV?$string_output_adapter@D@__crt_stdio_output@@V?$positional_parameter_base@DV?$string_output_adapter@D@__crt_stdio_output@@@2@@__crt_stdio_output@@AAE_NXZ@@__crt_stdio_output@@YAPAUansi_string@?1??type_case_Z@?$output_processor@DV?$string_output_adapter@D@__crt_stdio_output@@V?$positional_parameter_base@DV?$string_output_adapter@D@__crt_stdio_output@@@2@@0@AAE_NXZ@PAD@Z 00410eff f i libucrt:output.obj
 0001:0000ff0b       ??$peek_va_arg@PAUansi_string@?1??type_case_Z@?$output_processor@_WV?$stream_output_adapter@_W@__crt_stdio_output@@V?$positional_parameter_base@_WV?$stream_output_adapter@_W@__crt_stdio_output@@@2@@__crt_stdio_output@@AAE_NXZ@@__crt_stdio_output@@YAPAUansi_string@?1??type_case_Z@?$output_processor@_WV?$stream_output_adapter@_W@__crt_stdio_output@@V?$positional_parameter_base@_WV?$stream_output_adapter@_W@__crt_stdio_output@@@2@@0@AAE_NXZ@PAD@Z 00410f0b f i libucrt:output.obj
 0001:0000ff17       ??$peek_va_arg@PAUansi_string@?1??type_case_Z@?$output_processor@_WV?$string_output_adapter@_W@__crt_stdio_output@@V?$positional_parameter_base@_WV?$string_output_adapter@_W@__crt_stdio_output@@@2@@__crt_stdio_output@@AAE_NXZ@@__crt_stdio_output@@YAPAUansi_string@?1??type_case_Z@?$output_processor@_WV?$string_output_adapter@_W@__crt_stdio_output@@V?$positional_parameter_base@_WV?$string_output_adapter@_W@__crt_stdio_output@@@2@@0@AAE_NXZ@PAD@Z 00410f17 f i libucrt:output.obj
 0001:0000ff23       ??$peek_va_arg@PAX@__crt_stdio_output@@YAPAXPAD@Z 00410f23 f i libucrt:output.obj
 0001:0000ff2f       ??$peek_va_arg@U_CRT_DOUBLE@@@__crt_stdio_output@@YA?AU_CRT_DOUBLE@@PAD@Z 00410f2f f i libucrt:output.obj
 0001:0000ff3e       ??$peek_va_arg@_J@__crt_stdio_output@@YA_JPAD@Z 00410f3e f i libucrt:output.obj
 0001:0000ff4d       ??$peek_va_arg@_K@__crt_stdio_output@@YA_KPAD@Z 00410f4d f i libucrt:output.obj
 0001:0000ff5c       ??$peek_va_arg@_W@__crt_stdio_output@@YA_WPAD@Z 00410f5c f i libucrt:output.obj
 0001:0000ff69       ??$puttc_nolock@ABDPAU_iobuf@@@?$__crt_char_traits@D@@SAHABD$$QAPAU_iobuf@@@Z 00410f69 f i libucrt:output.obj
 0001:0000ff83       ??$puttc_nolock@AB_WPAU_iobuf@@@?$__crt_char_traits@_W@@SAGAB_W$$QAPAU_iobuf@@@Z 00410f83 f i libucrt:output.obj
 0001:0000ff9d       ??$read_va_arg@C@__crt_stdio_output@@YACAAPAD@Z 00410f9d f i libucrt:output.obj
 0001:0000ffaf       ??$read_va_arg@E@__crt_stdio_output@@YAEAAPAD@Z 00410faf f i libucrt:output.obj
 0001:0000ffc1       ??$read_va_arg@F@__crt_stdio_output@@YAFAAPAD@Z 00410fc1 f i libucrt:output.obj
 0001:0000ffd4       ??$read_va_arg@G@__crt_stdio_output@@YAGAAPAD@Z 00410fd4 f i libucrt:output.obj
 0001:0000ffe7       ??$read_va_arg@H@__crt_stdio_output@@YAHAAPAD@Z 00410fe7 f i libucrt:output.obj
 0001:0000fff9       ??$read_va_arg@I@__crt_stdio_output@@YAIAAPAD@Z 00410ff9 f i libucrt:output.obj
 0001:0001000b       ??$read_va_arg@PAD@__crt_stdio_output@@YAPADAAPAD@Z 0041100b f i libucrt:output.obj
 0001:0001001d       ??$read_va_arg@PAUansi_string@?1??type_case_Z@?$output_processor@DV?$stream_output_adapter@D@__crt_stdio_output@@V?$format_validation_base@DV?$stream_output_adapter@D@__crt_stdio_output@@@2@@__crt_stdio_output@@AAE_NXZ@@__crt_stdio_output@@YAPAUansi_string@?1??type_case_Z@?$output_processor@DV?$stream_output_adapter@D@__crt_stdio_output@@V?$format_validation_base@DV?$stream_output_adapter@D@__crt_stdio_output@@@2@@0@AAE_NXZ@AAPAD@Z 0041101d f i libucrt:output.obj
 0001:0001002f       ??$read_va_arg@PAUansi_string@?1??type_case_Z@?$output_processor@DV?$stream_output_adapter@D@__crt_stdio_output@@V?$positional_parameter_base@DV?$stream_output_adapter@D@__crt_stdio_output@@@2@@__crt_stdio_output@@AAE_NXZ@@__crt_stdio_output@@YAPAUansi_string@?1??type_case_Z@?$output_processor@DV?$stream_output_adapter@D@__crt_stdio_output@@V?$positional_parameter_base@DV?$stream_output_adapter@D@__crt_stdio_output@@@2@@0@AAE_NXZ@AAPAD@Z 0041102f f i libucrt:output.obj
 0001:00010041       ??$read_va_arg@PAUansi_string@?1??type_case_Z@?$output_processor@DV?$stream_output_adapter@D@__crt_stdio_output@@V?$standard_base@DV?$stream_output_adapter@D@__crt_stdio_output@@@2@@__crt_stdio_output@@AAE_NXZ@@__crt_stdio_output@@YAPAUansi_string@?1??type_case_Z@?$output_processor@DV?$stream_output_adapter@D@__crt_stdio_output@@V?$standard_base@DV?$stream_output_adapter@D@__crt_stdio_output@@@2@@0@AAE_NXZ@AAPAD@Z 00411041 f i libucrt:output.obj
 0001:00010053       ??$read_va_arg@PAUansi_string@?1??type_case_Z@?$output_processor@DV?$string_output_adapter@D@__crt_stdio_output@@V?$format_validation_base@DV?$string_output_adapter@D@__crt_stdio_output@@@2@@__crt_stdio_output@@AAE_NXZ@@__crt_stdio_output@@YAPAUansi_string@?1??type_case_Z@?$output_processor@DV?$string_output_adapter@D@__crt_stdio_output@@V?$format_validation_base@DV?$string_output_adapter@D@__crt_stdio_output@@@2@@0@AAE_NXZ@AAPAD@Z 00411053 f i libucrt:output.obj
 0001:00010065       ??$read_va_arg@PAUansi_string@?1??type_case_Z@?$output_processor@DV?$string_output_adapter@D@__crt_stdio_output@@V?$positional_parameter_base@DV?$string_output_adapter@D@__crt_stdio_output@@@2@@__crt_stdio_output@@AAE_NXZ@@__crt_stdio_output@@YAPAUansi_string@?1??type_case_Z@?$output_processor@DV?$string_output_adapter@D@__crt_stdio_output@@V?$positional_parameter_base@DV?$string_output_adapter@D@__crt_stdio_output@@@2@@0@AAE_NXZ@AAPAD@Z 00411065 f i libucrt:output.obj
 0001:00010077       ??$read_va_arg@PAUansi_string@?1??type_case_Z@?$output_processor@DV?$string_output_adapter@D@__crt_stdio_output@@V?$standard_base@DV?$string_output_adapter@D@__crt_stdio_output@@@2@@__crt_stdio_output@@AAE_NXZ@@__crt_stdio_output@@YAPAUansi_string@?1??type_case_Z@?$output_processor@DV?$string_output_adapter@D@__crt_stdio_output@@V?$standard_base@DV?$string_output_adapter@D@__crt_stdio_output@@@2@@0@AAE_NXZ@AAPAD@Z 00411077 f i libucrt:output.obj
 0001:00010089       ??$read_va_arg@PAUansi_string@?1??type_case_Z@?$output_processor@_WV?$stream_output_adapter@_W@__crt_stdio_output@@V?$format_validation_base@_WV?$stream_output_adapter@_W@__crt_stdio_output@@@2@@__crt_stdio_output@@AAE_NXZ@@__crt_stdio_output@@YAPAUansi_string@?1??type_case_Z@?$output_processor@_WV?$stream_output_adapter@_W@__crt_stdio_output@@V?$format_validation_base@_WV?$stream_output_adapter@_W@__crt_stdio_output@@@2@@0@AAE_NXZ@AAPAD@Z 00411089 f i libucrt:output.obj
 0001:0001009b       ??$read_va_arg@PAUansi_string@?1??type_case_Z@?$output_processor@_WV?$stream_output_adapter@_W@__crt_stdio_output@@V?$positional_parameter_base@_WV?$stream_output_adapter@_W@__crt_stdio_output@@@2@@__crt_stdio_output@@AAE_NXZ@@__crt_stdio_output@@YAPAUansi_string@?1??type_case_Z@?$output_processor@_WV?$stream_output_adapter@_W@__crt_stdio_output@@V?$positional_parameter_base@_WV?$stream_output_adapter@_W@__crt_stdio_output@@@2@@0@AAE_NXZ@AAPAD@Z 0041109b f i libucrt:output.obj
 0001:000100ad       ??$read_va_arg@PAUansi_string@?1??type_case_Z@?$output_processor@_WV?$stream_output_adapter@_W@__crt_stdio_output@@V?$standard_base@_WV?$stream_output_adapter@_W@__crt_stdio_output@@@2@@__crt_stdio_output@@AAE_NXZ@@__crt_stdio_output@@YAPAUansi_string@?1??type_case_Z@?$output_processor@_WV?$stream_output_adapter@_W@__crt_stdio_output@@V?$standard_base@_WV?$stream_output_adapter@_W@__crt_stdio_output@@@2@@0@AAE_NXZ@AAPAD@Z 004110ad f i libucrt:output.obj
 0001:000100bf       ??$read_va_arg@PAUansi_string@?1??type_case_Z@?$output_processor@_WV?$string_output_adapter@_W@__crt_stdio_output@@V?$format_validation_base@_WV?$string_output_adapter@_W@__crt_stdio_output@@@2@@__crt_stdio_output@@AAE_NXZ@@__crt_stdio_output@@YAPAUansi_string@?1??type_case_Z@?$output_processor@_WV?$string_output_adapter@_W@__crt_stdio_output@@V?$format_validation_base@_WV?$string_output_adapter@_W@__crt_stdio_output@@@2@@0@AAE_NXZ@AAPAD@Z 004110bf f i libucrt:output.obj
 0001:000100d1       ??$read_va_arg@PAUansi_string@?1??type_case_Z@?$output_processor@_WV?$string_output_adapter@_W@__crt_stdio_output@@V?$positional_parameter_base@_WV?$string_output_adapter@_W@__crt_stdio_output@@@2@@__crt_stdio_output@@AAE_NXZ@@__crt_stdio_output@@YAPAUansi_string@?1??type_case_Z@?$output_processor@_WV?$string_output_adapter@_W@__crt_stdio_output@@V?$positional_parameter_base@_WV?$string_output_adapter@_W@__crt_stdio_output@@@2@@0@AAE_NXZ@AAPAD@Z 004110d1 f i libucrt:output.obj
 0001:000100e3       ??$read_va_arg@PAUansi_string@?1??type_case_Z@?$output_processor@_WV?$string_output_adapter@_W@__crt_stdio_output@@V?$standard_base@_WV?$string_output_adapter@_W@__crt_stdio_output@@@2@@__crt_stdio_output@@AAE_NXZ@@__crt_stdio_output@@YAPAUansi_string@?1??type_case_Z@?$output_processor@_WV?$string_output_adapter@_W@__crt_stdio_output@@V?$standard_base@_WV?$string_output_adapter@_W@__crt_stdio_output@@@2@@0@AAE_NXZ@AAPAD@Z 004110e3 f i libucrt:output.obj
 0001:000100f5       ??$read_va_arg@PAX@__crt_stdio_output@@YAPAXAAPAD@Z 004110f5 f i libucrt:output.obj
 0001:00010107       ??$read_va_arg@U_CRT_DOUBLE@@@__crt_stdio_output@@YA?AU_CRT_DOUBLE@@AAPAD@Z 00411107 f i libucrt:output.obj
 0001:0001011d       ??$read_va_arg@_J@__crt_stdio_output@@YA_JAAPAD@Z 0041111d f i libucrt:output.obj
 0001:00010132       ??$read_va_arg@_K@__crt_stdio_output@@YA_KAAPAD@Z 00411132 f i libucrt:output.obj
 0001:00010147       ??$read_va_arg@_W@__crt_stdio_output@@YA_WAAPAD@Z 00411147 f i libucrt:output.obj
 0001:0001015a       ??$scratch_count@D@formatting_buffer@__crt_stdio_output@@QBEIXZ 0041115a f i libucrt:output.obj
 0001:0001015f       ??$scratch_data@D@formatting_buffer@__crt_stdio_output@@QAEPADXZ 0041115f f i libucrt:output.obj
 0001:0001017d       ??$tcstol@AAPBDPAPADH@?$__crt_char_traits@D@@SAJAAPBD$$QAPAPAD$$QAH@Z 0041117d f i libucrt:output.obj
 0001:0001019b       ??$tcstol@AAPB_WPAPA_WH@?$__crt_char_traits@_W@@SAJAAPB_W$$QAPAPA_W$$QAH@Z 0041119b f i libucrt:output.obj
 0001:000101b9       ??$tcstol@PBDPAPADH@?$__crt_char_traits@D@@SAJ$$QAPBD$$QAPAPAD$$QAH@Z 004111b9 f i libucrt:output.obj
 0001:000101d7       ??$tcstol@PB_WPAPA_WH@?$__crt_char_traits@_W@@SAJ$$QAPB_W$$QAPAPA_W$$QAH@Z 004111d7 f i libucrt:output.obj
 0001:000101f5       ??$type_case_integer_parse_into_buffer@I@?$output_processor@DV?$stream_output_adapter@D@__crt_stdio_output@@V?$format_validation_base@DV?$stream_output_adapter@D@__crt_stdio_output@@@2@@__crt_stdio_output@@AAEXII_N@Z 004111f5 f i libucrt:output.obj
 0001:00010268       ??$type_case_integer_parse_into_buffer@I@?$output_processor@DV?$stream_output_adapter@D@__crt_stdio_output@@V?$positional_parameter_base@DV?$stream_output_adapter@D@__crt_stdio_output@@@2@@__crt_stdio_output@@AAEXII_N@Z 00411268 f i libucrt:output.obj
 0001:000102db       ??$type_case_integer_parse_into_buffer@I@?$output_processor@DV?$stream_output_adapter@D@__crt_stdio_output@@V?$standard_base@DV?$stream_output_adapter@D@__crt_stdio_output@@@2@@__crt_stdio_output@@AAEXII_N@Z 004112db f i libucrt:output.obj
 0001:0001034e       ??$type_case_integer_parse_into_buffer@I@?$output_processor@DV?$string_output_adapter@D@__crt_stdio_output@@V?$format_validation_base@DV?$string_output_adapter@D@__crt_stdio_output@@@2@@__crt_stdio_output@@AAEXII_N@Z 0041134e f i libucrt:output.obj
 0001:000103c1       ??$type_case_integer_parse_into_buffer@I@?$output_processor@DV?$string_output_adapter@D@__crt_stdio_output@@V?$positional_parameter_base@DV?$string_output_adapter@D@__crt_stdio_output@@@2@@__crt_stdio_output@@AAEXII_N@Z 004113c1 f i libucrt:output.obj
 0001:00010434       ??$type_case_integer_parse_into_buffer@I@?$output_processor@DV?$string_output_adapter@D@__crt_stdio_output@@V?$standard_base@DV?$string_output_adapter@D@__crt_stdio_output@@@2@@__crt_stdio_output@@AAEXII_N@Z 00411434 f i libucrt:output.obj
 0001:000104a7       ??$type_case_integer_parse_into_buffer@I@?$output_processor@_WV?$stream_output_adapter@_W@__crt_stdio_output@@V?$format_validation_base@_WV?$stream_output_adapter@_W@__crt_stdio_output@@@2@@__crt_stdio_output@@AAEXII_N@Z 004114a7 f i libucrt:output.obj
 0001:0001052e       ??$type_case_integer_parse_into_buffer@I@?$output_processor@_WV?$stream_output_adapter@_W@__crt_stdio_output@@V?$positional_parameter_base@_WV?$stream_output_adapter@_W@__crt_stdio_output@@@2@@__crt_stdio_output@@AAEXII_N@Z 0041152e f i libucrt:output.obj
 0001:000105b5       ??$type_case_integer_parse_into_buffer@I@?$output_processor@_WV?$stream_output_adapter@_W@__crt_stdio_output@@V?$standard_base@_WV?$stream_output_adapter@_W@__crt_stdio_output@@@2@@__crt_stdio_output@@AAEXII_N@Z 004115b5 f i libucrt:output.obj
 0001:0001063c       ??$type_case_integer_parse_into_buffer@I@?$output_processor@_WV?$string_output_adapter@_W@__crt_stdio_output@@V?$format_validation_base@_WV?$string_output_adapter@_W@__crt_stdio_output@@@2@@__crt_stdio_output@@AAEXII_N@Z 0041163c f i libucrt:output.obj
 0001:000106c3       ??$type_case_integer_parse_into_buffer@I@?$output_processor@_WV?$string_output_adapter@_W@__crt_stdio_output@@V?$positional_parameter_base@_WV?$string_output_adapter@_W@__crt_stdio_output@@@2@@__crt_stdio_output@@AAEXII_N@Z 004116c3 f i libucrt:output.obj
 0001:0001074a       ??$type_case_integer_parse_into_buffer@I@?$output_processor@_WV?$string_output_adapter@_W@__crt_stdio_output@@V?$standard_base@_WV?$string_output_adapter@_W@__crt_stdio_output@@@2@@__crt_stdio_output@@AAEXII_N@Z 0041174a f i libucrt:output.obj
 0001:000107d1       ??$type_case_integer_parse_into_buffer@_K@?$output_processor@DV?$stream_output_adapter@D@__crt_stdio_output@@V?$format_validation_base@DV?$stream_output_adapter@D@__crt_stdio_output@@@2@@__crt_stdio_output@@AAEX_KI_N@Z 004117d1 f i libucrt:output.obj
 0001:0001085f       ??$type_case_integer_parse_into_buffer@_K@?$output_processor@DV?$stream_output_adapter@D@__crt_stdio_output@@V?$positional_parameter_base@DV?$stream_output_adapter@D@__crt_stdio_output@@@2@@__crt_stdio_output@@AAEX_KI_N@Z 0041185f f i libucrt:output.obj
 0001:000108ed       ??$type_case_integer_parse_into_buffer@_K@?$output_processor@DV?$stream_output_adapter@D@__crt_stdio_output@@V?$standard_base@DV?$stream_output_adapter@D@__crt_stdio_output@@@2@@__crt_stdio_output@@AAEX_KI_N@Z 004118ed f i libucrt:output.obj
 0001:0001097b       ??$type_case_integer_parse_into_buffer@_K@?$output_processor@DV?$string_output_adapter@D@__crt_stdio_output@@V?$format_validation_base@DV?$string_output_adapter@D@__crt_stdio_output@@@2@@__crt_stdio_output@@AAEX_KI_N@Z 0041197b f i libucrt:output.obj
 0001:00010a09       ??$type_case_integer_parse_into_buffer@_K@?$output_processor@DV?$string_output_adapter@D@__crt_stdio_output@@V?$positional_parameter_base@DV?$string_output_adapter@D@__crt_stdio_output@@@2@@__crt_stdio_output@@AAEX_KI_N@Z 00411a09 f i libucrt:output.obj
 0001:00010a97       ??$type_case_integer_parse_into_buffer@_K@?$output_processor@DV?$string_output_adapter@D@__crt_stdio_output@@V?$standard_base@DV?$string_output_adapter@D@__crt_stdio_output@@@2@@__crt_stdio_output@@AAEX_KI_N@Z 00411a97 f i libucrt:output.obj
 0001:00010b25       ??$type_case_integer_parse_into_buffer@_K@?$output_processor@_WV?$stream_output_adapter@_W@__crt_stdio_output@@V?$format_validation_base@_WV?$stream_output_adapter@_W@__crt_stdio_output@@@2@@__crt_stdio_output@@AAEX_KI_N@Z 00411b25 f i libucrt:output.obj
 0001:00010bc7       ??$type_case_integer_parse_into_buffer@_K@?$output_processor@_WV?$stream_output_adapter@_W@__crt_stdio_output@@V?$positional_parameter_base@_WV?$stream_output_adapter@_W@__crt_stdio_output@@@2@@__crt_stdio_output@@AAEX_KI_N@Z 00411bc7 f i libucrt:output.obj
 0001:00010c69       ??$type_case_integer_parse_into_buffer@_K@?$output_processor@_WV?$stream_output_adapter@_W@__crt_stdio_output@@V?$standard_base@_WV?$stream_output_adapter@_W@__crt_stdio_output@@@2@@__crt_stdio_output@@AAEX_KI_N@Z 00411c69 f i libucrt:output.obj
 0001:00010d0b       ??$type_case_integer_parse_into_buffer@_K@?$output_processor@_WV?$string_output_adapter@_W@__crt_stdio_output@@V?$format_validation_base@_WV?$string_output_adapter@_W@__crt_stdio_output@@@2@@__crt_stdio_output@@AAEX_KI_N@Z 00411d0b f i libucrt:output.obj
 0001:00010dad       ??$type_case_integer_parse_into_buffer@_K@?$output_processor@_WV?$string_output_adapter@_W@__crt_stdio_output@@V?$positional_parameter_base@_WV?$string_output_adapter@_W@__crt_stdio_output@@@2@@__crt_stdio_output@@AAEX_KI_N@Z 00411dad f i libucrt:output.obj
 0001:00010e4f       ??$type_case_integer_parse_into_buffer@_K@?$output_processor@_WV?$string_output_adapter@_W@__crt_stdio_output@@V?$standard_base@_WV?$string_output_adapter@_W@__crt_stdio_output@@@2@@__crt_stdio_output@@AAEX_KI_N@Z 00411e4f f i libucrt:output.obj
 0001:00010ef1       ??$write_multiple_characters@V?$stream_output_adapter@D@__crt_stdio_output@@D@__crt_stdio_output@@YAXABV?$stream_output_adapter@D@0@DHQAH@Z 00411ef1 f i libucrt:output.obj
 0001:00010f2c       ??$write_multiple_characters@V?$stream_output_adapter@_W@__crt_stdio_output@@D@__crt_stdio_output@@YAXABV?$stream_output_adapter@_W@0@DHQAH@Z 00411f2c f i libucrt:output.obj
 0001:00010f6c       ??$write_multiple_characters@V?$string_output_adapter@D@__crt_stdio_output@@D@__crt_stdio_output@@YAXABV?$string_output_adapter@D@0@DHQAH@Z 00411f6c f i libucrt:output.obj
 0001:00010f98       ??$write_multiple_characters@V?$string_output_adapter@_W@__crt_stdio_output@@D@__crt_stdio_output@@YAXABV?$string_output_adapter@_W@0@DHQAH@Z 00411f98 f i libucrt:output.obj
 0001:00011191       ??0?$common_data@D@__crt_stdio_output@@IAE@XZ 00412191 f i libucrt:output.obj
 0001:000111d6       ??0?$common_data@_W@__crt_stdio_output@@IAE@XZ 004121d6 f i libucrt:output.obj
 0001:00011220       ??0?$output_adapter_data@DV?$stream_output_adapter@D@__crt_stdio_output@@@__crt_stdio_output@@IAE@ABV?$stream_output_adapter@D@1@_KQBDQAU__crt_locale_pointers@@QAD@Z 00412220 f i libucrt:output.obj
 0001:0001125c       ??0?$output_adapter_data@DV?$string_output_adapter@D@__crt_stdio_output@@@__crt_stdio_output@@IAE@ABV?$string_output_adapter@D@1@_KQBDQAU__crt_locale_pointers@@QAD@Z 0041225c f i libucrt:output.obj
 0001:00011298       ??0?$output_adapter_data@_WV?$stream_output_adapter@_W@__crt_stdio_output@@@__crt_stdio_output@@IAE@ABV?$stream_output_adapter@_W@1@_KQB_WQAU__crt_locale_pointers@@QAD@Z 00412298 f i libucrt:output.obj
 0001:000112d4       ??0?$output_adapter_data@_WV?$string_output_adapter@_W@__crt_stdio_output@@@__crt_stdio_output@@IAE@ABV?$string_output_adapter@_W@1@_KQB_WQAU__crt_locale_pointers@@QAD@Z 004122d4 f i libucrt:output.obj
 0001:00011310       ??0?$output_processor@DV?$stream_output_adapter@D@__crt_stdio_output@@V?$format_validation_base@DV?$stream_output_adapter@D@__crt_stdio_output@@@2@@__crt_stdio_output@@QAE@ABV?$stream_output_adapter@D@1@_KQBDQAU__crt_locale_pointers@@QAD@Z 00412310 f i libucrt:output.obj
 0001:0001133d       ??0?$output_processor@DV?$stream_output_adapter@D@__crt_stdio_output@@V?$positional_parameter_base@DV?$stream_output_adapter@D@__crt_stdio_output@@@2@@__crt_stdio_output@@QAE@ABV?$stream_output_adapter@D@1@_KQBDQAU__crt_locale_pointers@@QAD@Z 0041233d f i libucrt:output.obj
 0001:00011364       ??0?$output_processor@DV?$stream_output_adapter@D@__crt_stdio_output@@V?$standard_base@DV?$stream_output_adapter@D@__crt_stdio_output@@@2@@__crt_stdio_output@@QAE@ABV?$stream_output_adapter@D@1@_KQBDQAU__crt_locale_pointers@@QAD@Z 00412364 f i libucrt:output.obj
 0001:00011391       ??0?$output_processor@DV?$string_output_adapter@D@__crt_stdio_output@@V?$format_validation_base@DV?$string_output_adapter@D@__crt_stdio_output@@@2@@__crt_stdio_output@@QAE@ABV?$string_output_adapter@D@1@_KQBDQAU__crt_locale_pointers@@QAD@Z 00412391 f i libucrt:output.obj
 0001:000113be       ??0?$output_processor@DV?$string_output_adapter@D@__crt_stdio_output@@V?$positional_parameter_base@DV?$string_output_adapter@D@__crt_stdio_output@@@2@@__crt_stdio_output@@QAE@ABV?$string_output_adapter@D@1@_KQBDQAU__crt_locale_pointers@@QAD@Z 004123be f i libucrt:output.obj
 0001:000113e5       ??0?$output_processor@DV?$string_output_adapter@D@__crt_stdio_output@@V?$standard_base@DV?$string_output_adapter@D@__crt_stdio_output@@@2@@__crt_stdio_output@@QAE@ABV?$string_output_adapter@D@1@_KQBDQAU__crt_locale_pointers@@QAD@Z 004123e5 f i libucrt:output.obj
 0001:00011412       ??0?$output_processor@_WV?$stream_output_adapter@_W@__crt_stdio_output@@V?$format_validation_base@_WV?$stream_output_adapter@_W@__crt_stdio_output@@@2@@__crt_stdio_output@@QAE@ABV?$stream_output_adapter@_W@1@_KQB_WQAU__crt_locale_pointers@@QAD@Z 00412412 f i libucrt:output.obj
 0001:0001143f       ??0?$output_processor@_WV?$stream_output_adapter@_W@__crt_stdio_output@@V?$positional_parameter_base@_WV?$stream_output_adapter@_W@__crt_stdio_output@@@2@@__crt_stdio_output@@QAE@ABV?$stream_output_adapter@_W@1@_KQB_WQAU__crt_locale_pointers@@QAD@Z 0041243f f i libucrt:output.obj
 0001:00011466       ??0?$output_processor@_WV?$stream_output_adapter@_W@__crt_stdio_output@@V?$standard_base@_WV?$stream_output_adapter@_W@__crt_stdio_output@@@2@@__crt_stdio_output@@QAE@ABV?$stream_output_adapter@_W@1@_KQB_WQAU__crt_locale_pointers@@QAD@Z 00412466 f i libucrt:output.obj
 0001:00011493       ??0?$output_processor@_WV?$string_output_adapter@_W@__crt_stdio_output@@V?$format_validation_base@_WV?$string_output_adapter@_W@__crt_stdio_output@@@2@@__crt_stdio_output@@QAE@ABV?$string_output_adapter@_W@1@_KQB_WQAU__crt_locale_pointers@@QAD@Z 00412493 f i libucrt:output.obj
 0001:000114c0       ??0?$output_processor@_WV?$string_output_adapter@_W@__crt_stdio_output@@V?$positional_parameter_base@_WV?$string_output_adapter@_W@__crt_stdio_output@@@2@@__crt_stdio_output@@QAE@ABV?$string_output_adapter@_W@1@_KQB_WQAU__crt_locale_pointers@@QAD@Z 004124c0 f i libucrt:output.obj
 0001:000114e7       ??0?$output_processor@_WV?$string_output_adapter@_W@__crt_stdio_output@@V?$standard_base@_WV?$string_output_adapter@_W@__crt_stdio_output@@@2@@__crt_stdio_output@@QAE@ABV?$string_output_adapter@_W@1@_KQB_WQAU__crt_locale_pointers@@QAD@Z 004124e7 f i libucrt:output.obj
 0001:00011514       ??0?$stream_output_adapter@D@__crt_stdio_output@@QAE@QAU_iobuf@@@Z 00412514 f i libucrt:output.obj
 0001:00011524       ??0?$stream_output_adapter@_W@__crt_stdio_output@@QAE@QAU_iobuf@@@Z 00412524 f i libucrt:output.obj
 0001:00011534       ??0?$string_output_adapter@D@__crt_stdio_output@@QAE@QAU?$string_output_adapter_context@D@1@@Z 00412534 f i libucrt:output.obj
 0001:00011544       ??0?$string_output_adapter@_W@__crt_stdio_output@@QAE@QAU?$string_output_adapter_context@_W@1@@Z 00412544 f i libucrt:output.obj
 0001:00011554       ??0_LocaleUpdate@@QAE@QAU__crt_locale_pointers@@@Z 00412554 f i libucrt:output.obj
 0001:000115d7       ??0__acrt_stdio_temporary_buffering_guard@@QAE@QAU_iobuf@@@Z 004125d7 f i libucrt:output.obj
 0001:000115f5       ??0__crt_deferred_errno_cache@@QAE@XZ 004125f5 f i libucrt:output.obj
 0001:000115fb       ??0__crt_errno_guard@@QAE@QAH@Z 004125fb f i libucrt:output.obj
 0001:00011620       ??0formatting_buffer@__crt_stdio_output@@QAE@XZ 00412620 f i libucrt:output.obj
 0001:00011637       ??1?$common_data@D@__crt_stdio_output@@QAE@XZ 00412637 f i libucrt:output.obj
 0001:0001163f       ??1?$common_data@_W@__crt_stdio_output@@QAE@XZ 0041263f f i libucrt:output.obj
 0001:00011647       ??1?$format_validation_base@DV?$stream_output_adapter@D@__crt_stdio_output@@@__crt_stdio_output@@QAE@XZ 00412647 f i libucrt:output.obj
 0001:0001164f       ??1?$format_validation_base@DV?$string_output_adapter@D@__crt_stdio_output@@@__crt_stdio_output@@QAE@XZ 0041264f f i libucrt:output.obj
 0001:00011657       ??1?$format_validation_base@_WV?$stream_output_adapter@_W@__crt_stdio_output@@@__crt_stdio_output@@QAE@XZ 00412657 f i libucrt:output.obj
 0001:0001165f       ??1?$format_validation_base@_WV?$string_output_adapter@_W@__crt_stdio_output@@@__crt_stdio_output@@QAE@XZ 0041265f f i libucrt:output.obj
 0001:00011667       ??1?$output_adapter_data@DV?$stream_output_adapter@D@__crt_stdio_output@@@__crt_stdio_output@@QAE@XZ 00412667 f i libucrt:output.obj
 0001:0001166f       ??1?$output_adapter_data@DV?$string_output_adapter@D@__crt_stdio_output@@@__crt_stdio_output@@QAE@XZ 0041266f f i libucrt:output.obj
 0001:00011677       ??1?$output_adapter_data@_WV?$stream_output_adapter@_W@__crt_stdio_output@@@__crt_stdio_output@@QAE@XZ 00412677 f i libucrt:output.obj
 0001:0001167f       ??1?$output_adapter_data@_WV?$string_output_adapter@_W@__crt_stdio_output@@@__crt_stdio_output@@QAE@XZ 0041267f f i libucrt:output.obj
 0001:00011687       ??1?$output_processor@DV?$stream_output_adapter@D@__crt_stdio_output@@V?$format_validation_base@DV?$stream_output_adapter@D@__crt_stdio_output@@@2@@__crt_stdio_output@@QAE@XZ 00412687 f i libucrt:output.obj
 0001:0001168f       ??1?$output_processor@DV?$stream_output_adapter@D@__crt_stdio_output@@V?$positional_parameter_base@DV?$stream_output_adapter@D@__crt_stdio_output@@@2@@__crt_stdio_output@@QAE@XZ 0041268f f i libucrt:output.obj
 0001:00011697       ??1?$output_processor@DV?$stream_output_adapter@D@__crt_stdio_output@@V?$standard_base@DV?$stream_output_adapter@D@__crt_stdio_output@@@2@@__crt_stdio_output@@QAE@XZ 00412697 f i libucrt:output.obj
 0001:0001169f       ??1?$output_processor@DV?$string_output_adapter@D@__crt_stdio_output@@V?$format_validation_base@DV?$string_output_adapter@D@__crt_stdio_output@@@2@@__crt_stdio_output@@QAE@XZ 0041269f f i libucrt:output.obj
 0001:000116a7       ??1?$output_processor@DV?$string_output_adapter@D@__crt_stdio_output@@V?$positional_parameter_base@DV?$string_output_adapter@D@__crt_stdio_output@@@2@@__crt_stdio_output@@QAE@XZ 004126a7 f i libucrt:output.obj
 0001:000116af       ??1?$output_processor@DV?$string_output_adapter@D@__crt_stdio_output@@V?$standard_base@DV?$string_output_adapter@D@__crt_stdio_output@@@2@@__crt_stdio_output@@QAE@XZ 004126af f i libucrt:output.obj
 0001:000116b7       ??1?$output_processor@_WV?$stream_output_adapter@_W@__crt_stdio_output@@V?$format_validation_base@_WV?$stream_output_adapter@_W@__crt_stdio_output@@@2@@__crt_stdio_output@@QAE@XZ 004126b7 f i libucrt:output.obj
 0001:000116bf       ??1?$output_processor@_WV?$stream_output_adapter@_W@__crt_stdio_output@@V?$positional_parameter_base@_WV?$stream_output_adapter@_W@__crt_stdio_output@@@2@@__crt_stdio_output@@QAE@XZ 004126bf f i libucrt:output.obj
 0001:000116c7       ??1?$output_processor@_WV?$stream_output_adapter@_W@__crt_stdio_output@@V?$standard_base@_WV?$stream_output_adapter@_W@__crt_stdio_output@@@2@@__crt_stdio_output@@QAE@XZ 004126c7 f i libucrt:output.obj
 0001:000116cf       ??1?$output_processor@_WV?$string_output_adapter@_W@__crt_stdio_output@@V?$format_validation_base@_WV?$string_output_adapter@_W@__crt_stdio_output@@@2@@__crt_stdio_output@@QAE@XZ 004126cf f i libucrt:output.obj
 0001:000116d7       ??1?$output_processor@_WV?$string_output_adapter@_W@__crt_stdio_output@@V?$positional_parameter_base@_WV?$string_output_adapter@_W@__crt_stdio_output@@@2@@__crt_stdio_output@@QAE@XZ 004126d7 f i libucrt:output.obj
 0001:000116df       ??1?$output_processor@_WV?$string_output_adapter@_W@__crt_stdio_output@@V?$standard_base@_WV?$string_output_adapter@_W@__crt_stdio_output@@@2@@__crt_stdio_output@@QAE@XZ 004126df f i libucrt:output.obj
 0001:000116e7       ??1?$positional_parameter_base@DV?$stream_output_adapter@D@__crt_stdio_output@@@__crt_stdio_output@@QAE@XZ 004126e7 f i libucrt:output.obj
 0001:000116ef       ??1?$positional_parameter_base@DV?$string_output_adapter@D@__crt_stdio_output@@@__crt_stdio_output@@QAE@XZ 004126ef f i libucrt:output.obj
 0001:000116f7       ??1?$positional_parameter_base@_WV?$stream_output_adapter@_W@__crt_stdio_output@@@__crt_stdio_output@@QAE@XZ 004126f7 f i libucrt:output.obj
 0001:000116ff       ??1?$positional_parameter_base@_WV?$string_output_adapter@_W@__crt_stdio_output@@@__crt_stdio_output@@QAE@XZ 004126ff f i libucrt:output.obj
 0001:00011707       ??1?$standard_base@DV?$stream_output_adapter@D@__crt_stdio_output@@@__crt_stdio_output@@QAE@XZ 00412707 f i libucrt:output.obj
 0001:0001170f       ??1?$standard_base@DV?$string_output_adapter@D@__crt_stdio_output@@@__crt_stdio_output@@QAE@XZ 0041270f f i libucrt:output.obj
 0001:00011717       ??1?$standard_base@_WV?$stream_output_adapter@_W@__crt_stdio_output@@@__crt_stdio_output@@QAE@XZ 00412717 f i libucrt:output.obj
 0001:0001171f       ??1?$standard_base@_WV?$string_output_adapter@_W@__crt_stdio_output@@@__crt_stdio_output@@QAE@XZ 0041271f f i libucrt:output.obj
 0001:00011727       ??1_LocaleUpdate@@QAE@XZ   00412727 f i libucrt:output.obj
 0001:00011737       ??1__acrt_stdio_temporary_buffering_guard@@QAE@XZ 00412737 f i libucrt:output.obj
 0001:00011746       ??1__crt_errno_guard@@QAE@XZ 00412746 f i libucrt:output.obj
 0001:00011757       ??1formatting_buffer@__crt_stdio_output@@QAE@XZ 00412757 f i libucrt:output.obj
 0001:00011771       ??4?$__crt_unique_heap_ptr@DU__crt_internal_free_policy@@@@QAEAAV0@$$QAV0@@Z 00412771 f i libucrt:output.obj
 0001:00011795       ??A?$spectre_mitigated_lookup_table@Ustate_transition_pair@__crt_stdio_output@@$0IA@@__crt_stdio_output@@QBEABUstate_transition_pair@1@I@Z 00412795 f i libucrt:output.obj
 0001:00011cf7       ?GetLocaleT@_LocaleUpdate@@QAEPAU__crt_locale_pointers@@XZ 00412cf7 f i libucrt:output.obj
 0001:00011cfb       ?adjust_hexit@?$output_processor@DV?$stream_output_adapter@D@__crt_stdio_output@@V?$format_validation_base@DV?$stream_output_adapter@D@__crt_stdio_output@@@2@@__crt_stdio_output@@CADH_N@Z 00412cfb f i libucrt:output.obj
 0001:00011d0f       ?adjust_hexit@?$output_processor@DV?$stream_output_adapter@D@__crt_stdio_output@@V?$positional_parameter_base@DV?$stream_output_adapter@D@__crt_stdio_output@@@2@@__crt_stdio_output@@CADH_N@Z 00412d0f f i libucrt:output.obj
 0001:00011d23       ?adjust_hexit@?$output_processor@DV?$stream_output_adapter@D@__crt_stdio_output@@V?$standard_base@DV?$stream_output_adapter@D@__crt_stdio_output@@@2@@__crt_stdio_output@@CADH_N@Z 00412d23 f i libucrt:output.obj
 0001:00011d37       ?adjust_hexit@?$output_processor@DV?$string_output_adapter@D@__crt_stdio_output@@V?$format_validation_base@DV?$string_output_adapter@D@__crt_stdio_output@@@2@@__crt_stdio_output@@CADH_N@Z 00412d37 f i libucrt:output.obj
 0001:00011d4b       ?adjust_hexit@?$output_processor@DV?$string_output_adapter@D@__crt_stdio_output@@V?$positional_parameter_base@DV?$string_output_adapter@D@__crt_stdio_output@@@2@@__crt_stdio_output@@CADH_N@Z 00412d4b f i libucrt:output.obj
 0001:00011d5f       ?adjust_hexit@?$output_processor@DV?$string_output_adapter@D@__crt_stdio_output@@V?$standard_base@DV?$string_output_adapter@D@__crt_stdio_output@@@2@@__crt_stdio_output@@CADH_N@Z 00412d5f f i libucrt:output.obj
 0001:00011d73       ?adjust_hexit@?$output_processor@_WV?$stream_output_adapter@_W@__crt_stdio_output@@V?$format_validation_base@_WV?$stream_output_adapter@_W@__crt_stdio_output@@@2@@__crt_stdio_output@@CADH_N@Z 00412d73 f i libucrt:output.obj
 0001:00011d87       ?adjust_hexit@?$output_processor@_WV?$stream_output_adapter@_W@__crt_stdio_output@@V?$positional_parameter_base@_WV?$stream_output_adapter@_W@__crt_stdio_output@@@2@@__crt_stdio_output@@CADH_N@Z 00412d87 f i libucrt:output.obj
 0001:00011d9b       ?adjust_hexit@?$output_processor@_WV?$stream_output_adapter@_W@__crt_stdio_output@@V?$standard_base@_WV?$stream_output_adapter@_W@__crt_stdio_output@@@2@@__crt_stdio_output@@CADH_N@Z 00412d9b f i libucrt:output.obj
 0001:00011daf       ?adjust_hexit@?$output_processor@_WV?$string_output_adapter@_W@__crt_stdio_output@@V?$format_validation_base@_WV?$string_output_adapter@_W@__crt_stdio_output@@@2@@__crt_stdio_output@@CADH_N@Z 00412daf f i libucrt:output.obj
 0001:00011dc3       ?adjust_hexit@?$output_processor@_WV?$string_output_adapter@_W@__crt_stdio_output@@V?$positional_parameter_base@_WV?$string_output_adapter@_W@__crt_stdio_output@@@2@@__crt_stdio_output@@CADH_N@Z 00412dc3 f i libucrt:output.obj
 0001:00011dd7       ?adjust_hexit@?$output_processor@_WV?$string_output_adapter@_W@__crt_stdio_output@@V?$standard_base@_WV?$string_output_adapter@_W@__crt_stdio_output@@@2@@__crt_stdio_output@@CADH_N@Z 00412dd7 f i libucrt:output.obj
 0001:00011deb       ?advance_to_next_pass@?$positional_parameter_base@DV?$stream_output_adapter@D@__crt_stdio_output@@@__crt_stdio_output@@IAE_NXZ 00412deb f i libucrt:output.obj
 0001:00011e37       ?advance_to_next_pass@?$positional_parameter_base@DV?$string_output_adapter@D@__crt_stdio_output@@@__crt_stdio_output@@IAE_NXZ 00412e37 f i libucrt:output.obj
 0001:00011e83       ?advance_to_next_pass@?$positional_parameter_base@_WV?$stream_output_adapter@_W@__crt_stdio_output@@@__crt_stdio_output@@IAE_NXZ 00412e83 f i libucrt:output.obj
 0001:00011ecf       ?advance_to_next_pass@?$positional_parameter_base@_WV?$string_output_adapter@_W@__crt_stdio_output@@@__crt_stdio_output@@IAE_NXZ 00412ecf f i libucrt:output.obj
 0001:00011f1b       ?advance_to_next_pass@?$standard_base@DV?$stream_output_adapter@D@__crt_stdio_output@@@__crt_stdio_output@@IAE_NXZ 00412f1b f i libucrt:output.obj
 0001:00011f2c       ?advance_to_next_pass@?$standard_base@DV?$string_output_adapter@D@__crt_stdio_output@@@__crt_stdio_output@@IAE_NXZ 00412f2c f i libucrt:output.obj
 0001:00011f3d       ?advance_to_next_pass@?$standard_base@_WV?$stream_output_adapter@_W@__crt_stdio_output@@@__crt_stdio_output@@IAE_NXZ 00412f3d f i libucrt:output.obj
 0001:00011f4e       ?advance_to_next_pass@?$standard_base@_WV?$string_output_adapter@_W@__crt_stdio_output@@@__crt_stdio_output@@IAE_NXZ 00412f4e f i libucrt:output.obj
 0001:00011f60       ?crop_zeroes@__crt_stdio_output@@YAXPADQAU__crt_locale_pointers@@@Z 00412f60 f i libucrt:output.obj
 0001:00011fe1       ?find_next_state@?$output_processor@DV?$stream_output_adapter@D@__crt_stdio_output@@V?$format_validation_base@DV?$stream_output_adapter@D@__crt_stdio_output@@@2@@__crt_stdio_output@@ABE?AW4state@2@DW432@@Z 00412fe1 f i libucrt:output.obj
 0001:00012018       ?find_next_state@?$output_processor@DV?$stream_output_adapter@D@__crt_stdio_output@@V?$positional_parameter_base@DV?$stream_output_adapter@D@__crt_stdio_output@@@2@@__crt_stdio_output@@ABE?AW4state@2@DW432@@Z 00413018 f i libucrt:output.obj
 0001:0001204f       ?find_next_state@?$output_processor@DV?$stream_output_adapter@D@__crt_stdio_output@@V?$standard_base@DV?$stream_output_adapter@D@__crt_stdio_output@@@2@@__crt_stdio_output@@ABE?AW4state@2@DW432@@Z 0041304f f i libucrt:output.obj
 0001:00012086       ?find_next_state@?$output_processor@DV?$string_output_adapter@D@__crt_stdio_output@@V?$format_validation_base@DV?$string_output_adapter@D@__crt_stdio_output@@@2@@__crt_stdio_output@@ABE?AW4state@2@DW432@@Z 00413086 f i libucrt:output.obj
 0001:000120bd       ?find_next_state@?$output_processor@DV?$string_output_adapter@D@__crt_stdio_output@@V?$positional_parameter_base@DV?$string_output_adapter@D@__crt_stdio_output@@@2@@__crt_stdio_output@@ABE?AW4state@2@DW432@@Z 004130bd f i libucrt:output.obj
 0001:000120f4       ?find_next_state@?$output_processor@DV?$string_output_adapter@D@__crt_stdio_output@@V?$standard_base@DV?$string_output_adapter@D@__crt_stdio_output@@@2@@__crt_stdio_output@@ABE?AW4state@2@DW432@@Z 004130f4 f i libucrt:output.obj
 0001:0001212b       ?find_next_state@?$output_processor@_WV?$stream_output_adapter@_W@__crt_stdio_output@@V?$format_validation_base@_WV?$stream_output_adapter@_W@__crt_stdio_output@@@2@@__crt_stdio_output@@ABE?AW4state@2@_WW432@@Z 0041312b f i libucrt:output.obj
 0001:00012161       ?find_next_state@?$output_processor@_WV?$stream_output_adapter@_W@__crt_stdio_output@@V?$positional_parameter_base@_WV?$stream_output_adapter@_W@__crt_stdio_output@@@2@@__crt_stdio_output@@ABE?AW4state@2@_WW432@@Z 00413161 f i libucrt:output.obj
 0001:00012197       ?find_next_state@?$output_processor@_WV?$stream_output_adapter@_W@__crt_stdio_output@@V?$standard_base@_WV?$stream_output_adapter@_W@__crt_stdio_output@@@2@@__crt_stdio_output@@ABE?AW4state@2@_WW432@@Z 00413197 f i libucrt:output.obj
 0001:000121cd       ?find_next_state@?$output_processor@_WV?$string_output_adapter@_W@__crt_stdio_output@@V?$format_validation_base@_WV?$string_output_adapter@_W@__crt_stdio_output@@@2@@__crt_stdio_output@@ABE?AW4state@2@_WW432@@Z 004131cd f i libucrt:output.obj
 0001:00012203       ?find_next_state@?$output_processor@_WV?$string_output_adapter@_W@__crt_stdio_output@@V?$positional_parameter_base@_WV?$string_output_adapter@_W@__crt_stdio_output@@@2@@__crt_stdio_output@@ABE?AW4state@2@_WW432@@Z 00413203 f i libucrt:output.obj
 0001:00012239       ?find_next_state@?$output_processor@_WV?$string_output_adapter@_W@__crt_stdio_output@@V?$standard_base@_WV?$string_output_adapter@_W@__crt_stdio_output@@@2@@__crt_stdio_output@@ABE?AW4state@2@_WW432@@Z 00413239 f i libucrt:output.obj
 0001:00012270       ?force_decimal_point@__crt_stdio_output@@YAXPADQAU__crt_locale_pointers@@@Z 00413270 f i libucrt:output.obj
 0001:000122d5       ?get@__crt_deferred_errno_cache@@QAEAAHXZ 004132d5 f i libucrt:output.obj
 0001:000122e9       ?get_parameter_type@?$positional_parameter_base@DV?$stream_output_adapter@D@__crt_stdio_output@@@__crt_stdio_output@@CA?AW4parameter_type@12@F@Z 004132e9 f i libucrt:output.obj
 0001:000122ed       ?get_parameter_type@?$positional_parameter_base@DV?$stream_output_adapter@D@__crt_stdio_output@@@__crt_stdio_output@@CA?AW4parameter_type@12@G@Z 004132ed f i libucrt:output.obj
 0001:000122f1       ?get_parameter_type@?$positional_parameter_base@DV?$stream_output_adapter@D@__crt_stdio_output@@@__crt_stdio_output@@CA?AW4parameter_type@12@H@Z 004132f1 f i libucrt:output.obj
 0001:000122f5       ?get_parameter_type@?$positional_parameter_base@DV?$stream_output_adapter@D@__crt_stdio_output@@@__crt_stdio_output@@CA?AW4parameter_type@12@I@Z 004132f5 f i libucrt:output.obj
 0001:000122f9       ?get_parameter_type@?$positional_parameter_base@DV?$stream_output_adapter@D@__crt_stdio_output@@@__crt_stdio_output@@CA?AW4parameter_type@12@U_CRT_DOUBLE@@@Z 004132f9 f i libucrt:output.obj
 0001:000122fd       ?get_parameter_type@?$positional_parameter_base@DV?$stream_output_adapter@D@__crt_stdio_output@@@__crt_stdio_output@@CA?AW4parameter_type@12@_J@Z 004132fd f i libucrt:output.obj
 0001:00012301       ?get_parameter_type@?$positional_parameter_base@DV?$stream_output_adapter@D@__crt_stdio_output@@@__crt_stdio_output@@CA?AW4parameter_type@12@_K@Z 00413301 f i libucrt:output.obj
 0001:00012305       ?get_parameter_type@?$positional_parameter_base@DV?$stream_output_adapter@D@__crt_stdio_output@@@__crt_stdio_output@@CA?AW4parameter_type@12@_W@Z 00413305 f i libucrt:output.obj
 0001:00012309       ?get_parameter_type@?$positional_parameter_base@DV?$string_output_adapter@D@__crt_stdio_output@@@__crt_stdio_output@@CA?AW4parameter_type@12@F@Z 00413309 f i libucrt:output.obj
 0001:0001230d       ?get_parameter_type@?$positional_parameter_base@DV?$string_output_adapter@D@__crt_stdio_output@@@__crt_stdio_output@@CA?AW4parameter_type@12@G@Z 0041330d f i libucrt:output.obj
 0001:00012311       ?get_parameter_type@?$positional_parameter_base@DV?$string_output_adapter@D@__crt_stdio_output@@@__crt_stdio_output@@CA?AW4parameter_type@12@H@Z 00413311 f i libucrt:output.obj
 0001:00012315       ?get_parameter_type@?$positional_parameter_base@DV?$string_output_adapter@D@__crt_stdio_output@@@__crt_stdio_output@@CA?AW4parameter_type@12@I@Z 00413315 f i libucrt:output.obj
 0001:00012319       ?get_parameter_type@?$positional_parameter_base@DV?$string_output_adapter@D@__crt_stdio_output@@@__crt_stdio_output@@CA?AW4parameter_type@12@U_CRT_DOUBLE@@@Z 00413319 f i libucrt:output.obj
 0001:0001231d       ?get_parameter_type@?$positional_parameter_base@DV?$string_output_adapter@D@__crt_stdio_output@@@__crt_stdio_output@@CA?AW4parameter_type@12@_J@Z 0041331d f i libucrt:output.obj
 0001:00012321       ?get_parameter_type@?$positional_parameter_base@DV?$string_output_adapter@D@__crt_stdio_output@@@__crt_stdio_output@@CA?AW4parameter_type@12@_K@Z 00413321 f i libucrt:output.obj
 0001:00012325       ?get_parameter_type@?$positional_parameter_base@DV?$string_output_adapter@D@__crt_stdio_output@@@__crt_stdio_output@@CA?AW4parameter_type@12@_W@Z 00413325 f i libucrt:output.obj
 0001:00012329       ?get_parameter_type@?$positional_parameter_base@_WV?$stream_output_adapter@_W@__crt_stdio_output@@@__crt_stdio_output@@CA?AW4parameter_type@12@F@Z 00413329 f i libucrt:output.obj
 0001:0001232d       ?get_parameter_type@?$positional_parameter_base@_WV?$stream_output_adapter@_W@__crt_stdio_output@@@__crt_stdio_output@@CA?AW4parameter_type@12@G@Z 0041332d f i libucrt:output.obj
 0001:00012331       ?get_parameter_type@?$positional_parameter_base@_WV?$stream_output_adapter@_W@__crt_stdio_output@@@__crt_stdio_output@@CA?AW4parameter_type@12@H@Z 00413331 f i libucrt:output.obj
 0001:00012335       ?get_parameter_type@?$positional_parameter_base@_WV?$stream_output_adapter@_W@__crt_stdio_output@@@__crt_stdio_output@@CA?AW4parameter_type@12@I@Z 00413335 f i libucrt:output.obj
 0001:00012339       ?get_parameter_type@?$positional_parameter_base@_WV?$stream_output_adapter@_W@__crt_stdio_output@@@__crt_stdio_output@@CA?AW4parameter_type@12@U_CRT_DOUBLE@@@Z 00413339 f i libucrt:output.obj
 0001:0001233d       ?get_parameter_type@?$positional_parameter_base@_WV?$stream_output_adapter@_W@__crt_stdio_output@@@__crt_stdio_output@@CA?AW4parameter_type@12@_J@Z 0041333d f i libucrt:output.obj
 0001:00012341       ?get_parameter_type@?$positional_parameter_base@_WV?$stream_output_adapter@_W@__crt_stdio_output@@@__crt_stdio_output@@CA?AW4parameter_type@12@_K@Z 00413341 f i libucrt:output.obj
 0001:00012345       ?get_parameter_type@?$positional_parameter_base@_WV?$stream_output_adapter@_W@__crt_stdio_output@@@__crt_stdio_output@@CA?AW4parameter_type@12@_W@Z 00413345 f i libucrt:output.obj
 0001:00012349       ?get_parameter_type@?$positional_parameter_base@_WV?$string_output_adapter@_W@__crt_stdio_output@@@__crt_stdio_output@@CA?AW4parameter_type@12@F@Z 00413349 f i libucrt:output.obj
 0001:0001234d       ?get_parameter_type@?$positional_parameter_base@_WV?$string_output_adapter@_W@__crt_stdio_output@@@__crt_stdio_output@@CA?AW4parameter_type@12@G@Z 0041334d f i libucrt:output.obj
 0001:00012351       ?get_parameter_type@?$positional_parameter_base@_WV?$string_output_adapter@_W@__crt_stdio_output@@@__crt_stdio_output@@CA?AW4parameter_type@12@H@Z 00413351 f i libucrt:output.obj
 0001:00012355       ?get_parameter_type@?$positional_parameter_base@_WV?$string_output_adapter@_W@__crt_stdio_output@@@__crt_stdio_output@@CA?AW4parameter_type@12@I@Z 00413355 f i libucrt:output.obj
 0001:00012359       ?get_parameter_type@?$positional_parameter_base@_WV?$string_output_adapter@_W@__crt_stdio_output@@@__crt_stdio_output@@CA?AW4parameter_type@12@U_CRT_DOUBLE@@@Z 00413359 f i libucrt:output.obj
 0001:0001235d       ?get_parameter_type@?$positional_parameter_base@_WV?$string_output_adapter@_W@__crt_stdio_output@@@__crt_stdio_output@@CA?AW4parameter_type@12@_J@Z 0041335d f i libucrt:output.obj
 0001:00012361       ?get_parameter_type@?$positional_parameter_base@_WV?$string_output_adapter@_W@__crt_stdio_output@@@__crt_stdio_output@@CA?AW4parameter_type@12@_K@Z 00413361 f i libucrt:output.obj
 0001:00012365       ?get_parameter_type@?$positional_parameter_base@_WV?$string_output_adapter@_W@__crt_stdio_output@@@__crt_stdio_output@@CA?AW4parameter_type@12@_W@Z 00413365 f i libucrt:output.obj
 0001:00012369       ?has_flag@?$output_processor@DV?$stream_output_adapter@D@__crt_stdio_output@@V?$format_validation_base@DV?$stream_output_adapter@D@__crt_stdio_output@@@2@@__crt_stdio_output@@ABE_NI@Z 00413369 f i libucrt:output.obj
 0001:0001237b       ?has_flag@?$output_processor@DV?$stream_output_adapter@D@__crt_stdio_output@@V?$positional_parameter_base@DV?$stream_output_adapter@D@__crt_stdio_output@@@2@@__crt_stdio_output@@ABE_NI@Z 0041337b f i libucrt:output.obj
 0001:0001238d       ?has_flag@?$output_processor@DV?$stream_output_adapter@D@__crt_stdio_output@@V?$standard_base@DV?$stream_output_adapter@D@__crt_stdio_output@@@2@@__crt_stdio_output@@ABE_NI@Z 0041338d f i libucrt:output.obj
 0001:0001239f       ?has_flag@?$output_processor@DV?$string_output_adapter@D@__crt_stdio_output@@V?$format_validation_base@DV?$string_output_adapter@D@__crt_stdio_output@@@2@@__crt_stdio_output@@ABE_NI@Z 0041339f f i libucrt:output.obj
 0001:000123b1       ?has_flag@?$output_processor@DV?$string_output_adapter@D@__crt_stdio_output@@V?$positional_parameter_base@DV?$string_output_adapter@D@__crt_stdio_output@@@2@@__crt_stdio_output@@ABE_NI@Z 004133b1 f i libucrt:output.obj
 0001:000123c3       ?has_flag@?$output_processor@DV?$string_output_adapter@D@__crt_stdio_output@@V?$standard_base@DV?$string_output_adapter@D@__crt_stdio_output@@@2@@__crt_stdio_output@@ABE_NI@Z 004133c3 f i libucrt:output.obj
 0001:000123d5       ?has_flag@?$output_processor@_WV?$stream_output_adapter@_W@__crt_stdio_output@@V?$format_validation_base@_WV?$stream_output_adapter@_W@__crt_stdio_output@@@2@@__crt_stdio_output@@ABE_NI@Z 004133d5 f i libucrt:output.obj
 0001:000123e7       ?has_flag@?$output_processor@_WV?$stream_output_adapter@_W@__crt_stdio_output@@V?$positional_parameter_base@_WV?$stream_output_adapter@_W@__crt_stdio_output@@@2@@__crt_stdio_output@@ABE_NI@Z 004133e7 f i libucrt:output.obj
 0001:000123f9       ?has_flag@?$output_processor@_WV?$stream_output_adapter@_W@__crt_stdio_output@@V?$standard_base@_WV?$stream_output_adapter@_W@__crt_stdio_output@@@2@@__crt_stdio_output@@ABE_NI@Z 004133f9 f i libucrt:output.obj
 0001:0001240b       ?has_flag@?$output_processor@_WV?$string_output_adapter@_W@__crt_stdio_output@@V?$format_validation_base@_WV?$string_output_adapter@_W@__crt_stdio_output@@@2@@__crt_stdio_output@@ABE_NI@Z 0041340b f i libucrt:output.obj
 0001:0001241d       ?has_flag@?$output_processor@_WV?$string_output_adapter@_W@__crt_stdio_output@@V?$positional_parameter_base@_WV?$string_output_adapter@_W@__crt_stdio_output@@@2@@__crt_stdio_output@@ABE_NI@Z 0041341d f i libucrt:output.obj
 0001:0001242f       ?has_flag@?$output_processor@_WV?$string_output_adapter@_W@__crt_stdio_output@@V?$standard_base@_WV?$string_output_adapter@_W@__crt_stdio_output@@@2@@__crt_stdio_output@@ABE_NI@Z 0041342f f i libucrt:output.obj
 0001:00012441       ?is_positional_parameter_reappearance_consistent@?$positional_parameter_base@DV?$stream_output_adapter@D@__crt_stdio_output@@@__crt_stdio_output@@AAE_NABUparameter_data@12@W4parameter_type@12@DW4length_modifier@2@@Z 00413441 f i libucrt:output.obj
 0001:0001255b       ?is_positional_parameter_reappearance_consistent@?$positional_parameter_base@DV?$string_output_adapter@D@__crt_stdio_output@@@__crt_stdio_output@@AAE_NABUparameter_data@12@W4parameter_type@12@DW4length_modifier@2@@Z 0041355b f i libucrt:output.obj
 0001:00012675       ?is_positional_parameter_reappearance_consistent@?$positional_parameter_base@_WV?$stream_output_adapter@_W@__crt_stdio_output@@@__crt_stdio_output@@AAE_NABUparameter_data@12@W4parameter_type@12@_WW4length_modifier@2@@Z 00413675 f i libucrt:output.obj
 0001:00012790       ?is_positional_parameter_reappearance_consistent@?$positional_parameter_base@_WV?$string_output_adapter@_W@__crt_stdio_output@@@__crt_stdio_output@@AAE_NABUparameter_data@12@W4parameter_type@12@_WW4length_modifier@2@@Z 00413790 f i libucrt:output.obj
 0001:000128ab       ?narrow_null_string@?$output_processor@DV?$stream_output_adapter@D@__crt_stdio_output@@V?$format_validation_base@DV?$stream_output_adapter@D@__crt_stdio_output@@@2@@__crt_stdio_output@@CAPADXZ 004138ab f i libucrt:output.obj
 0001:000128b1       ?narrow_null_string@?$output_processor@DV?$stream_output_adapter@D@__crt_stdio_output@@V?$positional_parameter_base@DV?$stream_output_adapter@D@__crt_stdio_output@@@2@@__crt_stdio_output@@CAPADXZ 004138b1 f i libucrt:output.obj
 0001:000128b7       ?narrow_null_string@?$output_processor@DV?$stream_output_adapter@D@__crt_stdio_output@@V?$standard_base@DV?$stream_output_adapter@D@__crt_stdio_output@@@2@@__crt_stdio_output@@CAPADXZ 004138b7 f i libucrt:output.obj
 0001:000128bd       ?narrow_null_string@?$output_processor@DV?$string_output_adapter@D@__crt_stdio_output@@V?$format_validation_base@DV?$string_output_adapter@D@__crt_stdio_output@@@2@@__crt_stdio_output@@CAPADXZ 004138bd f i libucrt:output.obj
 0001:000128c3       ?narrow_null_string@?$output_processor@DV?$string_output_adapter@D@__crt_stdio_output@@V?$positional_parameter_base@DV?$string_output_adapter@D@__crt_stdio_output@@@2@@__crt_stdio_output@@CAPADXZ 004138c3 f i libucrt:output.obj
 0001:000128c9       ?narrow_null_string@?$output_processor@DV?$string_output_adapter@D@__crt_stdio_output@@V?$standard_base@DV?$string_output_adapter@D@__crt_stdio_output@@@2@@__crt_stdio_output@@CAPADXZ 004138c9 f i libucrt:output.obj
 0001:000128cf       ?narrow_null_string@?$output_processor@_WV?$stream_output_adapter@_W@__crt_stdio_output@@V?$format_validation_base@_WV?$stream_output_adapter@_W@__crt_stdio_output@@@2@@__crt_stdio_output@@CAPADXZ 004138cf f i libucrt:output.obj
 0001:000128d5       ?narrow_null_string@?$output_processor@_WV?$stream_output_adapter@_W@__crt_stdio_output@@V?$positional_parameter_base@_WV?$stream_output_adapter@_W@__crt_stdio_output@@@2@@__crt_stdio_output@@CAPADXZ 004138d5 f i libucrt:output.obj
 0001:000128db       ?narrow_null_string@?$output_processor@_WV?$stream_output_adapter@_W@__crt_stdio_output@@V?$standard_base@_WV?$stream_output_adapter@_W@__crt_stdio_output@@@2@@__crt_stdio_output@@CAPADXZ 004138db f i libucrt:output.obj
 0001:000128e1       ?narrow_null_string@?$output_processor@_WV?$string_output_adapter@_W@__crt_stdio_output@@V?$format_validation_base@_WV?$string_output_adapter@_W@__crt_stdio_output@@@2@@__crt_stdio_output@@CAPADXZ 004138e1 f i libucrt:output.obj
 0001:000128e7       ?narrow_null_string@?$output_processor@_WV?$string_output_adapter@_W@__crt_stdio_output@@V?$positional_parameter_base@_WV?$string_output_adapter@_W@__crt_stdio_output@@@2@@__crt_stdio_output@@CAPADXZ 004138e7 f i libucrt:output.obj
 0001:000128ed       ?narrow_null_string@?$output_processor@_WV?$string_output_adapter@_W@__crt_stdio_output@@V?$standard_base@_WV?$string_output_adapter@_W@__crt_stdio_output@@@2@@__crt_stdio_output@@CAPADXZ 004138ed f i libucrt:output.obj
 0001:000128f3       ?parse_int_from_format_string@?$output_processor@DV?$stream_output_adapter@D@__crt_stdio_output@@V?$format_validation_base@DV?$stream_output_adapter@D@__crt_stdio_output@@@2@@__crt_stdio_output@@AAE_NQAH@Z 004138f3 f i libucrt:output.obj
 0001:00012967       ?parse_int_from_format_string@?$output_processor@DV?$stream_output_adapter@D@__crt_stdio_output@@V?$positional_parameter_base@DV?$stream_output_adapter@D@__crt_stdio_output@@@2@@__crt_stdio_output@@AAE_NQAH@Z 00413967 f i libucrt:output.obj
 0001:000129db       ?parse_int_from_format_string@?$output_processor@DV?$stream_output_adapter@D@__crt_stdio_output@@V?$standard_base@DV?$stream_output_adapter@D@__crt_stdio_output@@@2@@__crt_stdio_output@@AAE_NQAH@Z 004139db f i libucrt:output.obj
 0001:00012a4f       ?parse_int_from_format_string@?$output_processor@DV?$string_output_adapter@D@__crt_stdio_output@@V?$format_validation_base@DV?$string_output_adapter@D@__crt_stdio_output@@@2@@__crt_stdio_output@@AAE_NQAH@Z 00413a4f f i libucrt:output.obj
 0001:00012ac3       ?parse_int_from_format_string@?$output_processor@DV?$string_output_adapter@D@__crt_stdio_output@@V?$positional_parameter_base@DV?$string_output_adapter@D@__crt_stdio_output@@@2@@__crt_stdio_output@@AAE_NQAH@Z 00413ac3 f i libucrt:output.obj
 0001:00012b37       ?parse_int_from_format_string@?$output_processor@DV?$string_output_adapter@D@__crt_stdio_output@@V?$standard_base@DV?$string_output_adapter@D@__crt_stdio_output@@@2@@__crt_stdio_output@@AAE_NQAH@Z 00413b37 f i libucrt:output.obj
 0001:00012bab       ?parse_int_from_format_string@?$output_processor@_WV?$stream_output_adapter@_W@__crt_stdio_output@@V?$format_validation_base@_WV?$stream_output_adapter@_W@__crt_stdio_output@@@2@@__crt_stdio_output@@AAE_NQAH@Z 00413bab f i libucrt:output.obj
 0001:00012c21       ?parse_int_from_format_string@?$output_processor@_WV?$stream_output_adapter@_W@__crt_stdio_output@@V?$positional_parameter_base@_WV?$stream_output_adapter@_W@__crt_stdio_output@@@2@@__crt_stdio_output@@AAE_NQAH@Z 00413c21 f i libucrt:output.obj
 0001:00012c97       ?parse_int_from_format_string@?$output_processor@_WV?$stream_output_adapter@_W@__crt_stdio_output@@V?$standard_base@_WV?$stream_output_adapter@_W@__crt_stdio_output@@@2@@__crt_stdio_output@@AAE_NQAH@Z 00413c97 f i libucrt:output.obj
 0001:00012d0d       ?parse_int_from_format_string@?$output_processor@_WV?$string_output_adapter@_W@__crt_stdio_output@@V?$format_validation_base@_WV?$string_output_adapter@_W@__crt_stdio_output@@@2@@__crt_stdio_output@@AAE_NQAH@Z 00413d0d f i libucrt:output.obj
 0001:00012d83       ?parse_int_from_format_string@?$output_processor@_WV?$string_output_adapter@_W@__crt_stdio_output@@V?$positional_parameter_base@_WV?$string_output_adapter@_W@__crt_stdio_output@@@2@@__crt_stdio_output@@AAE_NQAH@Z 00413d83 f i libucrt:output.obj
 0001:00012df9       ?parse_int_from_format_string@?$output_processor@_WV?$string_output_adapter@_W@__crt_stdio_output@@V?$standard_base@_WV?$string_output_adapter@_W@__crt_stdio_output@@@2@@__crt_stdio_output@@AAE_NQAH@Z 00413df9 f i libucrt:output.obj
 0001:00012e6f       ?process@?$output_processor@DV?$stream_output_adapter@D@__crt_stdio_output@@V?$format_validation_base@DV?$stream_output_adapter@D@__crt_stdio_output@@@2@@__crt_stdio_output@@QAEHXZ 00413e6f f i libucrt:output.obj
 0001:00012f93       ?process@?$output_processor@DV?$stream_output_adapter@D@__crt_stdio_output@@V?$positional_parameter_base@DV?$stream_output_adapter@D@__crt_stdio_output@@@2@@__crt_stdio_output@@QAEHXZ 00413f93 f i libucrt:output.obj
 0001:000130c3       ?process@?$output_processor@DV?$stream_output_adapter@D@__crt_stdio_output@@V?$standard_base@DV?$stream_output_adapter@D@__crt_stdio_output@@@2@@__crt_stdio_output@@QAEHXZ 004140c3 f i libucrt:output.obj
 0001:000131d7       ?process@?$output_processor@DV?$string_output_adapter@D@__crt_stdio_output@@V?$format_validation_base@DV?$string_output_adapter@D@__crt_stdio_output@@@2@@__crt_stdio_output@@QAEHXZ 004141d7 f i libucrt:output.obj
 0001:000132fb       ?process@?$output_processor@DV?$string_output_adapter@D@__crt_stdio_output@@V?$positional_parameter_base@DV?$string_output_adapter@D@__crt_stdio_output@@@2@@__crt_stdio_output@@QAEHXZ 004142fb f i libucrt:output.obj
 0001:0001342b       ?process@?$output_processor@DV?$string_output_adapter@D@__crt_stdio_output@@V?$standard_base@DV?$string_output_adapter@D@__crt_stdio_output@@@2@@__crt_stdio_output@@QAEHXZ 0041442b f i libucrt:output.obj
 0001:0001353f       ?process@?$output_processor@_WV?$stream_output_adapter@_W@__crt_stdio_output@@V?$format_validation_base@_WV?$stream_output_adapter@_W@__crt_stdio_output@@@2@@__crt_stdio_output@@QAEHXZ 0041453f f i libucrt:output.obj
 0001:00013667       ?process@?$output_processor@_WV?$stream_output_adapter@_W@__crt_stdio_output@@V?$positional_parameter_base@_WV?$stream_output_adapter@_W@__crt_stdio_output@@@2@@__crt_stdio_output@@QAEHXZ 00414667 f i libucrt:output.obj
 0001:0001379b       ?process@?$output_processor@_WV?$stream_output_adapter@_W@__crt_stdio_output@@V?$standard_base@_WV?$stream_output_adapter@_W@__crt_stdio_output@@@2@@__crt_stdio_output@@QAEHXZ 0041479b f i libucrt:output.obj
 0001:000138b7       ?process@?$output_processor@_WV?$string_output_adapter@_W@__crt_stdio_output@@V?$format_validation_base@_WV?$string_output_adapter@_W@__crt_stdio_output@@@2@@__crt_stdio_output@@QAEHXZ 004148b7 f i libucrt:output.obj
 0001:000139df       ?process@?$output_processor@_WV?$string_output_adapter@_W@__crt_stdio_output@@V?$positional_parameter_base@_WV?$string_output_adapter@_W@__crt_stdio_output@@@2@@__crt_stdio_output@@QAEHXZ 004149df f i libucrt:output.obj
 0001:00013b13       ?process@?$output_processor@_WV?$string_output_adapter@_W@__crt_stdio_output@@V?$standard_base@_WV?$string_output_adapter@_W@__crt_stdio_output@@@2@@__crt_stdio_output@@QAEHXZ 00414b13 f i libucrt:output.obj
 0001:00013c2f       ?set_flag@?$output_processor@DV?$stream_output_adapter@D@__crt_stdio_output@@V?$format_validation_base@DV?$stream_output_adapter@D@__crt_stdio_output@@@2@@__crt_stdio_output@@AAEXI@Z 00414c2f f i libucrt:output.obj
 0001:00013c3e       ?set_flag@?$output_processor@DV?$stream_output_adapter@D@__crt_stdio_output@@V?$positional_parameter_base@DV?$stream_output_adapter@D@__crt_stdio_output@@@2@@__crt_stdio_output@@AAEXI@Z 00414c3e f i libucrt:output.obj
 0001:00013c4d       ?set_flag@?$output_processor@DV?$stream_output_adapter@D@__crt_stdio_output@@V?$standard_base@DV?$stream_output_adapter@D@__crt_stdio_output@@@2@@__crt_stdio_output@@AAEXI@Z 00414c4d f i libucrt:output.obj
 0001:00013c5c       ?set_flag@?$output_processor@DV?$string_output_adapter@D@__crt_stdio_output@@V?$format_validation_base@DV?$string_output_adapter@D@__crt_stdio_output@@@2@@__crt_stdio_output@@AAEXI@Z 00414c5c f i libucrt:output.obj
 0001:00013c6b       ?set_flag@?$output_processor@DV?$string_output_adapter@D@__crt_stdio_output@@V?$positional_parameter_base@DV?$string_output_adapter@D@__crt_stdio_output@@@2@@__crt_stdio_output@@AAEXI@Z 00414c6b f i libucrt:output.obj
 0001:00013c7a       ?set_flag@?$output_processor@DV?$string_output_adapter@D@__crt_stdio_output@@V?$standard_base@DV?$string_output_adapter@D@__crt_stdio_output@@@2@@__crt_stdio_output@@AAEXI@Z 00414c7a f i libucrt:output.obj
 0001:00013c89       ?set_flag@?$output_processor@_WV?$stream_output_adapter@_W@__crt_stdio_output@@V?$format_validation_base@_WV?$stream_output_adapter@_W@__crt_stdio_output@@@2@@__crt_stdio_output@@AAEXI@Z 00414c89 f i libucrt:output.obj
 0001:00013c98       ?set_flag@?$output_processor@_WV?$stream_output_adapter@_W@__crt_stdio_output@@V?$positional_parameter_base@_WV?$stream_output_adapter@_W@__crt_stdio_output@@@2@@__crt_stdio_output@@AAEXI@Z 00414c98 f i libucrt:output.obj
 0001:00013ca7       ?set_flag@?$output_processor@_WV?$stream_output_adapter@_W@__crt_stdio_output@@V?$standard_base@_WV?$stream_output_adapter@_W@__crt_stdio_output@@@2@@__crt_stdio_output@@AAEXI@Z 00414ca7 f i libucrt:output.obj
 0001:00013cb6       ?set_flag@?$output_processor@_WV?$string_output_adapter@_W@__crt_stdio_output@@V?$format_validation_base@_WV?$string_output_adapter@_W@__crt_stdio_output@@@2@@__crt_stdio_output@@AAEXI@Z 00414cb6 f i libucrt:output.obj
 0001:00013cc5       ?set_flag@?$output_processor@_WV?$string_output_adapter@_W@__crt_stdio_output@@V?$positional_parameter_base@_WV?$string_output_adapter@_W@__crt_stdio_output@@@2@@__crt_stdio_output@@AAEXI@Z 00414cc5 f i libucrt:output.obj
 0001:00013cd4       ?set_flag@?$output_processor@_WV?$string_output_adapter@_W@__crt_stdio_output@@V?$standard_base@_WV?$string_output_adapter@_W@__crt_stdio_output@@@2@@__crt_stdio_output@@AAEXI@Z 00414cd4 f i libucrt:output.obj
 0001:00013ce3       ?should_format@?$positional_parameter_base@DV?$stream_output_adapter@D@__crt_stdio_output@@@__crt_stdio_output@@IAE_NXZ 00414ce3 f i libucrt:output.obj
 0001:00013cf9       ?should_format@?$positional_parameter_base@DV?$string_output_adapter@D@__crt_stdio_output@@@__crt_stdio_output@@IAE_NXZ 00414cf9 f i libucrt:output.obj
 0001:00013d0f       ?should_format@?$positional_parameter_base@_WV?$stream_output_adapter@_W@__crt_stdio_output@@@__crt_stdio_output@@IAE_NXZ 00414d0f f i libucrt:output.obj
 0001:00013d25       ?should_format@?$positional_parameter_base@_WV?$string_output_adapter@_W@__crt_stdio_output@@@__crt_stdio_output@@IAE_NXZ 00414d25 f i libucrt:output.obj
 0001:00013d3b       ?should_format@?$standard_base@DV?$stream_output_adapter@D@__crt_stdio_output@@@__crt_stdio_output@@IAE_NXZ 00414d3b f i libucrt:output.obj
 0001:00013d3e       ?should_format@?$standard_base@DV?$string_output_adapter@D@__crt_stdio_output@@@__crt_stdio_output@@IAE_NXZ 00414d3e f i libucrt:output.obj
 0001:00013d41       ?should_format@?$standard_base@_WV?$stream_output_adapter@_W@__crt_stdio_output@@@__crt_stdio_output@@IAE_NXZ 00414d41 f i libucrt:output.obj
 0001:00013d44       ?should_format@?$standard_base@_WV?$string_output_adapter@_W@__crt_stdio_output@@@__crt_stdio_output@@IAE_NXZ 00414d44 f i libucrt:output.obj
 0001:00013d47       ?should_skip_normal_state_processing@?$positional_parameter_base@DV?$stream_output_adapter@D@__crt_stdio_output@@@__crt_stdio_output@@IAE_NXZ 00414d47 f i libucrt:output.obj
 0001:00013d6f       ?should_skip_normal_state_processing@?$positional_parameter_base@DV?$string_output_adapter@D@__crt_stdio_output@@@__crt_stdio_output@@IAE_NXZ 00414d6f f i libucrt:output.obj
 0001:00013d97       ?should_skip_normal_state_processing@?$positional_parameter_base@_WV?$stream_output_adapter@_W@__crt_stdio_output@@@__crt_stdio_output@@IAE_NXZ 00414d97 f i libucrt:output.obj
 0001:00013dbf       ?should_skip_normal_state_processing@?$positional_parameter_base@_WV?$string_output_adapter@_W@__crt_stdio_output@@@__crt_stdio_output@@IAE_NXZ 00414dbf f i libucrt:output.obj
 0001:00013de7       ?should_skip_normal_state_processing@?$standard_base@DV?$stream_output_adapter@D@__crt_stdio_output@@@__crt_stdio_output@@IAE_NXZ 00414de7 f i libucrt:output.obj
 0001:00013dea       ?should_skip_normal_state_processing@?$standard_base@DV?$string_output_adapter@D@__crt_stdio_output@@@__crt_stdio_output@@IAE_NXZ 00414dea f i libucrt:output.obj
 0001:00013ded       ?should_skip_normal_state_processing@?$standard_base@_WV?$stream_output_adapter@_W@__crt_stdio_output@@@__crt_stdio_output@@IAE_NXZ 00414ded f i libucrt:output.obj
 0001:00013df0       ?should_skip_normal_state_processing@?$standard_base@_WV?$string_output_adapter@_W@__crt_stdio_output@@@__crt_stdio_output@@IAE_NXZ 00414df0 f i libucrt:output.obj
 0001:00013df3       ?should_skip_type_state_output@?$positional_parameter_base@DV?$stream_output_adapter@D@__crt_stdio_output@@@__crt_stdio_output@@IBE_NXZ 00414df3 f i libucrt:output.obj
 0001:00013e0a       ?should_skip_type_state_output@?$positional_parameter_base@DV?$string_output_adapter@D@__crt_stdio_output@@@__crt_stdio_output@@IBE_NXZ 00414e0a f i libucrt:output.obj
 0001:00013e21       ?should_skip_type_state_output@?$positional_parameter_base@_WV?$stream_output_adapter@_W@__crt_stdio_output@@@__crt_stdio_output@@IBE_NXZ 00414e21 f i libucrt:output.obj
 0001:00013e38       ?should_skip_type_state_output@?$positional_parameter_base@_WV?$string_output_adapter@_W@__crt_stdio_output@@@__crt_stdio_output@@IBE_NXZ 00414e38 f i libucrt:output.obj
 0001:00013e4f       ?should_skip_type_state_output@?$standard_base@DV?$stream_output_adapter@D@__crt_stdio_output@@@__crt_stdio_output@@IBE_NXZ 00414e4f f i libucrt:output.obj
 0001:00013e52       ?should_skip_type_state_output@?$standard_base@DV?$string_output_adapter@D@__crt_stdio_output@@@__crt_stdio_output@@IBE_NXZ 00414e52 f i libucrt:output.obj
 0001:00013e55       ?should_skip_type_state_output@?$standard_base@_WV?$stream_output_adapter@_W@__crt_stdio_output@@@__crt_stdio_output@@IBE_NXZ 00414e55 f i libucrt:output.obj
 0001:00013e58       ?should_skip_type_state_output@?$standard_base@_WV?$string_output_adapter@_W@__crt_stdio_output@@@__crt_stdio_output@@IBE_NXZ 00414e58 f i libucrt:output.obj
 0001:00013e5b       ?state_case_dot@?$output_processor@DV?$stream_output_adapter@D@__crt_stdio_output@@V?$format_validation_base@DV?$stream_output_adapter@D@__crt_stdio_output@@@2@@__crt_stdio_output@@AAE_NXZ 00414e5b f i libucrt:output.obj
 0001:00013e62       ?state_case_dot@?$output_processor@DV?$stream_output_adapter@D@__crt_stdio_output@@V?$positional_parameter_base@DV?$stream_output_adapter@D@__crt_stdio_output@@@2@@__crt_stdio_output@@AAE_NXZ 00414e62 f i libucrt:output.obj
 0001:00013e69       ?state_case_dot@?$output_processor@DV?$stream_output_adapter@D@__crt_stdio_output@@V?$standard_base@DV?$stream_output_adapter@D@__crt_stdio_output@@@2@@__crt_stdio_output@@AAE_NXZ 00414e69 f i libucrt:output.obj
 0001:00013e70       ?state_case_dot@?$output_processor@DV?$string_output_adapter@D@__crt_stdio_output@@V?$format_validation_base@DV?$string_output_adapter@D@__crt_stdio_output@@@2@@__crt_stdio_output@@AAE_NXZ 00414e70 f i libucrt:output.obj
 0001:00013e77       ?state_case_dot@?$output_processor@DV?$string_output_adapter@D@__crt_stdio_output@@V?$positional_parameter_base@DV?$string_output_adapter@D@__crt_stdio_output@@@2@@__crt_stdio_output@@AAE_NXZ 00414e77 f i libucrt:output.obj
 0001:00013e7e       ?state_case_dot@?$output_processor@DV?$string_output_adapter@D@__crt_stdio_output@@V?$standard_base@DV?$string_output_adapter@D@__crt_stdio_output@@@2@@__crt_stdio_output@@AAE_NXZ 00414e7e f i libucrt:output.obj
 0001:00013e85       ?state_case_dot@?$output_processor@_WV?$stream_output_adapter@_W@__crt_stdio_output@@V?$format_validation_base@_WV?$stream_output_adapter@_W@__crt_stdio_output@@@2@@__crt_stdio_output@@AAE_NXZ 00414e85 f i libucrt:output.obj
 0001:00013e8c       ?state_case_dot@?$output_processor@_WV?$stream_output_adapter@_W@__crt_stdio_output@@V?$positional_parameter_base@_WV?$stream_output_adapter@_W@__crt_stdio_output@@@2@@__crt_stdio_output@@AAE_NXZ 00414e8c f i libucrt:output.obj
 0001:00013e93       ?state_case_dot@?$output_processor@_WV?$stream_output_adapter@_W@__crt_stdio_output@@V?$standard_base@_WV?$stream_output_adapter@_W@__crt_stdio_output@@@2@@__crt_stdio_output@@AAE_NXZ 00414e93 f i libucrt:output.obj
 0001:00013e9a       ?state_case_dot@?$output_processor@_WV?$string_output_adapter@_W@__crt_stdio_output@@V?$format_validation_base@_WV?$string_output_adapter@_W@__crt_stdio_output@@@2@@__crt_stdio_output@@AAE_NXZ 00414e9a f i libucrt:output.obj
 0001:00013ea1       ?state_case_dot@?$output_processor@_WV?$string_output_adapter@_W@__crt_stdio_output@@V?$positional_parameter_base@_WV?$string_output_adapter@_W@__crt_stdio_output@@@2@@__crt_stdio_output@@AAE_NXZ 00414ea1 f i libucrt:output.obj
 0001:00013ea8       ?state_case_dot@?$output_processor@_WV?$string_output_adapter@_W@__crt_stdio_output@@V?$standard_base@_WV?$string_output_adapter@_W@__crt_stdio_output@@@2@@__crt_stdio_output@@AAE_NXZ 00414ea8 f i libucrt:output.obj
 0001:00013eaf       ?state_case_flag@?$output_processor@DV?$stream_output_adapter@D@__crt_stdio_output@@V?$format_validation_base@DV?$stream_output_adapter@D@__crt_stdio_output@@@2@@__crt_stdio_output@@AAE_NXZ 00414eaf f i libucrt:output.obj
 0001:00013eec       ?state_case_flag@?$output_processor@DV?$stream_output_adapter@D@__crt_stdio_output@@V?$positional_parameter_base@DV?$stream_output_adapter@D@__crt_stdio_output@@@2@@__crt_stdio_output@@AAE_NXZ 00414eec f i libucrt:output.obj
 0001:00013f29       ?state_case_flag@?$output_processor@DV?$stream_output_adapter@D@__crt_stdio_output@@V?$standard_base@DV?$stream_output_adapter@D@__crt_stdio_output@@@2@@__crt_stdio_output@@AAE_NXZ 00414f29 f i libucrt:output.obj
 0001:00013f66       ?state_case_flag@?$output_processor@DV?$string_output_adapter@D@__crt_stdio_output@@V?$format_validation_base@DV?$string_output_adapter@D@__crt_stdio_output@@@2@@__crt_stdio_output@@AAE_NXZ 00414f66 f i libucrt:output.obj
 0001:00013fa3       ?state_case_flag@?$output_processor@DV?$string_output_adapter@D@__crt_stdio_output@@V?$positional_parameter_base@DV?$string_output_adapter@D@__crt_stdio_output@@@2@@__crt_stdio_output@@AAE_NXZ 00414fa3 f i libucrt:output.obj
 0001:00013fe0       ?state_case_flag@?$output_processor@DV?$string_output_adapter@D@__crt_stdio_output@@V?$standard_base@DV?$string_output_adapter@D@__crt_stdio_output@@@2@@__crt_stdio_output@@AAE_NXZ 00414fe0 f i libucrt:output.obj
 0001:0001401d       ?state_case_flag@?$output_processor@_WV?$stream_output_adapter@_W@__crt_stdio_output@@V?$format_validation_base@_WV?$stream_output_adapter@_W@__crt_stdio_output@@@2@@__crt_stdio_output@@AAE_NXZ 0041501d f i libucrt:output.obj
 0001:0001405a       ?state_case_flag@?$output_processor@_WV?$stream_output_adapter@_W@__crt_stdio_output@@V?$positional_parameter_base@_WV?$stream_output_adapter@_W@__crt_stdio_output@@@2@@__crt_stdio_output@@AAE_NXZ 0041505a f i libucrt:output.obj
 0001:00014097       ?state_case_flag@?$output_processor@_WV?$stream_output_adapter@_W@__crt_stdio_output@@V?$standard_base@_WV?$stream_output_adapter@_W@__crt_stdio_output@@@2@@__crt_stdio_output@@AAE_NXZ 00415097 f i libucrt:output.obj
 0001:000140d4       ?state_case_flag@?$output_processor@_WV?$string_output_adapter@_W@__crt_stdio_output@@V?$format_validation_base@_WV?$string_output_adapter@_W@__crt_stdio_output@@@2@@__crt_stdio_output@@AAE_NXZ 004150d4 f i libucrt:output.obj
 0001:00014111       ?state_case_flag@?$output_processor@_WV?$string_output_adapter@_W@__crt_stdio_output@@V?$positional_parameter_base@_WV?$string_output_adapter@_W@__crt_stdio_output@@@2@@__crt_stdio_output@@AAE_NXZ 00415111 f i libucrt:output.obj
 0001:0001414e       ?state_case_flag@?$output_processor@_WV?$string_output_adapter@_W@__crt_stdio_output@@V?$standard_base@_WV?$string_output_adapter@_W@__crt_stdio_output@@@2@@__crt_stdio_output@@AAE_NXZ 0041514e f i libucrt:output.obj
 0001:0001418b       ?state_case_normal@?$output_processor@DV?$stream_output_adapter@D@__crt_stdio_output@@V?$format_validation_base@DV?$stream_output_adapter@D@__crt_stdio_output@@@2@@__crt_stdio_output@@AAE_NXZ 0041518b f i libucrt:output.obj
 0001:000141aa       ?state_case_normal@?$output_processor@DV?$stream_output_adapter@D@__crt_stdio_output@@V?$positional_parameter_base@DV?$stream_output_adapter@D@__crt_stdio_output@@@2@@__crt_stdio_output@@AAE_NXZ 004151aa f i libucrt:output.obj
 0001:000141db       ?state_case_normal@?$output_processor@DV?$stream_output_adapter@D@__crt_stdio_output@@V?$standard_base@DV?$stream_output_adapter@D@__crt_stdio_output@@@2@@__crt_stdio_output@@AAE_NXZ 004151db f i libucrt:output.obj
 0001:000141fa       ?state_case_normal@?$output_processor@DV?$string_output_adapter@D@__crt_stdio_output@@V?$format_validation_base@DV?$string_output_adapter@D@__crt_stdio_output@@@2@@__crt_stdio_output@@AAE_NXZ 004151fa f i libucrt:output.obj
 0001:00014219       ?state_case_normal@?$output_processor@DV?$string_output_adapter@D@__crt_stdio_output@@V?$positional_parameter_base@DV?$string_output_adapter@D@__crt_stdio_output@@@2@@__crt_stdio_output@@AAE_NXZ 00415219 f i libucrt:output.obj
 0001:0001424a       ?state_case_normal@?$output_processor@DV?$string_output_adapter@D@__crt_stdio_output@@V?$standard_base@DV?$string_output_adapter@D@__crt_stdio_output@@@2@@__crt_stdio_output@@AAE_NXZ 0041524a f i libucrt:output.obj
 0001:00014269       ?state_case_normal@?$output_processor@_WV?$stream_output_adapter@_W@__crt_stdio_output@@V?$format_validation_base@_WV?$stream_output_adapter@_W@__crt_stdio_output@@@2@@__crt_stdio_output@@AAE_NXZ 00415269 f i libucrt:output.obj
 0001:00014288       ?state_case_normal@?$output_processor@_WV?$stream_output_adapter@_W@__crt_stdio_output@@V?$positional_parameter_base@_WV?$stream_output_adapter@_W@__crt_stdio_output@@@2@@__crt_stdio_output@@AAE_NXZ 00415288 f i libucrt:output.obj
 0001:000142b9       ?state_case_normal@?$output_processor@_WV?$stream_output_adapter@_W@__crt_stdio_output@@V?$standard_base@_WV?$stream_output_adapter@_W@__crt_stdio_output@@@2@@__crt_stdio_output@@AAE_NXZ 004152b9 f i libucrt:output.obj
 0001:000142d8       ?state_case_normal@?$output_processor@_WV?$string_output_adapter@_W@__crt_stdio_output@@V?$format_validation_base@_WV?$string_output_adapter@_W@__crt_stdio_output@@@2@@__crt_stdio_output@@AAE_NXZ 004152d8 f i libucrt:output.obj
 0001:000142f7       ?state_case_normal@?$output_processor@_WV?$string_output_adapter@_W@__crt_stdio_output@@V?$positional_parameter_base@_WV?$string_output_adapter@_W@__crt_stdio_output@@@2@@__crt_stdio_output@@AAE_NXZ 004152f7 f i libucrt:output.obj
 0001:00014328       ?state_case_normal@?$output_processor@_WV?$string_output_adapter@_W@__crt_stdio_output@@V?$standard_base@_WV?$string_output_adapter@_W@__crt_stdio_output@@@2@@__crt_stdio_output@@AAE_NXZ 00415328 f i libucrt:output.obj
 0001:00014347       ?state_case_normal_common@?$output_processor@DV?$stream_output_adapter@D@__crt_stdio_output@@V?$format_validation_base@DV?$stream_output_adapter@D@__crt_stdio_output@@@2@@__crt_stdio_output@@AAE_NXZ 00415347 f i libucrt:output.obj
 0001:00014381       ?state_case_normal_common@?$output_processor@DV?$stream_output_adapter@D@__crt_stdio_output@@V?$positional_parameter_base@DV?$stream_output_adapter@D@__crt_stdio_output@@@2@@__crt_stdio_output@@AAE_NXZ 00415381 f i libucrt:output.obj
 0001:000143bb       ?state_case_normal_common@?$output_processor@DV?$stream_output_adapter@D@__crt_stdio_output@@V?$standard_base@DV?$stream_output_adapter@D@__crt_stdio_output@@@2@@__crt_stdio_output@@AAE_NXZ 004153bb f i libucrt:output.obj
 0001:000143f5       ?state_case_normal_common@?$output_processor@DV?$string_output_adapter@D@__crt_stdio_output@@V?$format_validation_base@DV?$string_output_adapter@D@__crt_stdio_output@@@2@@__crt_stdio_output@@AAE_NXZ 004153f5 f i libucrt:output.obj
 0001:0001441f       ?state_case_normal_common@?$output_processor@DV?$string_output_adapter@D@__crt_stdio_output@@V?$positional_parameter_base@DV?$string_output_adapter@D@__crt_stdio_output@@@2@@__crt_stdio_output@@AAE_NXZ 0041541f f i libucrt:output.obj
 0001:00014449       ?state_case_normal_common@?$output_processor@DV?$string_output_adapter@D@__crt_stdio_output@@V?$standard_base@DV?$string_output_adapter@D@__crt_stdio_output@@@2@@__crt_stdio_output@@AAE_NXZ 00415449 f i libucrt:output.obj
 0001:00014473       ?state_case_normal_common@?$output_processor@_WV?$stream_output_adapter@_W@__crt_stdio_output@@V?$format_validation_base@_WV?$stream_output_adapter@_W@__crt_stdio_output@@@2@@__crt_stdio_output@@AAE_NXZ 00415473 f i libucrt:output.obj
 0001:0001449d       ?state_case_normal_common@?$output_processor@_WV?$stream_output_adapter@_W@__crt_stdio_output@@V?$positional_parameter_base@_WV?$stream_output_adapter@_W@__crt_stdio_output@@@2@@__crt_stdio_output@@AAE_NXZ 0041549d f i libucrt:output.obj
 0001:000144c7       ?state_case_normal_common@?$output_processor@_WV?$stream_output_adapter@_W@__crt_stdio_output@@V?$standard_base@_WV?$stream_output_adapter@_W@__crt_stdio_output@@@2@@__crt_stdio_output@@AAE_NXZ 004154c7 f i libucrt:output.obj
 0001:000144f1       ?state_case_normal_common@?$output_processor@_WV?$string_output_adapter@_W@__crt_stdio_output@@V?$format_validation_base@_WV?$string_output_adapter@_W@__crt_stdio_output@@@2@@__crt_stdio_output@@AAE_NXZ 004154f1 f i libucrt:output.obj
 0001:0001450c       ?state_case_normal_common@?$output_processor@_WV?$string_output_adapter@_W@__crt_stdio_output@@V?$positional_parameter_base@_WV?$string_output_adapter@_W@__crt_stdio_output@@@2@@__crt_stdio_output@@AAE_NXZ 0041550c f i libucrt:output.obj
 0001:00014527       ?state_case_normal_common@?$output_processor@_WV?$string_output_adapter@_W@__crt_stdio_output@@V?$standard_base@_WV?$string_output_adapter@_W@__crt_stdio_output@@@2@@__crt_stdio_output@@AAE_NXZ 00415527 f i libucrt:output.obj
 0001:00014542       ?state_case_normal_tchar@?$output_processor@DV?$stream_output_adapter@D@__crt_stdio_output@@V?$format_validation_base@DV?$stream_output_adapter@D@__crt_stdio_output@@@2@@__crt_stdio_output@@AAE_ND@Z 00415542 f i libucrt:output.obj
 0001:000145af       ?state_case_normal_tchar@?$output_processor@DV?$stream_output_adapter@D@__crt_stdio_output@@V?$positional_parameter_base@DV?$stream_output_adapter@D@__crt_stdio_output@@@2@@__crt_stdio_output@@AAE_ND@Z 004155af f i libucrt:output.obj
 0001:0001461c       ?state_case_normal_tchar@?$output_processor@DV?$stream_output_adapter@D@__crt_stdio_output@@V?$standard_base@DV?$stream_output_adapter@D@__crt_stdio_output@@@2@@__crt_stdio_output@@AAE_ND@Z 0041561c f i libucrt:output.obj
 0001:00014689       ?state_case_normal_tchar@?$output_processor@DV?$string_output_adapter@D@__crt_stdio_output@@V?$format_validation_base@DV?$string_output_adapter@D@__crt_stdio_output@@@2@@__crt_stdio_output@@AAE_ND@Z 00415689 f i libucrt:output.obj
 0001:000146ed       ?state_case_normal_tchar@?$output_processor@DV?$string_output_adapter@D@__crt_stdio_output@@V?$positional_parameter_base@DV?$string_output_adapter@D@__crt_stdio_output@@@2@@__crt_stdio_output@@AAE_ND@Z 004156ed f i libucrt:output.obj
 0001:00014751       ?state_case_normal_tchar@?$output_processor@DV?$string_output_adapter@D@__crt_stdio_output@@V?$standard_base@DV?$string_output_adapter@D@__crt_stdio_output@@@2@@__crt_stdio_output@@AAE_ND@Z 00415751 f i libucrt:output.obj
 0001:000147b5       ?state_case_normal_tchar@?$output_processor@_WV?$stream_output_adapter@_W@__crt_stdio_output@@V?$format_validation_base@_WV?$stream_output_adapter@_W@__crt_stdio_output@@@2@@__crt_stdio_output@@AAE_N_W@Z 004157b5 f i libucrt:output.obj
 0001:000147be       ?state_case_normal_tchar@?$output_processor@_WV?$stream_output_adapter@_W@__crt_stdio_output@@V?$positional_parameter_base@_WV?$stream_output_adapter@_W@__crt_stdio_output@@@2@@__crt_stdio_output@@AAE_N_W@Z 004157be f i libucrt:output.obj
 0001:000147c7       ?state_case_normal_tchar@?$output_processor@_WV?$stream_output_adapter@_W@__crt_stdio_output@@V?$standard_base@_WV?$stream_output_adapter@_W@__crt_stdio_output@@@2@@__crt_stdio_output@@AAE_N_W@Z 004157c7 f i libucrt:output.obj
 0001:000147d0       ?state_case_normal_tchar@?$output_processor@_WV?$string_output_adapter@_W@__crt_stdio_output@@V?$format_validation_base@_WV?$string_output_adapter@_W@__crt_stdio_output@@@2@@__crt_stdio_output@@AAE_N_W@Z 004157d0 f i libucrt:output.obj
 0001:000147d9       ?state_case_normal_tchar@?$output_processor@_WV?$string_output_adapter@_W@__crt_stdio_output@@V?$positional_parameter_base@_WV?$string_output_adapter@_W@__crt_stdio_output@@@2@@__crt_stdio_output@@AAE_N_W@Z 004157d9 f i libucrt:output.obj
 0001:000147e2       ?state_case_normal_tchar@?$output_processor@_WV?$string_output_adapter@_W@__crt_stdio_output@@V?$standard_base@_WV?$string_output_adapter@_W@__crt_stdio_output@@@2@@__crt_stdio_output@@AAE_N_W@Z 004157e2 f i libucrt:output.obj
 0001:000147eb       ?state_case_percent@?$output_processor@DV?$stream_output_adapter@D@__crt_stdio_output@@V?$format_validation_base@DV?$stream_output_adapter@D@__crt_stdio_output@@@2@@__crt_stdio_output@@AAE_NXZ 004157eb f i libucrt:output.obj
 0001:00014803       ?state_case_percent@?$output_processor@DV?$stream_output_adapter@D@__crt_stdio_output@@V?$positional_parameter_base@DV?$stream_output_adapter@D@__crt_stdio_output@@@2@@__crt_stdio_output@@AAE_NXZ 00415803 f i libucrt:output.obj
 0001:0001481b       ?state_case_percent@?$output_processor@DV?$stream_output_adapter@D@__crt_stdio_output@@V?$standard_base@DV?$stream_output_adapter@D@__crt_stdio_output@@@2@@__crt_stdio_output@@AAE_NXZ 0041581b f i libucrt:output.obj
 0001:00014833       ?state_case_percent@?$output_processor@DV?$string_output_adapter@D@__crt_stdio_output@@V?$format_validation_base@DV?$string_output_adapter@D@__crt_stdio_output@@@2@@__crt_stdio_output@@AAE_NXZ 00415833 f i libucrt:output.obj
 0001:0001484b       ?state_case_percent@?$output_processor@DV?$string_output_adapter@D@__crt_stdio_output@@V?$positional_parameter_base@DV?$string_output_adapter@D@__crt_stdio_output@@@2@@__crt_stdio_output@@AAE_NXZ 0041584b f i libucrt:output.obj
 0001:00014863       ?state_case_percent@?$output_processor@DV?$string_output_adapter@D@__crt_stdio_output@@V?$standard_base@DV?$string_output_adapter@D@__crt_stdio_output@@@2@@__crt_stdio_output@@AAE_NXZ 00415863 f i libucrt:output.obj
 0001:0001487b       ?state_case_percent@?$output_processor@_WV?$stream_output_adapter@_W@__crt_stdio_output@@V?$format_validation_base@_WV?$stream_output_adapter@_W@__crt_stdio_output@@@2@@__crt_stdio_output@@AAE_NXZ 0041587b f i libucrt:output.obj
 0001:00014893       ?state_case_percent@?$output_processor@_WV?$stream_output_adapter@_W@__crt_stdio_output@@V?$positional_parameter_base@_WV?$stream_output_adapter@_W@__crt_stdio_output@@@2@@__crt_stdio_output@@AAE_NXZ 00415893 f i libucrt:output.obj
 0001:000148ab       ?state_case_percent@?$output_processor@_WV?$stream_output_adapter@_W@__crt_stdio_output@@V?$standard_base@_WV?$stream_output_adapter@_W@__crt_stdio_output@@@2@@__crt_stdio_output@@AAE_NXZ 004158ab f i libucrt:output.obj
 0001:000148c3       ?state_case_percent@?$output_processor@_WV?$string_output_adapter@_W@__crt_stdio_output@@V?$format_validation_base@_WV?$string_output_adapter@_W@__crt_stdio_output@@@2@@__crt_stdio_output@@AAE_NXZ 004158c3 f i libucrt:output.obj
 0001:000148db       ?state_case_percent@?$output_processor@_WV?$string_output_adapter@_W@__crt_stdio_output@@V?$positional_parameter_base@_WV?$string_output_adapter@_W@__crt_stdio_output@@@2@@__crt_stdio_output@@AAE_NXZ 004158db f i libucrt:output.obj
 0001:000148f3       ?state_case_percent@?$output_processor@_WV?$string_output_adapter@_W@__crt_stdio_output@@V?$standard_base@_WV?$string_output_adapter@_W@__crt_stdio_output@@@2@@__crt_stdio_output@@AAE_NXZ 004158f3 f i libucrt:output.obj
 0001:0001490b       ?state_case_precision@?$output_processor@DV?$stream_output_adapter@D@__crt_stdio_output@@V?$format_validation_base@DV?$stream_output_adapter@D@__crt_stdio_output@@@2@@__crt_stdio_output@@AAE_NXZ 0041590b f i libucrt:output.obj
 0001:00014931       ?state_case_precision@?$output_processor@DV?$stream_output_adapter@D@__crt_stdio_output@@V?$positional_parameter_base@DV?$stream_output_adapter@D@__crt_stdio_output@@@2@@__crt_stdio_output@@AAE_NXZ 00415931 f i libucrt:output.obj
 0001:0001496b       ?state_case_precision@?$output_processor@DV?$stream_output_adapter@D@__crt_stdio_output@@V?$standard_base@DV?$stream_output_adapter@D@__crt_stdio_output@@@2@@__crt_stdio_output@@AAE_NXZ 0041596b f i libucrt:output.obj
 0001:00014991       ?state_case_precision@?$output_processor@DV?$string_output_adapter@D@__crt_stdio_output@@V?$format_validation_base@DV?$string_output_adapter@D@__crt_stdio_output@@@2@@__crt_stdio_output@@AAE_NXZ 00415991 f i libucrt:output.obj
 0001:000149b7       ?state_case_precision@?$output_processor@DV?$string_output_adapter@D@__crt_stdio_output@@V?$positional_parameter_base@DV?$string_output_adapter@D@__crt_stdio_output@@@2@@__crt_stdio_output@@AAE_NXZ 004159b7 f i libucrt:output.obj
 0001:000149f1       ?state_case_precision@?$output_processor@DV?$string_output_adapter@D@__crt_stdio_output@@V?$standard_base@DV?$string_output_adapter@D@__crt_stdio_output@@@2@@__crt_stdio_output@@AAE_NXZ 004159f1 f i libucrt:output.obj
 0001:00014a17       ?state_case_precision@?$output_processor@_WV?$stream_output_adapter@_W@__crt_stdio_output@@V?$format_validation_base@_WV?$stream_output_adapter@_W@__crt_stdio_output@@@2@@__crt_stdio_output@@AAE_NXZ 00415a17 f i libucrt:output.obj
 0001:00014a3e       ?state_case_precision@?$output_processor@_WV?$stream_output_adapter@_W@__crt_stdio_output@@V?$positional_parameter_base@_WV?$stream_output_adapter@_W@__crt_stdio_output@@@2@@__crt_stdio_output@@AAE_NXZ 00415a3e f i libucrt:output.obj
 0001:00014a79       ?state_case_precision@?$output_processor@_WV?$stream_output_adapter@_W@__crt_stdio_output@@V?$standard_base@_WV?$stream_output_adapter@_W@__crt_stdio_output@@@2@@__crt_stdio_output@@AAE_NXZ 00415a79 f i libucrt:output.obj
 0001:00014aa0       ?state_case_precision@?$output_processor@_WV?$string_output_adapter@_W@__crt_stdio_output@@V?$format_validation_base@_WV?$string_output_adapter@_W@__crt_stdio_output@@@2@@__crt_stdio_output@@AAE_NXZ 00415aa0 f i libucrt:output.obj
 0001:00014ac7       ?state_case_precision@?$output_processor@_WV?$string_output_adapter@_W@__crt_stdio_output@@V?$positional_parameter_base@_WV?$string_output_adapter@_W@__crt_stdio_output@@@2@@__crt_stdio_output@@AAE_NXZ 00415ac7 f i libucrt:output.obj
 0001:00014b02       ?state_case_precision@?$output_processor@_WV?$string_output_adapter@_W@__crt_stdio_output@@V?$standard_base@_WV?$string_output_adapter@_W@__crt_stdio_output@@@2@@__crt_stdio_output@@AAE_NXZ 00415b02 f i libucrt:output.obj
 0001:00014b29       ?state_case_size@?$output_processor@DV?$stream_output_adapter@D@__crt_stdio_output@@V?$format_validation_base@DV?$stream_output_adapter@D@__crt_stdio_output@@@2@@__crt_stdio_output@@AAE_NXZ 00415b29 f i libucrt:output.obj
 0001:00014c77       ?state_case_size@?$output_processor@DV?$stream_output_adapter@D@__crt_stdio_output@@V?$positional_parameter_base@DV?$stream_output_adapter@D@__crt_stdio_output@@@2@@__crt_stdio_output@@AAE_NXZ 00415c77 f i libucrt:output.obj
 0001:00014dc5       ?state_case_size@?$output_processor@DV?$stream_output_adapter@D@__crt_stdio_output@@V?$standard_base@DV?$stream_output_adapter@D@__crt_stdio_output@@@2@@__crt_stdio_output@@AAE_NXZ 00415dc5 f i libucrt:output.obj
 0001:00014f13       ?state_case_size@?$output_processor@DV?$string_output_adapter@D@__crt_stdio_output@@V?$format_validation_base@DV?$string_output_adapter@D@__crt_stdio_output@@@2@@__crt_stdio_output@@AAE_NXZ 00415f13 f i libucrt:output.obj
 0001:00015061       ?state_case_size@?$output_processor@DV?$string_output_adapter@D@__crt_stdio_output@@V?$positional_parameter_base@DV?$string_output_adapter@D@__crt_stdio_output@@@2@@__crt_stdio_output@@AAE_NXZ 00416061 f i libucrt:output.obj
 0001:000151af       ?state_case_size@?$output_processor@DV?$string_output_adapter@D@__crt_stdio_output@@V?$standard_base@DV?$string_output_adapter@D@__crt_stdio_output@@@2@@__crt_stdio_output@@AAE_NXZ 004161af f i libucrt:output.obj
 0001:000152fd       ?state_case_size@?$output_processor@_WV?$stream_output_adapter@_W@__crt_stdio_output@@V?$format_validation_base@_WV?$stream_output_adapter@_W@__crt_stdio_output@@@2@@__crt_stdio_output@@AAE_NXZ 004162fd f i libucrt:output.obj
 0001:00015475       ?state_case_size@?$output_processor@_WV?$stream_output_adapter@_W@__crt_stdio_output@@V?$positional_parameter_base@_WV?$stream_output_adapter@_W@__crt_stdio_output@@@2@@__crt_stdio_output@@AAE_NXZ 00416475 f i libucrt:output.obj
 0001:000155ed       ?state_case_size@?$output_processor@_WV?$stream_output_adapter@_W@__crt_stdio_output@@V?$standard_base@_WV?$stream_output_adapter@_W@__crt_stdio_output@@@2@@__crt_stdio_output@@AAE_NXZ 004165ed f i libucrt:output.obj
 0001:00015765       ?state_case_size@?$output_processor@_WV?$string_output_adapter@_W@__crt_stdio_output@@V?$format_validation_base@_WV?$string_output_adapter@_W@__crt_stdio_output@@@2@@__crt_stdio_output@@AAE_NXZ 00416765 f i libucrt:output.obj
 0001:000158dd       ?state_case_size@?$output_processor@_WV?$string_output_adapter@_W@__crt_stdio_output@@V?$positional_parameter_base@_WV?$string_output_adapter@_W@__crt_stdio_output@@@2@@__crt_stdio_output@@AAE_NXZ 004168dd f i libucrt:output.obj
 0001:00015a55       ?state_case_size@?$output_processor@_WV?$string_output_adapter@_W@__crt_stdio_output@@V?$standard_base@_WV?$string_output_adapter@_W@__crt_stdio_output@@@2@@__crt_stdio_output@@AAE_NXZ 00416a55 f i libucrt:output.obj
 0001:00015bcd       ?state_case_type@?$output_processor@DV?$stream_output_adapter@D@__crt_stdio_output@@V?$format_validation_base@DV?$stream_output_adapter@D@__crt_stdio_output@@@2@@__crt_stdio_output@@AAE_NXZ 00416bcd f i libucrt:output.obj
 0001:00015dff       ?state_case_type@?$output_processor@DV?$stream_output_adapter@D@__crt_stdio_output@@V?$positional_parameter_base@DV?$stream_output_adapter@D@__crt_stdio_output@@@2@@__crt_stdio_output@@AAE_NXZ 00416dff f i libucrt:output.obj
 0001:00016040       ?state_case_type@?$output_processor@DV?$stream_output_adapter@D@__crt_stdio_output@@V?$standard_base@DV?$stream_output_adapter@D@__crt_stdio_output@@@2@@__crt_stdio_output@@AAE_NXZ 00417040 f i libucrt:output.obj
 0001:00016272       ?state_case_type@?$output_processor@DV?$string_output_adapter@D@__crt_stdio_output@@V?$format_validation_base@DV?$string_output_adapter@D@__crt_stdio_output@@@2@@__crt_stdio_output@@AAE_NXZ 00417272 f i libucrt:output.obj
 0001:000164a4       ?state_case_type@?$output_processor@DV?$string_output_adapter@D@__crt_stdio_output@@V?$positional_parameter_base@DV?$string_output_adapter@D@__crt_stdio_output@@@2@@__crt_stdio_output@@AAE_NXZ 004174a4 f i libucrt:output.obj
 0001:000166e5       ?state_case_type@?$output_processor@DV?$string_output_adapter@D@__crt_stdio_output@@V?$standard_base@DV?$string_output_adapter@D@__crt_stdio_output@@@2@@__crt_stdio_output@@AAE_NXZ 004176e5 f i libucrt:output.obj
 0001:00016917       ?state_case_type@?$output_processor@_WV?$stream_output_adapter@_W@__crt_stdio_output@@V?$format_validation_base@_WV?$stream_output_adapter@_W@__crt_stdio_output@@@2@@__crt_stdio_output@@AAE_NXZ 00417917 f i libucrt:output.obj
 0001:00016b74       ?state_case_type@?$output_processor@_WV?$stream_output_adapter@_W@__crt_stdio_output@@V?$positional_parameter_base@_WV?$stream_output_adapter@_W@__crt_stdio_output@@@2@@__crt_stdio_output@@AAE_NXZ 00417b74 f i libucrt:output.obj
 0001:00016de0       ?state_case_type@?$output_processor@_WV?$stream_output_adapter@_W@__crt_stdio_output@@V?$standard_base@_WV?$stream_output_adapter@_W@__crt_stdio_output@@@2@@__crt_stdio_output@@AAE_NXZ 00417de0 f i libucrt:output.obj
 0001:0001703d       ?state_case_type@?$output_processor@_WV?$string_output_adapter@_W@__crt_stdio_output@@V?$format_validation_base@_WV?$string_output_adapter@_W@__crt_stdio_output@@@2@@__crt_stdio_output@@AAE_NXZ 0041803d f i libucrt:output.obj
 0001:0001729a       ?state_case_type@?$output_processor@_WV?$string_output_adapter@_W@__crt_stdio_output@@V?$positional_parameter_base@_WV?$string_output_adapter@_W@__crt_stdio_output@@@2@@__crt_stdio_output@@AAE_NXZ 0041829a f i libucrt:output.obj
 0001:00017506       ?state_case_type@?$output_processor@_WV?$string_output_adapter@_W@__crt_stdio_output@@V?$standard_base@_WV?$string_output_adapter@_W@__crt_stdio_output@@@2@@__crt_stdio_output@@AAE_NXZ 00418506 f i libucrt:output.obj
 0001:00017763       ?state_case_width@?$output_processor@DV?$stream_output_adapter@D@__crt_stdio_output@@V?$format_validation_base@DV?$stream_output_adapter@D@__crt_stdio_output@@@2@@__crt_stdio_output@@AAE_NXZ 00418763 f i libucrt:output.obj
 0001:0001778e       ?state_case_width@?$output_processor@DV?$stream_output_adapter@D@__crt_stdio_output@@V?$positional_parameter_base@DV?$stream_output_adapter@D@__crt_stdio_output@@@2@@__crt_stdio_output@@AAE_NXZ 0041878e f i libucrt:output.obj
 0001:000177ce       ?state_case_width@?$output_processor@DV?$stream_output_adapter@D@__crt_stdio_output@@V?$standard_base@DV?$stream_output_adapter@D@__crt_stdio_output@@@2@@__crt_stdio_output@@AAE_NXZ 004187ce f i libucrt:output.obj
 0001:000177f9       ?state_case_width@?$output_processor@DV?$string_output_adapter@D@__crt_stdio_output@@V?$format_validation_base@DV?$string_output_adapter@D@__crt_stdio_output@@@2@@__crt_stdio_output@@AAE_NXZ 004187f9 f i libucrt:output.obj
 0001:00017824       ?state_case_width@?$output_processor@DV?$string_output_adapter@D@__crt_stdio_output@@V?$positional_parameter_base@DV?$string_output_adapter@D@__crt_stdio_output@@@2@@__crt_stdio_output@@AAE_NXZ 00418824 f i libucrt:output.obj
 0001:00017864       ?state_case_width@?$output_processor@DV?$string_output_adapter@D@__crt_stdio_output@@V?$standard_base@DV?$string_output_adapter@D@__crt_stdio_output@@@2@@__crt_stdio_output@@AAE_NXZ 00418864 f i libucrt:output.obj
 0001:0001788f       ?state_case_width@?$output_processor@_WV?$stream_output_adapter@_W@__crt_stdio_output@@V?$format_validation_base@_WV?$stream_output_adapter@_W@__crt_stdio_output@@@2@@__crt_stdio_output@@AAE_NXZ 0041888f f i libucrt:output.obj
 0001:000178bb       ?state_case_width@?$output_processor@_WV?$stream_output_adapter@_W@__crt_stdio_output@@V?$positional_parameter_base@_WV?$stream_output_adapter@_W@__crt_stdio_output@@@2@@__crt_stdio_output@@AAE_NXZ 004188bb f i libucrt:output.obj
 0001:000178fc       ?state_case_width@?$output_processor@_WV?$stream_output_adapter@_W@__crt_stdio_output@@V?$standard_base@_WV?$stream_output_adapter@_W@__crt_stdio_output@@@2@@__crt_stdio_output@@AAE_NXZ 004188fc f i libucrt:output.obj
 0001:00017928       ?state_case_width@?$output_processor@_WV?$string_output_adapter@_W@__crt_stdio_output@@V?$format_validation_base@_WV?$string_output_adapter@_W@__crt_stdio_output@@@2@@__crt_stdio_output@@AAE_NXZ 00418928 f i libucrt:output.obj
 0001:00017954       ?state_case_width@?$output_processor@_WV?$string_output_adapter@_W@__crt_stdio_output@@V?$positional_parameter_base@_WV?$string_output_adapter@_W@__crt_stdio_output@@@2@@__crt_stdio_output@@AAE_NXZ 00418954 f i libucrt:output.obj
 0001:00017995       ?state_case_width@?$output_processor@_WV?$string_output_adapter@_W@__crt_stdio_output@@V?$standard_base@_WV?$string_output_adapter@_W@__crt_stdio_output@@@2@@__crt_stdio_output@@AAE_NXZ 00418995 f i libucrt:output.obj
 0001:000179c1       ?state_count@?$format_validation_base@DV?$stream_output_adapter@D@__crt_stdio_output@@@__crt_stdio_output@@KAIXZ 004189c1 f i libucrt:output.obj
 0001:000179c5       ?state_count@?$format_validation_base@DV?$string_output_adapter@D@__crt_stdio_output@@@__crt_stdio_output@@KAIXZ 004189c5 f i libucrt:output.obj
 0001:000179c9       ?state_count@?$format_validation_base@_WV?$stream_output_adapter@_W@__crt_stdio_output@@@__crt_stdio_output@@KAIXZ 004189c9 f i libucrt:output.obj
 0001:000179cd       ?state_count@?$format_validation_base@_WV?$string_output_adapter@_W@__crt_stdio_output@@@__crt_stdio_output@@KAIXZ 004189cd f i libucrt:output.obj
 0001:000179d1       ?state_count@?$standard_base@DV?$stream_output_adapter@D@__crt_stdio_output@@@__crt_stdio_output@@KAIXZ 004189d1 f i libucrt:output.obj
 0001:000179d5       ?state_count@?$standard_base@DV?$string_output_adapter@D@__crt_stdio_output@@@__crt_stdio_output@@KAIXZ 004189d5 f i libucrt:output.obj
 0001:000179d9       ?state_count@?$standard_base@_WV?$stream_output_adapter@_W@__crt_stdio_output@@@__crt_stdio_output@@KAIXZ 004189d9 f i libucrt:output.obj
 0001:000179dd       ?state_count@?$standard_base@_WV?$string_output_adapter@_W@__crt_stdio_output@@@__crt_stdio_output@@KAIXZ 004189dd f i libucrt:output.obj
 0001:000179e1       ?state_transition_table@?$format_validation_base@DV?$stream_output_adapter@D@__crt_stdio_output@@@__crt_stdio_output@@KAABV?$spectre_mitigated_lookup_table@Ustate_transition_pair@__crt_stdio_output@@$0IA@@2@XZ 004189e1 f i libucrt:output.obj
 0001:000179e7       ?state_transition_table@?$format_validation_base@DV?$string_output_adapter@D@__crt_stdio_output@@@__crt_stdio_output@@KAABV?$spectre_mitigated_lookup_table@Ustate_transition_pair@__crt_stdio_output@@$0IA@@2@XZ 004189e7 f i libucrt:output.obj
 0001:000179ed       ?state_transition_table@?$format_validation_base@_WV?$stream_output_adapter@_W@__crt_stdio_output@@@__crt_stdio_output@@KAABV?$spectre_mitigated_lookup_table@Ustate_transition_pair@__crt_stdio_output@@$0IA@@2@XZ 004189ed f i libucrt:output.obj
 0001:000179f3       ?state_transition_table@?$format_validation_base@_WV?$string_output_adapter@_W@__crt_stdio_output@@@__crt_stdio_output@@KAABV?$spectre_mitigated_lookup_table@Ustate_transition_pair@__crt_stdio_output@@$0IA@@2@XZ 004189f3 f i libucrt:output.obj
 0001:000179f9       ?state_transition_table@?$standard_base@DV?$stream_output_adapter@D@__crt_stdio_output@@@__crt_stdio_output@@KAABV?$spectre_mitigated_lookup_table@Ustate_transition_pair@__crt_stdio_output@@$0IA@@2@XZ 004189f9 f i libucrt:output.obj
 0001:000179ff       ?state_transition_table@?$standard_base@DV?$string_output_adapter@D@__crt_stdio_output@@@__crt_stdio_output@@KAABV?$spectre_mitigated_lookup_table@Ustate_transition_pair@__crt_stdio_output@@$0IA@@2@XZ 004189ff f i libucrt:output.obj
 0001:00017a05       ?state_transition_table@?$standard_base@_WV?$stream_output_adapter@_W@__crt_stdio_output@@@__crt_stdio_output@@KAABV?$spectre_mitigated_lookup_table@Ustate_transition_pair@__crt_stdio_output@@$0IA@@2@XZ 00418a05 f i libucrt:output.obj
 0001:00017a0b       ?state_transition_table@?$standard_base@_WV?$string_output_adapter@_W@__crt_stdio_output@@@__crt_stdio_output@@KAABV?$spectre_mitigated_lookup_table@Ustate_transition_pair@__crt_stdio_output@@$0IA@@2@XZ 00418a0b f i libucrt:output.obj
 0001:00017a11       ?tchar_string@?$common_data@D@__crt_stdio_output@@IAEAAPADD@Z 00418a11 f i libucrt:output.obj
 0001:00017a17       ?tchar_string@?$common_data@D@__crt_stdio_output@@IAEAAPADXZ 00418a17 f i libucrt:output.obj
 0001:00017a1b       ?tchar_string@?$common_data@_W@__crt_stdio_output@@IAEAAPA_WXZ 00418a1b f i libucrt:output.obj
 0001:00017a1f       ?tchar_string@?$common_data@_W@__crt_stdio_output@@IAEAAPA_W_W@Z 00418a1f f i libucrt:output.obj
 0001:00017a30       ?to_integer_size@__crt_stdio_output@@YAIW4length_modifier@1@@Z 00418a30 f i libucrt:output.obj
 0001:00017a8c       ?type_case_X@?$output_processor@DV?$stream_output_adapter@D@__crt_stdio_output@@V?$format_validation_base@DV?$stream_output_adapter@D@__crt_stdio_output@@@2@@__crt_stdio_output@@AAE_NXZ 00418a8c f i libucrt:output.obj
 0001:00017a96       ?type_case_X@?$output_processor@DV?$stream_output_adapter@D@__crt_stdio_output@@V?$positional_parameter_base@DV?$stream_output_adapter@D@__crt_stdio_output@@@2@@__crt_stdio_output@@AAE_NXZ 00418a96 f i libucrt:output.obj
 0001:00017aa0       ?type_case_X@?$output_processor@DV?$stream_output_adapter@D@__crt_stdio_output@@V?$standard_base@DV?$stream_output_adapter@D@__crt_stdio_output@@@2@@__crt_stdio_output@@AAE_NXZ 00418aa0 f i libucrt:output.obj
 0001:00017aaa       ?type_case_X@?$output_processor@DV?$string_output_adapter@D@__crt_stdio_output@@V?$format_validation_base@DV?$string_output_adapter@D@__crt_stdio_output@@@2@@__crt_stdio_output@@AAE_NXZ 00418aaa f i libucrt:output.obj
 0001:00017ab4       ?type_case_X@?$output_processor@DV?$string_output_adapter@D@__crt_stdio_output@@V?$positional_parameter_base@DV?$string_output_adapter@D@__crt_stdio_output@@@2@@__crt_stdio_output@@AAE_NXZ 00418ab4 f i libucrt:output.obj
 0001:00017abe       ?type_case_X@?$output_processor@DV?$string_output_adapter@D@__crt_stdio_output@@V?$standard_base@DV?$string_output_adapter@D@__crt_stdio_output@@@2@@__crt_stdio_output@@AAE_NXZ 00418abe f i libucrt:output.obj
 0001:00017ac8       ?type_case_X@?$output_processor@_WV?$stream_output_adapter@_W@__crt_stdio_output@@V?$format_validation_base@_WV?$stream_output_adapter@_W@__crt_stdio_output@@@2@@__crt_stdio_output@@AAE_NXZ 00418ac8 f i libucrt:output.obj
 0001:00017ad2       ?type_case_X@?$output_processor@_WV?$stream_output_adapter@_W@__crt_stdio_output@@V?$positional_parameter_base@_WV?$stream_output_adapter@_W@__crt_stdio_output@@@2@@__crt_stdio_output@@AAE_NXZ 00418ad2 f i libucrt:output.obj
 0001:00017adc       ?type_case_X@?$output_processor@_WV?$stream_output_adapter@_W@__crt_stdio_output@@V?$standard_base@_WV?$stream_output_adapter@_W@__crt_stdio_output@@@2@@__crt_stdio_output@@AAE_NXZ 00418adc f i libucrt:output.obj
 0001:00017ae6       ?type_case_X@?$output_processor@_WV?$string_output_adapter@_W@__crt_stdio_output@@V?$format_validation_base@_WV?$string_output_adapter@_W@__crt_stdio_output@@@2@@__crt_stdio_output@@AAE_NXZ 00418ae6 f i libucrt:output.obj
 0001:00017af0       ?type_case_X@?$output_processor@_WV?$string_output_adapter@_W@__crt_stdio_output@@V?$positional_parameter_base@_WV?$string_output_adapter@_W@__crt_stdio_output@@@2@@__crt_stdio_output@@AAE_NXZ 00418af0 f i libucrt:output.obj
 0001:00017afa       ?type_case_X@?$output_processor@_WV?$string_output_adapter@_W@__crt_stdio_output@@V?$standard_base@_WV?$string_output_adapter@_W@__crt_stdio_output@@@2@@__crt_stdio_output@@AAE_NXZ 00418afa f i libucrt:output.obj
 0001:00017b04       ?type_case_Z@?$output_processor@DV?$stream_output_adapter@D@__crt_stdio_output@@V?$format_validation_base@DV?$stream_output_adapter@D@__crt_stdio_output@@@2@@__crt_stdio_output@@AAE_NXZ 00418b04 f i libucrt:output.obj
 0001:00017b5e       ?type_case_Z@?$output_processor@DV?$stream_output_adapter@D@__crt_stdio_output@@V?$positional_parameter_base@DV?$stream_output_adapter@D@__crt_stdio_output@@@2@@__crt_stdio_output@@AAE_NXZ 00418b5e f i libucrt:output.obj
 0001:00017bd2       ?type_case_Z@?$output_processor@DV?$stream_output_adapter@D@__crt_stdio_output@@V?$standard_base@DV?$stream_output_adapter@D@__crt_stdio_output@@@2@@__crt_stdio_output@@AAE_NXZ 00418bd2 f i libucrt:output.obj
 0001:00017c2c       ?type_case_Z@?$output_processor@DV?$string_output_adapter@D@__crt_stdio_output@@V?$format_validation_base@DV?$string_output_adapter@D@__crt_stdio_output@@@2@@__crt_stdio_output@@AAE_NXZ 00418c2c f i libucrt:output.obj
 0001:00017c86       ?type_case_Z@?$output_processor@DV?$string_output_adapter@D@__crt_stdio_output@@V?$positional_parameter_base@DV?$string_output_adapter@D@__crt_stdio_output@@@2@@__crt_stdio_output@@AAE_NXZ 00418c86 f i libucrt:output.obj
 0001:00017cfa       ?type_case_Z@?$output_processor@DV?$string_output_adapter@D@__crt_stdio_output@@V?$standard_base@DV?$string_output_adapter@D@__crt_stdio_output@@@2@@__crt_stdio_output@@AAE_NXZ 00418cfa f i libucrt:output.obj
 0001:00017d54       ?type_case_Z@?$output_processor@_WV?$stream_output_adapter@_W@__crt_stdio_output@@V?$format_validation_base@_WV?$stream_output_adapter@_W@__crt_stdio_output@@@2@@__crt_stdio_output@@AAE_NXZ 00418d54 f i libucrt:output.obj
 0001:00017dae       ?type_case_Z@?$output_processor@_WV?$stream_output_adapter@_W@__crt_stdio_output@@V?$positional_parameter_base@_WV?$stream_output_adapter@_W@__crt_stdio_output@@@2@@__crt_stdio_output@@AAE_NXZ 00418dae f i libucrt:output.obj
 0001:00017e22       ?type_case_Z@?$output_processor@_WV?$stream_output_adapter@_W@__crt_stdio_output@@V?$standard_base@_WV?$stream_output_adapter@_W@__crt_stdio_output@@@2@@__crt_stdio_output@@AAE_NXZ 00418e22 f i libucrt:output.obj
 0001:00017e7c       ?type_case_Z@?$output_processor@_WV?$string_output_adapter@_W@__crt_stdio_output@@V?$format_validation_base@_WV?$string_output_adapter@_W@__crt_stdio_output@@@2@@__crt_stdio_output@@AAE_NXZ 00418e7c f i libucrt:output.obj
 0001:00017ed6       ?type_case_Z@?$output_processor@_WV?$string_output_adapter@_W@__crt_stdio_output@@V?$positional_parameter_base@_WV?$string_output_adapter@_W@__crt_stdio_output@@@2@@__crt_stdio_output@@AAE_NXZ 00418ed6 f i libucrt:output.obj
 0001:00017f4a       ?type_case_Z@?$output_processor@_WV?$string_output_adapter@_W@__crt_stdio_output@@V?$standard_base@_WV?$string_output_adapter@_W@__crt_stdio_output@@@2@@__crt_stdio_output@@AAE_NXZ 00418f4a f i libucrt:output.obj
 0001:00017fa4       ?type_case_a@?$output_processor@DV?$stream_output_adapter@D@__crt_stdio_output@@V?$format_validation_base@DV?$stream_output_adapter@D@__crt_stdio_output@@@2@@__crt_stdio_output@@AAE_NXZ 00418fa4 f i libucrt:output.obj
 0001:000180f5       ?type_case_a@?$output_processor@DV?$stream_output_adapter@D@__crt_stdio_output@@V?$positional_parameter_base@DV?$stream_output_adapter@D@__crt_stdio_output@@@2@@__crt_stdio_output@@AAE_NXZ 004190f5 f i libucrt:output.obj
 0001:00018272       ?type_case_a@?$output_processor@DV?$stream_output_adapter@D@__crt_stdio_output@@V?$standard_base@DV?$stream_output_adapter@D@__crt_stdio_output@@@2@@__crt_stdio_output@@AAE_NXZ 00419272 f i libucrt:output.obj
 0001:000183c3       ?type_case_a@?$output_processor@DV?$string_output_adapter@D@__crt_stdio_output@@V?$format_validation_base@DV?$string_output_adapter@D@__crt_stdio_output@@@2@@__crt_stdio_output@@AAE_NXZ 004193c3 f i libucrt:output.obj
 0001:00018514       ?type_case_a@?$output_processor@DV?$string_output_adapter@D@__crt_stdio_output@@V?$positional_parameter_base@DV?$string_output_adapter@D@__crt_stdio_output@@@2@@__crt_stdio_output@@AAE_NXZ 00419514 f i libucrt:output.obj
 0001:00018691       ?type_case_a@?$output_processor@DV?$string_output_adapter@D@__crt_stdio_output@@V?$standard_base@DV?$string_output_adapter@D@__crt_stdio_output@@@2@@__crt_stdio_output@@AAE_NXZ 00419691 f i libucrt:output.obj
 0001:000187e2       ?type_case_a@?$output_processor@_WV?$stream_output_adapter@_W@__crt_stdio_output@@V?$format_validation_base@_WV?$stream_output_adapter@_W@__crt_stdio_output@@@2@@__crt_stdio_output@@AAE_NXZ 004197e2 f i libucrt:output.obj
 0001:00018949       ?type_case_a@?$output_processor@_WV?$stream_output_adapter@_W@__crt_stdio_output@@V?$positional_parameter_base@_WV?$stream_output_adapter@_W@__crt_stdio_output@@@2@@__crt_stdio_output@@AAE_NXZ 00419949 f i libucrt:output.obj
 0001:00018adc       ?type_case_a@?$output_processor@_WV?$stream_output_adapter@_W@__crt_stdio_output@@V?$standard_base@_WV?$stream_output_adapter@_W@__crt_stdio_output@@@2@@__crt_stdio_output@@AAE_NXZ 00419adc f i libucrt:output.obj
 0001:00018c43       ?type_case_a@?$output_processor@_WV?$string_output_adapter@_W@__crt_stdio_output@@V?$format_validation_base@_WV?$string_output_adapter@_W@__crt_stdio_output@@@2@@__crt_stdio_output@@AAE_NXZ 00419c43 f i libucrt:output.obj
 0001:00018daa       ?type_case_a@?$output_processor@_WV?$string_output_adapter@_W@__crt_stdio_output@@V?$positional_parameter_base@_WV?$string_output_adapter@_W@__crt_stdio_output@@@2@@__crt_stdio_output@@AAE_NXZ 00419daa f i libucrt:output.obj
 0001:00018f3d       ?type_case_a@?$output_processor@_WV?$string_output_adapter@_W@__crt_stdio_output@@V?$standard_base@_WV?$string_output_adapter@_W@__crt_stdio_output@@@2@@__crt_stdio_output@@AAE_NXZ 00419f3d f i libucrt:output.obj
 0001:000190a4       ?type_case_c@?$output_processor@DV?$stream_output_adapter@D@__crt_stdio_output@@V?$format_validation_base@DV?$stream_output_adapter@D@__crt_stdio_output@@@2@@__crt_stdio_output@@AAE_NXZ 0041a0a4 f i libucrt:output.obj
 0001:000190ac       ?type_case_c@?$output_processor@DV?$stream_output_adapter@D@__crt_stdio_output@@V?$positional_parameter_base@DV?$stream_output_adapter@D@__crt_stdio_output@@@2@@__crt_stdio_output@@AAE_NXZ 0041a0ac f i libucrt:output.obj
 0001:000190b4       ?type_case_c@?$output_processor@DV?$stream_output_adapter@D@__crt_stdio_output@@V?$standard_base@DV?$stream_output_adapter@D@__crt_stdio_output@@@2@@__crt_stdio_output@@AAE_NXZ 0041a0b4 f i libucrt:output.obj
 0001:000190bc       ?type_case_c@?$output_processor@DV?$string_output_adapter@D@__crt_stdio_output@@V?$format_validation_base@DV?$string_output_adapter@D@__crt_stdio_output@@@2@@__crt_stdio_output@@AAE_NXZ 0041a0bc f i libucrt:output.obj
 0001:000190c4       ?type_case_c@?$output_processor@DV?$string_output_adapter@D@__crt_stdio_output@@V?$positional_parameter_base@DV?$string_output_adapter@D@__crt_stdio_output@@@2@@__crt_stdio_output@@AAE_NXZ 0041a0c4 f i libucrt:output.obj
 0001:000190cc       ?type_case_c@?$output_processor@DV?$string_output_adapter@D@__crt_stdio_output@@V?$standard_base@DV?$string_output_adapter@D@__crt_stdio_output@@@2@@__crt_stdio_output@@AAE_NXZ 0041a0cc f i libucrt:output.obj
 0001:000190d4       ?type_case_c@?$output_processor@_WV?$stream_output_adapter@_W@__crt_stdio_output@@V?$format_validation_base@_WV?$stream_output_adapter@_W@__crt_stdio_output@@@2@@__crt_stdio_output@@AAE_NXZ 0041a0d4 f i libucrt:output.obj
 0001:000190dc       ?type_case_c@?$output_processor@_WV?$stream_output_adapter@_W@__crt_stdio_output@@V?$positional_parameter_base@_WV?$stream_output_adapter@_W@__crt_stdio_output@@@2@@__crt_stdio_output@@AAE_NXZ 0041a0dc f i libucrt:output.obj
 0001:000190e4       ?type_case_c@?$output_processor@_WV?$stream_output_adapter@_W@__crt_stdio_output@@V?$standard_base@_WV?$stream_output_adapter@_W@__crt_stdio_output@@@2@@__crt_stdio_output@@AAE_NXZ 0041a0e4 f i libucrt:output.obj
 0001:000190ec       ?type_case_c@?$output_processor@_WV?$string_output_adapter@_W@__crt_stdio_output@@V?$format_validation_base@_WV?$string_output_adapter@_W@__crt_stdio_output@@@2@@__crt_stdio_output@@AAE_NXZ 0041a0ec f i libucrt:output.obj
 0001:000190f4       ?type_case_c@?$output_processor@_WV?$string_output_adapter@_W@__crt_stdio_output@@V?$positional_parameter_base@_WV?$string_output_adapter@_W@__crt_stdio_output@@@2@@__crt_stdio_output@@AAE_NXZ 0041a0f4 f i libucrt:output.obj
 0001:000190fc       ?type_case_c@?$output_processor@_WV?$string_output_adapter@_W@__crt_stdio_output@@V?$standard_base@_WV?$string_output_adapter@_W@__crt_stdio_output@@@2@@__crt_stdio_output@@AAE_NXZ 0041a0fc f i libucrt:output.obj
 0001:00019104       ?type_case_c_tchar@?$output_processor@DV?$stream_output_adapter@D@__crt_stdio_output@@V?$format_validation_base@DV?$stream_output_adapter@D@__crt_stdio_output@@@2@@__crt_stdio_output@@AAE_ND@Z 0041a104 f i libucrt:output.obj
 0001:00019197       ?type_case_c_tchar@?$output_processor@DV?$stream_output_adapter@D@__crt_stdio_output@@V?$positional_parameter_base@DV?$stream_output_adapter@D@__crt_stdio_output@@@2@@__crt_stdio_output@@AAE_ND@Z 0041a197 f i libucrt:output.obj
 0001:00019258       ?type_case_c_tchar@?$output_processor@DV?$stream_output_adapter@D@__crt_stdio_output@@V?$standard_base@DV?$stream_output_adapter@D@__crt_stdio_output@@@2@@__crt_stdio_output@@AAE_ND@Z 0041a258 f i libucrt:output.obj
 0001:000192eb       ?type_case_c_tchar@?$output_processor@DV?$string_output_adapter@D@__crt_stdio_output@@V?$format_validation_base@DV?$string_output_adapter@D@__crt_stdio_output@@@2@@__crt_stdio_output@@AAE_ND@Z 0041a2eb f i libucrt:output.obj
 0001:0001937e       ?type_case_c_tchar@?$output_processor@DV?$string_output_adapter@D@__crt_stdio_output@@V?$positional_parameter_base@DV?$string_output_adapter@D@__crt_stdio_output@@@2@@__crt_stdio_output@@AAE_ND@Z 0041a37e f i libucrt:output.obj
 0001:0001943f       ?type_case_c_tchar@?$output_processor@DV?$string_output_adapter@D@__crt_stdio_output@@V?$standard_base@DV?$string_output_adapter@D@__crt_stdio_output@@@2@@__crt_stdio_output@@AAE_ND@Z 0041a43f f i libucrt:output.obj
 0001:000194d2       ?type_case_c_tchar@?$output_processor@_WV?$stream_output_adapter@_W@__crt_stdio_output@@V?$format_validation_base@_WV?$stream_output_adapter@_W@__crt_stdio_output@@@2@@__crt_stdio_output@@AAE_N_W@Z 0041a4d2 f i libucrt:output.obj
 0001:00019568       ?type_case_c_tchar@?$output_processor@_WV?$stream_output_adapter@_W@__crt_stdio_output@@V?$positional_parameter_base@_WV?$stream_output_adapter@_W@__crt_stdio_output@@@2@@__crt_stdio_output@@AAE_N_W@Z 0041a568 f i libucrt:output.obj
 0001:00019615       ?type_case_c_tchar@?$output_processor@_WV?$stream_output_adapter@_W@__crt_stdio_output@@V?$standard_base@_WV?$stream_output_adapter@_W@__crt_stdio_output@@@2@@__crt_stdio_output@@AAE_N_W@Z 0041a615 f i libucrt:output.obj
 0001:000196ab       ?type_case_c_tchar@?$output_processor@_WV?$string_output_adapter@_W@__crt_stdio_output@@V?$format_validation_base@_WV?$string_output_adapter@_W@__crt_stdio_output@@@2@@__crt_stdio_output@@AAE_N_W@Z 0041a6ab f i libucrt:output.obj
 0001:00019741       ?type_case_c_tchar@?$output_processor@_WV?$string_output_adapter@_W@__crt_stdio_output@@V?$positional_parameter_base@_WV?$string_output_adapter@_W@__crt_stdio_output@@@2@@__crt_stdio_output@@AAE_N_W@Z 0041a741 f i libucrt:output.obj
 0001:000197ee       ?type_case_c_tchar@?$output_processor@_WV?$string_output_adapter@_W@__crt_stdio_output@@V?$standard_base@_WV?$string_output_adapter@_W@__crt_stdio_output@@@2@@__crt_stdio_output@@AAE_N_W@Z 0041a7ee f i libucrt:output.obj
 0001:00019884       ?type_case_d@?$output_processor@DV?$stream_output_adapter@D@__crt_stdio_output@@V?$format_validation_base@DV?$stream_output_adapter@D@__crt_stdio_output@@@2@@__crt_stdio_output@@AAE_NXZ 0041a884 f i libucrt:output.obj
 0001:00019892       ?type_case_d@?$output_processor@DV?$stream_output_adapter@D@__crt_stdio_output@@V?$positional_parameter_base@DV?$stream_output_adapter@D@__crt_stdio_output@@@2@@__crt_stdio_output@@AAE_NXZ 0041a892 f i libucrt:output.obj
 0001:000198a0       ?type_case_d@?$output_processor@DV?$stream_output_adapter@D@__crt_stdio_output@@V?$standard_base@DV?$stream_output_adapter@D@__crt_stdio_output@@@2@@__crt_stdio_output@@AAE_NXZ 0041a8a0 f i libucrt:output.obj
 0001:000198ae       ?type_case_d@?$output_processor@DV?$string_output_adapter@D@__crt_stdio_output@@V?$format_validation_base@DV?$string_output_adapter@D@__crt_stdio_output@@@2@@__crt_stdio_output@@AAE_NXZ 0041a8ae f i libucrt:output.obj
 0001:000198bc       ?type_case_d@?$output_processor@DV?$string_output_adapter@D@__crt_stdio_output@@V?$positional_parameter_base@DV?$string_output_adapter@D@__crt_stdio_output@@@2@@__crt_stdio_output@@AAE_NXZ 0041a8bc f i libucrt:output.obj
 0001:000198ca       ?type_case_d@?$output_processor@DV?$string_output_adapter@D@__crt_stdio_output@@V?$standard_base@DV?$string_output_adapter@D@__crt_stdio_output@@@2@@__crt_stdio_output@@AAE_NXZ 0041a8ca f i libucrt:output.obj
 0001:000198d8       ?type_case_d@?$output_processor@_WV?$stream_output_adapter@_W@__crt_stdio_output@@V?$format_validation_base@_WV?$stream_output_adapter@_W@__crt_stdio_output@@@2@@__crt_stdio_output@@AAE_NXZ 0041a8d8 f i libucrt:output.obj
 0001:000198e6       ?type_case_d@?$output_processor@_WV?$stream_output_adapter@_W@__crt_stdio_output@@V?$positional_parameter_base@_WV?$stream_output_adapter@_W@__crt_stdio_output@@@2@@__crt_stdio_output@@AAE_NXZ 0041a8e6 f i libucrt:output.obj
 0001:000198f4       ?type_case_d@?$output_processor@_WV?$stream_output_adapter@_W@__crt_stdio_output@@V?$standard_base@_WV?$stream_output_adapter@_W@__crt_stdio_output@@@2@@__crt_stdio_output@@AAE_NXZ 0041a8f4 f i libucrt:output.obj
 0001:00019902       ?type_case_d@?$output_processor@_WV?$string_output_adapter@_W@__crt_stdio_output@@V?$format_validation_base@_WV?$string_output_adapter@_W@__crt_stdio_output@@@2@@__crt_stdio_output@@AAE_NXZ 0041a902 f i libucrt:output.obj
 0001:00019910       ?type_case_d@?$output_processor@_WV?$string_output_adapter@_W@__crt_stdio_output@@V?$positional_parameter_base@_WV?$string_output_adapter@_W@__crt_stdio_output@@@2@@__crt_stdio_output@@AAE_NXZ 0041a910 f i libucrt:output.obj
 0001:0001991e       ?type_case_d@?$output_processor@_WV?$string_output_adapter@_W@__crt_stdio_output@@V?$standard_base@_WV?$string_output_adapter@_W@__crt_stdio_output@@@2@@__crt_stdio_output@@AAE_NXZ 0041a91e f i libucrt:output.obj
 0001:0001992c       ?type_case_integer@?$output_processor@DV?$stream_output_adapter@D@__crt_stdio_output@@V?$format_validation_base@DV?$stream_output_adapter@D@__crt_stdio_output@@@2@@__crt_stdio_output@@AAE_NI_N@Z 0041a92c f i libucrt:output.obj
 0001:00019a7d       ?type_case_integer@?$output_processor@DV?$stream_output_adapter@D@__crt_stdio_output@@V?$positional_parameter_base@DV?$stream_output_adapter@D@__crt_stdio_output@@@2@@__crt_stdio_output@@AAE_NI_N@Z 0041aa7d f i libucrt:output.obj
 0001:00019bfe       ?type_case_integer@?$output_processor@DV?$stream_output_adapter@D@__crt_stdio_output@@V?$standard_base@DV?$stream_output_adapter@D@__crt_stdio_output@@@2@@__crt_stdio_output@@AAE_NI_N@Z 0041abfe f i libucrt:output.obj
 0001:00019d4f       ?type_case_integer@?$output_processor@DV?$string_output_adapter@D@__crt_stdio_output@@V?$format_validation_base@DV?$string_output_adapter@D@__crt_stdio_output@@@2@@__crt_stdio_output@@AAE_NI_N@Z 0041ad4f f i libucrt:output.obj
 0001:00019ea0       ?type_case_integer@?$output_processor@DV?$string_output_adapter@D@__crt_stdio_output@@V?$positional_parameter_base@DV?$string_output_adapter@D@__crt_stdio_output@@@2@@__crt_stdio_output@@AAE_NI_N@Z 0041aea0 f i libucrt:output.obj
 0001:0001a021       ?type_case_integer@?$output_processor@DV?$string_output_adapter@D@__crt_stdio_output@@V?$standard_base@DV?$string_output_adapter@D@__crt_stdio_output@@@2@@__crt_stdio_output@@AAE_NI_N@Z 0041b021 f i libucrt:output.obj
 0001:0001a172       ?type_case_integer@?$output_processor@_WV?$stream_output_adapter@_W@__crt_stdio_output@@V?$format_validation_base@_WV?$stream_output_adapter@_W@__crt_stdio_output@@@2@@__crt_stdio_output@@AAE_NI_N@Z 0041b172 f i libucrt:output.obj
 0001:0001a2c7       ?type_case_integer@?$output_processor@_WV?$stream_output_adapter@_W@__crt_stdio_output@@V?$positional_parameter_base@_WV?$stream_output_adapter@_W@__crt_stdio_output@@@2@@__crt_stdio_output@@AAE_NI_N@Z 0041b2c7 f i libucrt:output.obj
 0001:0001a44c       ?type_case_integer@?$output_processor@_WV?$stream_output_adapter@_W@__crt_stdio_output@@V?$standard_base@_WV?$stream_output_adapter@_W@__crt_stdio_output@@@2@@__crt_stdio_output@@AAE_NI_N@Z 0041b44c f i libucrt:output.obj
 0001:0001a5a1       ?type_case_integer@?$output_processor@_WV?$string_output_adapter@_W@__crt_stdio_output@@V?$format_validation_base@_WV?$string_output_adapter@_W@__crt_stdio_output@@@2@@__crt_stdio_output@@AAE_NI_N@Z 0041b5a1 f i libucrt:output.obj
 0001:0001a6f6       ?type_case_integer@?$output_processor@_WV?$string_output_adapter@_W@__crt_stdio_output@@V?$positional_parameter_base@_WV?$string_output_adapter@_W@__crt_stdio_output@@@2@@__crt_stdio_output@@AAE_NI_N@Z 0041b6f6 f i libucrt:output.obj
 0001:0001a87b       ?type_case_integer@?$output_processor@_WV?$string_output_adapter@_W@__crt_stdio_output@@V?$standard_base@_WV?$string_output_adapter@_W@__crt_stdio_output@@@2@@__crt_stdio_output@@AAE_NI_N@Z 0041b87b f i libucrt:output.obj
 0001:0001a9d0       ?type_case_n@?$output_processor@DV?$stream_output_adapter@D@__crt_stdio_output@@V?$format_validation_base@DV?$stream_output_adapter@D@__crt_stdio_output@@@2@@__crt_stdio_output@@AAE_NXZ 0041b9d0 f i libucrt:output.obj
 0001:0001aa44       ?type_case_n@?$output_processor@DV?$stream_output_adapter@D@__crt_stdio_output@@V?$positional_parameter_base@DV?$stream_output_adapter@D@__crt_stdio_output@@@2@@__crt_stdio_output@@AAE_NXZ 0041ba44 f i libucrt:output.obj
 0001:0001aadb       ?type_case_n@?$output_processor@DV?$stream_output_adapter@D@__crt_stdio_output@@V?$standard_base@DV?$stream_output_adapter@D@__crt_stdio_output@@@2@@__crt_stdio_output@@AAE_NXZ 0041badb f i libucrt:output.obj
 0001:0001ab4f       ?type_case_n@?$output_processor@DV?$string_output_adapter@D@__crt_stdio_output@@V?$format_validation_base@DV?$string_output_adapter@D@__crt_stdio_output@@@2@@__crt_stdio_output@@AAE_NXZ 0041bb4f f i libucrt:output.obj
 0001:0001abc3       ?type_case_n@?$output_processor@DV?$string_output_adapter@D@__crt_stdio_output@@V?$positional_parameter_base@DV?$string_output_adapter@D@__crt_stdio_output@@@2@@__crt_stdio_output@@AAE_NXZ 0041bbc3 f i libucrt:output.obj
 0001:0001ac5a       ?type_case_n@?$output_processor@DV?$string_output_adapter@D@__crt_stdio_output@@V?$standard_base@DV?$string_output_adapter@D@__crt_stdio_output@@@2@@__crt_stdio_output@@AAE_NXZ 0041bc5a f i libucrt:output.obj
 0001:0001acce       ?type_case_n@?$output_processor@_WV?$stream_output_adapter@_W@__crt_stdio_output@@V?$format_validation_base@_WV?$stream_output_adapter@_W@__crt_stdio_output@@@2@@__crt_stdio_output@@AAE_NXZ 0041bcce f i libucrt:output.obj
 0001:0001ad42       ?type_case_n@?$output_processor@_WV?$stream_output_adapter@_W@__crt_stdio_output@@V?$positional_parameter_base@_WV?$stream_output_adapter@_W@__crt_stdio_output@@@2@@__crt_stdio_output@@AAE_NXZ 0041bd42 f i libucrt:output.obj
 0001:0001add9       ?type_case_n@?$output_processor@_WV?$stream_output_adapter@_W@__crt_stdio_output@@V?$standard_base@_WV?$stream_output_adapter@_W@__crt_stdio_output@@@2@@__crt_stdio_output@@AAE_NXZ 0041bdd9 f i libucrt:output.obj
 0001:0001ae4d       ?type_case_n@?$output_processor@_WV?$string_output_adapter@_W@__crt_stdio_output@@V?$format_validation_base@_WV?$string_output_adapter@_W@__crt_stdio_output@@@2@@__crt_stdio_output@@AAE_NXZ 0041be4d f i libucrt:output.obj
 0001:0001aec1       ?type_case_n@?$output_processor@_WV?$string_output_adapter@_W@__crt_stdio_output@@V?$positional_parameter_base@_WV?$string_output_adapter@_W@__crt_stdio_output@@@2@@__crt_stdio_output@@AAE_NXZ 0041bec1 f i libucrt:output.obj
 0001:0001af58       ?type_case_n@?$output_processor@_WV?$string_output_adapter@_W@__crt_stdio_output@@V?$standard_base@_WV?$string_output_adapter@_W@__crt_stdio_output@@@2@@__crt_stdio_output@@AAE_NXZ 0041bf58 f i libucrt:output.obj
 0001:0001afcc       ?type_case_o@?$output_processor@DV?$stream_output_adapter@D@__crt_stdio_output@@V?$format_validation_base@DV?$stream_output_adapter@D@__crt_stdio_output@@@2@@__crt_stdio_output@@AAE_NXZ 0041bfcc f i libucrt:output.obj
 0001:0001afeb       ?type_case_o@?$output_processor@DV?$stream_output_adapter@D@__crt_stdio_output@@V?$positional_parameter_base@DV?$stream_output_adapter@D@__crt_stdio_output@@@2@@__crt_stdio_output@@AAE_NXZ 0041bfeb f i libucrt:output.obj
 0001:0001b00a       ?type_case_o@?$output_processor@DV?$stream_output_adapter@D@__crt_stdio_output@@V?$standard_base@DV?$stream_output_adapter@D@__crt_stdio_output@@@2@@__crt_stdio_output@@AAE_NXZ 0041c00a f i libucrt:output.obj
 0001:0001b029       ?type_case_o@?$output_processor@DV?$string_output_adapter@D@__crt_stdio_output@@V?$format_validation_base@DV?$string_output_adapter@D@__crt_stdio_output@@@2@@__crt_stdio_output@@AAE_NXZ 0041c029 f i libucrt:output.obj
 0001:0001b048       ?type_case_o@?$output_processor@DV?$string_output_adapter@D@__crt_stdio_output@@V?$positional_parameter_base@DV?$string_output_adapter@D@__crt_stdio_output@@@2@@__crt_stdio_output@@AAE_NXZ 0041c048 f i libucrt:output.obj
 0001:0001b067       ?type_case_o@?$output_processor@DV?$string_output_adapter@D@__crt_stdio_output@@V?$standard_base@DV?$string_output_adapter@D@__crt_stdio_output@@@2@@__crt_stdio_output@@AAE_NXZ 0041c067 f i libucrt:output.obj
 0001:0001b086       ?type_case_o@?$output_processor@_WV?$stream_output_adapter@_W@__crt_stdio_output@@V?$format_validation_base@_WV?$stream_output_adapter@_W@__crt_stdio_output@@@2@@__crt_stdio_output@@AAE_NXZ 0041c086 f i libucrt:output.obj
 0001:0001b0a5       ?type_case_o@?$output_processor@_WV?$stream_output_adapter@_W@__crt_stdio_output@@V?$positional_parameter_base@_WV?$stream_output_adapter@_W@__crt_stdio_output@@@2@@__crt_stdio_output@@AAE_NXZ 0041c0a5 f i libucrt:output.obj
 0001:0001b0c4       ?type_case_o@?$output_processor@_WV?$stream_output_adapter@_W@__crt_stdio_output@@V?$standard_base@_WV?$stream_output_adapter@_W@__crt_stdio_output@@@2@@__crt_stdio_output@@AAE_NXZ 0041c0c4 f i libucrt:output.obj
 0001:0001b0e3       ?type_case_o@?$output_processor@_WV?$string_output_adapter@_W@__crt_stdio_output@@V?$format_validation_base@_WV?$string_output_adapter@_W@__crt_stdio_output@@@2@@__crt_stdio_output@@AAE_NXZ 0041c0e3 f i libucrt:output.obj
 0001:0001b102       ?type_case_o@?$output_processor@_WV?$string_output_adapter@_W@__crt_stdio_output@@V?$positional_parameter_base@_WV?$string_output_adapter@_W@__crt_stdio_output@@@2@@__crt_stdio_output@@AAE_NXZ 0041c102 f i libucrt:output.obj
 0001:0001b121       ?type_case_o@?$output_processor@_WV?$string_output_adapter@_W@__crt_stdio_output@@V?$standard_base@_WV?$string_output_adapter@_W@__crt_stdio_output@@@2@@__crt_stdio_output@@AAE_NXZ 0041c121 f i libucrt:output.obj
 0001:0001b140       ?type_case_p@?$output_processor@DV?$stream_output_adapter@D@__crt_stdio_output@@V?$format_validation_base@DV?$stream_output_adapter@D@__crt_stdio_output@@@2@@__crt_stdio_output@@AAE_NXZ 0041c140 f i libucrt:output.obj
 0001:0001b158       ?type_case_p@?$output_processor@DV?$stream_output_adapter@D@__crt_stdio_output@@V?$positional_parameter_base@DV?$stream_output_adapter@D@__crt_stdio_output@@@2@@__crt_stdio_output@@AAE_NXZ 0041c158 f i libucrt:output.obj
 0001:0001b170       ?type_case_p@?$output_processor@DV?$stream_output_adapter@D@__crt_stdio_output@@V?$standard_base@DV?$stream_output_adapter@D@__crt_stdio_output@@@2@@__crt_stdio_output@@AAE_NXZ 0041c170 f i libucrt:output.obj
 0001:0001b188       ?type_case_p@?$output_processor@DV?$string_output_adapter@D@__crt_stdio_output@@V?$format_validation_base@DV?$string_output_adapter@D@__crt_stdio_output@@@2@@__crt_stdio_output@@AAE_NXZ 0041c188 f i libucrt:output.obj
 0001:0001b1a0       ?type_case_p@?$output_processor@DV?$string_output_adapter@D@__crt_stdio_output@@V?$positional_parameter_base@DV?$string_output_adapter@D@__crt_stdio_output@@@2@@__crt_stdio_output@@AAE_NXZ 0041c1a0 f i libucrt:output.obj
 0001:0001b1b8       ?type_case_p@?$output_processor@DV?$string_output_adapter@D@__crt_stdio_output@@V?$standard_base@DV?$string_output_adapter@D@__crt_stdio_output@@@2@@__crt_stdio_output@@AAE_NXZ 0041c1b8 f i libucrt:output.obj
 0001:0001b1d0       ?type_case_p@?$output_processor@_WV?$stream_output_adapter@_W@__crt_stdio_output@@V?$format_validation_base@_WV?$stream_output_adapter@_W@__crt_stdio_output@@@2@@__crt_stdio_output@@AAE_NXZ 0041c1d0 f i libucrt:output.obj
 0001:0001b1e8       ?type_case_p@?$output_processor@_WV?$stream_output_adapter@_W@__crt_stdio_output@@V?$positional_parameter_base@_WV?$stream_output_adapter@_W@__crt_stdio_output@@@2@@__crt_stdio_output@@AAE_NXZ 0041c1e8 f i libucrt:output.obj
 0001:0001b200       ?type_case_p@?$output_processor@_WV?$stream_output_adapter@_W@__crt_stdio_output@@V?$standard_base@_WV?$stream_output_adapter@_W@__crt_stdio_output@@@2@@__crt_stdio_output@@AAE_NXZ 0041c200 f i libucrt:output.obj
 0001:0001b218       ?type_case_p@?$output_processor@_WV?$string_output_adapter@_W@__crt_stdio_output@@V?$format_validation_base@_WV?$string_output_adapter@_W@__crt_stdio_output@@@2@@__crt_stdio_output@@AAE_NXZ 0041c218 f i libucrt:output.obj
 0001:0001b230       ?type_case_p@?$output_processor@_WV?$string_output_adapter@_W@__crt_stdio_output@@V?$positional_parameter_base@_WV?$string_output_adapter@_W@__crt_stdio_output@@@2@@__crt_stdio_output@@AAE_NXZ 0041c230 f i libucrt:output.obj
 0001:0001b248       ?type_case_p@?$output_processor@_WV?$string_output_adapter@_W@__crt_stdio_output@@V?$standard_base@_WV?$string_output_adapter@_W@__crt_stdio_output@@@2@@__crt_stdio_output@@AAE_NXZ 0041c248 f i libucrt:output.obj
 0001:0001b260       ?type_case_s@?$output_processor@DV?$stream_output_adapter@D@__crt_stdio_output@@V?$format_validation_base@DV?$stream_output_adapter@D@__crt_stdio_output@@@2@@__crt_stdio_output@@AAE_NXZ 0041c260 f i libucrt:output.obj
 0001:0001b2d1       ?type_case_s@?$output_processor@DV?$stream_output_adapter@D@__crt_stdio_output@@V?$positional_parameter_base@DV?$stream_output_adapter@D@__crt_stdio_output@@@2@@__crt_stdio_output@@AAE_NXZ 0041c2d1 f i libucrt:output.obj
 0001:0001b34f       ?type_case_s@?$output_processor@DV?$stream_output_adapter@D@__crt_stdio_output@@V?$standard_base@DV?$stream_output_adapter@D@__crt_stdio_output@@@2@@__crt_stdio_output@@AAE_NXZ 0041c34f f i libucrt:output.obj
 0001:0001b3c0       ?type_case_s@?$output_processor@DV?$string_output_adapter@D@__crt_stdio_output@@V?$format_validation_base@DV?$string_output_adapter@D@__crt_stdio_output@@@2@@__crt_stdio_output@@AAE_NXZ 0041c3c0 f i libucrt:output.obj
 0001:0001b431       ?type_case_s@?$output_processor@DV?$string_output_adapter@D@__crt_stdio_output@@V?$positional_parameter_base@DV?$string_output_adapter@D@__crt_stdio_output@@@2@@__crt_stdio_output@@AAE_NXZ 0041c431 f i libucrt:output.obj
 0001:0001b4af       ?type_case_s@?$output_processor@DV?$string_output_adapter@D@__crt_stdio_output@@V?$standard_base@DV?$string_output_adapter@D@__crt_stdio_output@@@2@@__crt_stdio_output@@AAE_NXZ 0041c4af f i libucrt:output.obj
 0001:0001b520       ?type_case_s@?$output_processor@_WV?$stream_output_adapter@_W@__crt_stdio_output@@V?$format_validation_base@_WV?$stream_output_adapter@_W@__crt_stdio_output@@@2@@__crt_stdio_output@@AAE_NXZ 0041c520 f i libucrt:output.obj
 0001:0001b593       ?type_case_s@?$output_processor@_WV?$stream_output_adapter@_W@__crt_stdio_output@@V?$positional_parameter_base@_WV?$stream_output_adapter@_W@__crt_stdio_output@@@2@@__crt_stdio_output@@AAE_NXZ 0041c593 f i libucrt:output.obj
 0001:0001b613       ?type_case_s@?$output_processor@_WV?$stream_output_adapter@_W@__crt_stdio_output@@V?$standard_base@_WV?$stream_output_adapter@_W@__crt_stdio_output@@@2@@__crt_stdio_output@@AAE_NXZ 0041c613 f i libucrt:output.obj
 0001:0001b686       ?type_case_s@?$output_processor@_WV?$string_output_adapter@_W@__crt_stdio_output@@V?$format_validation_base@_WV?$string_output_adapter@_W@__crt_stdio_output@@@2@@__crt_stdio_output@@AAE_NXZ 0041c686 f i libucrt:output.obj
 0001:0001b6f9       ?type_case_s@?$output_processor@_WV?$string_output_adapter@_W@__crt_stdio_output@@V?$positional_parameter_base@_WV?$string_output_adapter@_W@__crt_stdio_output@@@2@@__crt_stdio_output@@AAE_NXZ 0041c6f9 f i libucrt:output.obj
 0001:0001b779       ?type_case_s@?$output_processor@_WV?$string_output_adapter@_W@__crt_stdio_output@@V?$standard_base@_WV?$string_output_adapter@_W@__crt_stdio_output@@@2@@__crt_stdio_output@@AAE_NXZ 0041c779 f i libucrt:output.obj
 0001:0001b7ec       ?type_case_s_compute_narrow_string_length@?$output_processor@DV?$stream_output_adapter@D@__crt_stdio_output@@V?$format_validation_base@DV?$stream_output_adapter@D@__crt_stdio_output@@@2@@__crt_stdio_output@@ABEHHD@Z 0041c7ec f i libucrt:output.obj
 0001:0001b802       ?type_case_s_compute_narrow_string_length@?$output_processor@DV?$stream_output_adapter@D@__crt_stdio_output@@V?$positional_parameter_base@DV?$stream_output_adapter@D@__crt_stdio_output@@@2@@__crt_stdio_output@@ABEHHD@Z 0041c802 f i libucrt:output.obj
 0001:0001b818       ?type_case_s_compute_narrow_string_length@?$output_processor@DV?$stream_output_adapter@D@__crt_stdio_output@@V?$standard_base@DV?$stream_output_adapter@D@__crt_stdio_output@@@2@@__crt_stdio_output@@ABEHHD@Z 0041c818 f i libucrt:output.obj
 0001:0001b82e       ?type_case_s_compute_narrow_string_length@?$output_processor@DV?$string_output_adapter@D@__crt_stdio_output@@V?$format_validation_base@DV?$string_output_adapter@D@__crt_stdio_output@@@2@@__crt_stdio_output@@ABEHHD@Z 0041c82e f i libucrt:output.obj
 0001:0001b844       ?type_case_s_compute_narrow_string_length@?$output_processor@DV?$string_output_adapter@D@__crt_stdio_output@@V?$positional_parameter_base@DV?$string_output_adapter@D@__crt_stdio_output@@@2@@__crt_stdio_output@@ABEHHD@Z 0041c844 f i libucrt:output.obj
 0001:0001b85a       ?type_case_s_compute_narrow_string_length@?$output_processor@DV?$string_output_adapter@D@__crt_stdio_output@@V?$standard_base@DV?$string_output_adapter@D@__crt_stdio_output@@@2@@__crt_stdio_output@@ABEHHD@Z 0041c85a f i libucrt:output.obj
 0001:0001b870       ?type_case_s_compute_narrow_string_length@?$output_processor@_WV?$stream_output_adapter@_W@__crt_stdio_output@@V?$format_validation_base@_WV?$stream_output_adapter@_W@__crt_stdio_output@@@2@@__crt_stdio_output@@ABEHH_W@Z 0041c870 f i libucrt:output.obj
 0001:0001b8b7       ?type_case_s_compute_narrow_string_length@?$output_processor@_WV?$stream_output_adapter@_W@__crt_stdio_output@@V?$positional_parameter_base@_WV?$stream_output_adapter@_W@__crt_stdio_output@@@2@@__crt_stdio_output@@ABEHH_W@Z 0041c8b7 f i libucrt:output.obj
 0001:0001b8fe       ?type_case_s_compute_narrow_string_length@?$output_processor@_WV?$stream_output_adapter@_W@__crt_stdio_output@@V?$standard_base@_WV?$stream_output_adapter@_W@__crt_stdio_output@@@2@@__crt_stdio_output@@ABEHH_W@Z 0041c8fe f i libucrt:output.obj
 0001:0001b945       ?type_case_s_compute_narrow_string_length@?$output_processor@_WV?$string_output_adapter@_W@__crt_stdio_output@@V?$format_validation_base@_WV?$string_output_adapter@_W@__crt_stdio_output@@@2@@__crt_stdio_output@@ABEHH_W@Z 0041c945 f i libucrt:output.obj
 0001:0001b98c       ?type_case_s_compute_narrow_string_length@?$output_processor@_WV?$string_output_adapter@_W@__crt_stdio_output@@V?$positional_parameter_base@_WV?$string_output_adapter@_W@__crt_stdio_output@@@2@@__crt_stdio_output@@ABEHH_W@Z 0041c98c f i libucrt:output.obj
 0001:0001b9d3       ?type_case_s_compute_narrow_string_length@?$output_processor@_WV?$string_output_adapter@_W@__crt_stdio_output@@V?$standard_base@_WV?$string_output_adapter@_W@__crt_stdio_output@@@2@@__crt_stdio_output@@ABEHH_W@Z 0041c9d3 f i libucrt:output.obj
 0001:0001ba1a       ?type_case_u@?$output_processor@DV?$stream_output_adapter@D@__crt_stdio_output@@V?$format_validation_base@DV?$stream_output_adapter@D@__crt_stdio_output@@@2@@__crt_stdio_output@@AAE_NXZ 0041ca1a f i libucrt:output.obj
 0001:0001ba24       ?type_case_u@?$output_processor@DV?$stream_output_adapter@D@__crt_stdio_output@@V?$positional_parameter_base@DV?$stream_output_adapter@D@__crt_stdio_output@@@2@@__crt_stdio_output@@AAE_NXZ 0041ca24 f i libucrt:output.obj
 0001:0001ba2e       ?type_case_u@?$output_processor@DV?$stream_output_adapter@D@__crt_stdio_output@@V?$standard_base@DV?$stream_output_adapter@D@__crt_stdio_output@@@2@@__crt_stdio_output@@AAE_NXZ 0041ca2e f i libucrt:output.obj
 0001:0001ba38       ?type_case_u@?$output_processor@DV?$string_output_adapter@D@__crt_stdio_output@@V?$format_validation_base@DV?$string_output_adapter@D@__crt_stdio_output@@@2@@__crt_stdio_output@@AAE_NXZ 0041ca38 f i libucrt:output.obj
 0001:0001ba42       ?type_case_u@?$output_processor@DV?$string_output_adapter@D@__crt_stdio_output@@V?$positional_parameter_base@DV?$string_output_adapter@D@__crt_stdio_output@@@2@@__crt_stdio_output@@AAE_NXZ 0041ca42 f i libucrt:output.obj
 0001:0001ba4c       ?type_case_u@?$output_processor@DV?$string_output_adapter@D@__crt_stdio_output@@V?$standard_base@DV?$string_output_adapter@D@__crt_stdio_output@@@2@@__crt_stdio_output@@AAE_NXZ 0041ca4c f i libucrt:output.obj
 0001:0001ba56       ?type_case_u@?$output_processor@_WV?$stream_output_adapter@_W@__crt_stdio_output@@V?$format_validation_base@_WV?$stream_output_adapter@_W@__crt_stdio_output@@@2@@__crt_stdio_output@@AAE_NXZ 0041ca56 f i libucrt:output.obj
 0001:0001ba60       ?type_case_u@?$output_processor@_WV?$stream_output_adapter@_W@__crt_stdio_output@@V?$positional_parameter_base@_WV?$stream_output_adapter@_W@__crt_stdio_output@@@2@@__crt_stdio_output@@AAE_NXZ 0041ca60 f i libucrt:output.obj
 0001:0001ba6a       ?type_case_u@?$output_processor@_WV?$stream_output_adapter@_W@__crt_stdio_output@@V?$standard_base@_WV?$stream_output_adapter@_W@__crt_stdio_output@@@2@@__crt_stdio_output@@AAE_NXZ 0041ca6a f i libucrt:output.obj
 0001:0001ba74       ?type_case_u@?$output_processor@_WV?$string_output_adapter@_W@__crt_stdio_output@@V?$format_validation_base@_WV?$string_output_adapter@_W@__crt_stdio_output@@@2@@__crt_stdio_output@@AAE_NXZ 0041ca74 f i libucrt:output.obj
 0001:0001ba7e       ?type_case_u@?$output_processor@_WV?$string_output_adapter@_W@__crt_stdio_output@@V?$positional_parameter_base@_WV?$string_output_adapter@_W@__crt_stdio_output@@@2@@__crt_stdio_output@@AAE_NXZ 0041ca7e f i libucrt:output.obj
 0001:0001ba88       ?type_case_u@?$output_processor@_WV?$string_output_adapter@_W@__crt_stdio_output@@V?$standard_base@_WV?$string_output_adapter@_W@__crt_stdio_output@@@2@@__crt_stdio_output@@AAE_NXZ 0041ca88 f i libucrt:output.obj
 0001:0001ba92       ?type_case_x@?$output_processor@DV?$stream_output_adapter@D@__crt_stdio_output@@V?$format_validation_base@DV?$stream_output_adapter@D@__crt_stdio_output@@@2@@__crt_stdio_output@@AAE_NXZ 0041ca92 f i libucrt:output.obj
 0001:0001ba9c       ?type_case_x@?$output_processor@DV?$stream_output_adapter@D@__crt_stdio_output@@V?$positional_parameter_base@DV?$stream_output_adapter@D@__crt_stdio_output@@@2@@__crt_stdio_output@@AAE_NXZ 0041ca9c f i libucrt:output.obj
 0001:0001baa6       ?type_case_x@?$output_processor@DV?$stream_output_adapter@D@__crt_stdio_output@@V?$standard_base@DV?$stream_output_adapter@D@__crt_stdio_output@@@2@@__crt_stdio_output@@AAE_NXZ 0041caa6 f i libucrt:output.obj
 0001:0001bab0       ?type_case_x@?$output_processor@DV?$string_output_adapter@D@__crt_stdio_output@@V?$format_validation_base@DV?$string_output_adapter@D@__crt_stdio_output@@@2@@__crt_stdio_output@@AAE_NXZ 0041cab0 f i libucrt:output.obj
 0001:0001baba       ?type_case_x@?$output_processor@DV?$string_output_adapter@D@__crt_stdio_output@@V?$positional_parameter_base@DV?$string_output_adapter@D@__crt_stdio_output@@@2@@__crt_stdio_output@@AAE_NXZ 0041caba f i libucrt:output.obj
 0001:0001bac4       ?type_case_x@?$output_processor@DV?$string_output_adapter@D@__crt_stdio_output@@V?$standard_base@DV?$string_output_adapter@D@__crt_stdio_output@@@2@@__crt_stdio_output@@AAE_NXZ 0041cac4 f i libucrt:output.obj
 0001:0001bace       ?type_case_x@?$output_processor@_WV?$stream_output_adapter@_W@__crt_stdio_output@@V?$format_validation_base@_WV?$stream_output_adapter@_W@__crt_stdio_output@@@2@@__crt_stdio_output@@AAE_NXZ 0041cace f i libucrt:output.obj
 0001:0001bad8       ?type_case_x@?$output_processor@_WV?$stream_output_adapter@_W@__crt_stdio_output@@V?$positional_parameter_base@_WV?$stream_output_adapter@_W@__crt_stdio_output@@@2@@__crt_stdio_output@@AAE_NXZ 0041cad8 f i libucrt:output.obj
 0001:0001bae2       ?type_case_x@?$output_processor@_WV?$stream_output_adapter@_W@__crt_stdio_output@@V?$standard_base@_WV?$stream_output_adapter@_W@__crt_stdio_output@@@2@@__crt_stdio_output@@AAE_NXZ 0041cae2 f i libucrt:output.obj
 0001:0001baec       ?type_case_x@?$output_processor@_WV?$string_output_adapter@_W@__crt_stdio_output@@V?$format_validation_base@_WV?$string_output_adapter@_W@__crt_stdio_output@@@2@@__crt_stdio_output@@AAE_NXZ 0041caec f i libucrt:output.obj
 0001:0001baf6       ?type_case_x@?$output_processor@_WV?$string_output_adapter@_W@__crt_stdio_output@@V?$positional_parameter_base@_WV?$string_output_adapter@_W@__crt_stdio_output@@@2@@__crt_stdio_output@@AAE_NXZ 0041caf6 f i libucrt:output.obj
 0001:0001bb00       ?type_case_x@?$output_processor@_WV?$string_output_adapter@_W@__crt_stdio_output@@V?$standard_base@_WV?$string_output_adapter@_W@__crt_stdio_output@@@2@@__crt_stdio_output@@AAE_NXZ 0041cb00 f i libucrt:output.obj
 0001:0001bb0a       ?unset_flag@?$output_processor@DV?$stream_output_adapter@D@__crt_stdio_output@@V?$format_validation_base@DV?$stream_output_adapter@D@__crt_stdio_output@@@2@@__crt_stdio_output@@AAEXI@Z 0041cb0a f i libucrt:output.obj
 0001:0001bb1b       ?unset_flag@?$output_processor@DV?$stream_output_adapter@D@__crt_stdio_output@@V?$positional_parameter_base@DV?$stream_output_adapter@D@__crt_stdio_output@@@2@@__crt_stdio_output@@AAEXI@Z 0041cb1b f i libucrt:output.obj
 0001:0001bb2c       ?unset_flag@?$output_processor@DV?$stream_output_adapter@D@__crt_stdio_output@@V?$standard_base@DV?$stream_output_adapter@D@__crt_stdio_output@@@2@@__crt_stdio_output@@AAEXI@Z 0041cb2c f i libucrt:output.obj
 0001:0001bb3d       ?unset_flag@?$output_processor@DV?$string_output_adapter@D@__crt_stdio_output@@V?$format_validation_base@DV?$string_output_adapter@D@__crt_stdio_output@@@2@@__crt_stdio_output@@AAEXI@Z 0041cb3d f i libucrt:output.obj
 0001:0001bb4e       ?unset_flag@?$output_processor@DV?$string_output_adapter@D@__crt_stdio_output@@V?$positional_parameter_base@DV?$string_output_adapter@D@__crt_stdio_output@@@2@@__crt_stdio_output@@AAEXI@Z 0041cb4e f i libucrt:output.obj
 0001:0001bb5f       ?unset_flag@?$output_processor@DV?$string_output_adapter@D@__crt_stdio_output@@V?$standard_base@DV?$string_output_adapter@D@__crt_stdio_output@@@2@@__crt_stdio_output@@AAEXI@Z 0041cb5f f i libucrt:output.obj
 0001:0001bb70       ?unset_flag@?$output_processor@_WV?$stream_output_adapter@_W@__crt_stdio_output@@V?$format_validation_base@_WV?$stream_output_adapter@_W@__crt_stdio_output@@@2@@__crt_stdio_output@@AAEXI@Z 0041cb70 f i libucrt:output.obj
 0001:0001bb81       ?unset_flag@?$output_processor@_WV?$stream_output_adapter@_W@__crt_stdio_output@@V?$positional_parameter_base@_WV?$stream_output_adapter@_W@__crt_stdio_output@@@2@@__crt_stdio_output@@AAEXI@Z 0041cb81 f i libucrt:output.obj
 0001:0001bb92       ?unset_flag@?$output_processor@_WV?$stream_output_adapter@_W@__crt_stdio_output@@V?$standard_base@_WV?$stream_output_adapter@_W@__crt_stdio_output@@@2@@__crt_stdio_output@@AAEXI@Z 0041cb92 f i libucrt:output.obj
 0001:0001bba3       ?unset_flag@?$output_processor@_WV?$string_output_adapter@_W@__crt_stdio_output@@V?$format_validation_base@_WV?$string_output_adapter@_W@__crt_stdio_output@@@2@@__crt_stdio_output@@AAEXI@Z 0041cba3 f i libucrt:output.obj
 0001:0001bbb4       ?unset_flag@?$output_processor@_WV?$string_output_adapter@_W@__crt_stdio_output@@V?$positional_parameter_base@_WV?$string_output_adapter@_W@__crt_stdio_output@@@2@@__crt_stdio_output@@AAEXI@Z 0041cbb4 f i libucrt:output.obj
 0001:0001bbc5       ?unset_flag@?$output_processor@_WV?$string_output_adapter@_W@__crt_stdio_output@@V?$standard_base@_WV?$string_output_adapter@_W@__crt_stdio_output@@@2@@__crt_stdio_output@@AAEXI@Z 0041cbc5 f i libucrt:output.obj
 0001:0001bbd6       ?update_field_width@?$positional_parameter_base@DV?$stream_output_adapter@D@__crt_stdio_output@@@__crt_stdio_output@@IAE_NXZ 0041cbd6 f i libucrt:output.obj
 0001:0001bc8a       ?update_field_width@?$positional_parameter_base@DV?$string_output_adapter@D@__crt_stdio_output@@@__crt_stdio_output@@IAE_NXZ 0041cc8a f i libucrt:output.obj
 0001:0001bd3e       ?update_field_width@?$positional_parameter_base@_WV?$stream_output_adapter@_W@__crt_stdio_output@@@__crt_stdio_output@@IAE_NXZ 0041cd3e f i libucrt:output.obj
 0001:0001bdf3       ?update_field_width@?$positional_parameter_base@_WV?$string_output_adapter@_W@__crt_stdio_output@@@__crt_stdio_output@@IAE_NXZ 0041cdf3 f i libucrt:output.obj
 0001:0001bea8       ?update_field_width@?$standard_base@DV?$stream_output_adapter@D@__crt_stdio_output@@@__crt_stdio_output@@IAE_NXZ 0041cea8 f i libucrt:output.obj
 0001:0001beb8       ?update_field_width@?$standard_base@DV?$string_output_adapter@D@__crt_stdio_output@@@__crt_stdio_output@@IAE_NXZ 0041ceb8 f i libucrt:output.obj
 0001:0001bec8       ?update_field_width@?$standard_base@_WV?$stream_output_adapter@_W@__crt_stdio_output@@@__crt_stdio_output@@IAE_NXZ 0041cec8 f i libucrt:output.obj
 0001:0001bed8       ?update_field_width@?$standard_base@_WV?$string_output_adapter@_W@__crt_stdio_output@@@__crt_stdio_output@@IAE_NXZ 0041ced8 f i libucrt:output.obj
 0001:0001bee8       ?update_precision@?$positional_parameter_base@DV?$stream_output_adapter@D@__crt_stdio_output@@@__crt_stdio_output@@IAE_NXZ 0041cee8 f i libucrt:output.obj
 0001:0001bf9c       ?update_precision@?$positional_parameter_base@DV?$string_output_adapter@D@__crt_stdio_output@@@__crt_stdio_output@@IAE_NXZ 0041cf9c f i libucrt:output.obj
 0001:0001c050       ?update_precision@?$positional_parameter_base@_WV?$stream_output_adapter@_W@__crt_stdio_output@@@__crt_stdio_output@@IAE_NXZ 0041d050 f i libucrt:output.obj
 0001:0001c105       ?update_precision@?$positional_parameter_base@_WV?$string_output_adapter@_W@__crt_stdio_output@@@__crt_stdio_output@@IAE_NXZ 0041d105 f i libucrt:output.obj
 0001:0001c1ba       ?update_precision@?$standard_base@DV?$stream_output_adapter@D@__crt_stdio_output@@@__crt_stdio_output@@IAE_NXZ 0041d1ba f i libucrt:output.obj
 0001:0001c1ca       ?update_precision@?$standard_base@DV?$string_output_adapter@D@__crt_stdio_output@@@__crt_stdio_output@@IAE_NXZ 0041d1ca f i libucrt:output.obj
 0001:0001c1da       ?update_precision@?$standard_base@_WV?$stream_output_adapter@_W@__crt_stdio_output@@@__crt_stdio_output@@IAE_NXZ 0041d1da f i libucrt:output.obj
 0001:0001c1ea       ?update_precision@?$standard_base@_WV?$string_output_adapter@_W@__crt_stdio_output@@@__crt_stdio_output@@IAE_NXZ 0041d1ea f i libucrt:output.obj
 0001:0001c1fa       ?validate@?$stream_output_adapter@D@__crt_stdio_output@@QBE_NXZ 0041d1fa f i libucrt:output.obj
 0001:0001c21b       ?validate@?$stream_output_adapter@_W@__crt_stdio_output@@QBE_NXZ 0041d21b f i libucrt:output.obj
 0001:0001c236       ?validate@?$string_output_adapter@D@__crt_stdio_output@@QBE_NXZ 0041d236 f i libucrt:output.obj
 0001:0001c251       ?validate@?$string_output_adapter@_W@__crt_stdio_output@@QBE_NXZ 0041d251 f i libucrt:output.obj
 0001:0001c26c       ?validate_and_store_parameter_data@?$positional_parameter_base@DV?$stream_output_adapter@D@__crt_stdio_output@@@__crt_stdio_output@@AAE_NAAUparameter_data@12@W4parameter_type@12@DW4length_modifier@2@@Z 0041d26c f i libucrt:output.obj
 0001:0001c2b7       ?validate_and_store_parameter_data@?$positional_parameter_base@DV?$string_output_adapter@D@__crt_stdio_output@@@__crt_stdio_output@@AAE_NAAUparameter_data@12@W4parameter_type@12@DW4length_modifier@2@@Z 0041d2b7 f i libucrt:output.obj
 0001:0001c302       ?validate_and_store_parameter_data@?$positional_parameter_base@_WV?$stream_output_adapter@_W@__crt_stdio_output@@@__crt_stdio_output@@AAE_NAAUparameter_data@12@W4parameter_type@12@_WW4length_modifier@2@@Z 0041d302 f i libucrt:output.obj
 0001:0001c34f       ?validate_and_store_parameter_data@?$positional_parameter_base@_WV?$string_output_adapter@_W@__crt_stdio_output@@@__crt_stdio_output@@AAE_NAAUparameter_data@12@W4parameter_type@12@_WW4length_modifier@2@@Z 0041d34f f i libucrt:output.obj
 0001:0001c39c       ?validate_and_update_state_at_beginning_of_format_character@?$positional_parameter_base@DV?$stream_output_adapter@D@__crt_stdio_output@@@__crt_stdio_output@@IAE_NXZ 0041d39c f i libucrt:output.obj
 0001:0001c494       ?validate_and_update_state_at_beginning_of_format_character@?$positional_parameter_base@DV?$string_output_adapter@D@__crt_stdio_output@@@__crt_stdio_output@@IAE_NXZ 0041d494 f i libucrt:output.obj
 0001:0001c58c       ?validate_and_update_state_at_beginning_of_format_character@?$positional_parameter_base@_WV?$stream_output_adapter@_W@__crt_stdio_output@@@__crt_stdio_output@@IAE_NXZ 0041d58c f i libucrt:output.obj
 0001:0001c68d       ?validate_and_update_state_at_beginning_of_format_character@?$positional_parameter_base@_WV?$string_output_adapter@_W@__crt_stdio_output@@@__crt_stdio_output@@IAE_NXZ 0041d68d f i libucrt:output.obj
 0001:0001c78e       ?validate_and_update_state_at_beginning_of_format_character@?$standard_base@DV?$stream_output_adapter@D@__crt_stdio_output@@@__crt_stdio_output@@IAE_NXZ 0041d78e f i libucrt:output.obj
 0001:0001c791       ?validate_and_update_state_at_beginning_of_format_character@?$standard_base@DV?$string_output_adapter@D@__crt_stdio_output@@@__crt_stdio_output@@IAE_NXZ 0041d791 f i libucrt:output.obj
 0001:0001c794       ?validate_and_update_state_at_beginning_of_format_character@?$standard_base@_WV?$stream_output_adapter@_W@__crt_stdio_output@@@__crt_stdio_output@@IAE_NXZ 0041d794 f i libucrt:output.obj
 0001:0001c797       ?validate_and_update_state_at_beginning_of_format_character@?$standard_base@_WV?$string_output_adapter@_W@__crt_stdio_output@@@__crt_stdio_output@@IAE_NXZ 0041d797 f i libucrt:output.obj
 0001:0001c79a       ?validate_and_update_state_at_end_of_format_string@?$format_validation_base@DV?$stream_output_adapter@D@__crt_stdio_output@@@__crt_stdio_output@@IBE_NXZ 0041d79a f i libucrt:output.obj
 0001:0001c7bc       ?validate_and_update_state_at_end_of_format_string@?$format_validation_base@DV?$string_output_adapter@D@__crt_stdio_output@@@__crt_stdio_output@@IBE_NXZ 0041d7bc f i libucrt:output.obj
 0001:0001c7de       ?validate_and_update_state_at_end_of_format_string@?$format_validation_base@_WV?$stream_output_adapter@_W@__crt_stdio_output@@@__crt_stdio_output@@IBE_NXZ 0041d7de f i libucrt:output.obj
 0001:0001c800       ?validate_and_update_state_at_end_of_format_string@?$format_validation_base@_WV?$string_output_adapter@_W@__crt_stdio_output@@@__crt_stdio_output@@IBE_NXZ 0041d800 f i libucrt:output.obj
 0001:0001c822       ?validate_and_update_state_at_end_of_format_string@?$positional_parameter_base@DV?$stream_output_adapter@D@__crt_stdio_output@@@__crt_stdio_output@@IAE_NXZ 0041d822 f i libucrt:output.obj
 0001:0001c8b2       ?validate_and_update_state_at_end_of_format_string@?$positional_parameter_base@DV?$string_output_adapter@D@__crt_stdio_output@@@__crt_stdio_output@@IAE_NXZ 0041d8b2 f i libucrt:output.obj
 0001:0001c942       ?validate_and_update_state_at_end_of_format_string@?$positional_parameter_base@_WV?$stream_output_adapter@_W@__crt_stdio_output@@@__crt_stdio_output@@IAE_NXZ 0041d942 f i libucrt:output.obj
 0001:0001c9d2       ?validate_and_update_state_at_end_of_format_string@?$positional_parameter_base@_WV?$string_output_adapter@_W@__crt_stdio_output@@@__crt_stdio_output@@IAE_NXZ 0041d9d2 f i libucrt:output.obj
 0001:0001ca62       ?validate_and_update_state_at_end_of_format_string@?$standard_base@DV?$stream_output_adapter@D@__crt_stdio_output@@@__crt_stdio_output@@IBE_NXZ 0041da62 f i libucrt:output.obj
 0001:0001ca65       ?validate_and_update_state_at_end_of_format_string@?$standard_base@DV?$string_output_adapter@D@__crt_stdio_output@@@__crt_stdio_output@@IBE_NXZ 0041da65 f i libucrt:output.obj
 0001:0001ca68       ?validate_and_update_state_at_end_of_format_string@?$standard_base@_WV?$stream_output_adapter@_W@__crt_stdio_output@@@__crt_stdio_output@@IBE_NXZ 0041da68 f i libucrt:output.obj
 0001:0001ca6b       ?validate_and_update_state_at_end_of_format_string@?$standard_base@_WV?$string_output_adapter@_W@__crt_stdio_output@@@__crt_stdio_output@@IBE_NXZ 0041da6b f i libucrt:output.obj
 0001:0001ca6e       ?validate_state_for_type_case_a@?$positional_parameter_base@DV?$stream_output_adapter@D@__crt_stdio_output@@@__crt_stdio_output@@IAE_NXZ 0041da6e f i libucrt:output.obj
 0001:0001cabd       ?validate_state_for_type_case_a@?$positional_parameter_base@DV?$string_output_adapter@D@__crt_stdio_output@@@__crt_stdio_output@@IAE_NXZ 0041dabd f i libucrt:output.obj
 0001:0001cb0c       ?validate_state_for_type_case_a@?$positional_parameter_base@_WV?$stream_output_adapter@_W@__crt_stdio_output@@@__crt_stdio_output@@IAE_NXZ 0041db0c f i libucrt:output.obj
 0001:0001cb5b       ?validate_state_for_type_case_a@?$positional_parameter_base@_WV?$string_output_adapter@_W@__crt_stdio_output@@@__crt_stdio_output@@IAE_NXZ 0041db5b f i libucrt:output.obj
 0001:0001cbaa       ?validate_state_for_type_case_a@?$standard_base@DV?$stream_output_adapter@D@__crt_stdio_output@@@__crt_stdio_output@@IBE_NXZ 0041dbaa f i libucrt:output.obj
 0001:0001cbad       ?validate_state_for_type_case_a@?$standard_base@DV?$string_output_adapter@D@__crt_stdio_output@@@__crt_stdio_output@@IBE_NXZ 0041dbad f i libucrt:output.obj
 0001:0001cbb0       ?validate_state_for_type_case_a@?$standard_base@_WV?$stream_output_adapter@_W@__crt_stdio_output@@@__crt_stdio_output@@IBE_NXZ 0041dbb0 f i libucrt:output.obj
 0001:0001cbb3       ?validate_state_for_type_case_a@?$standard_base@_WV?$string_output_adapter@_W@__crt_stdio_output@@@__crt_stdio_output@@IBE_NXZ 0041dbb3 f i libucrt:output.obj
 0001:0001cbb6       ?validate_stream_is_ansi_if_required@?$__acrt_stdio_char_traits@D@@SA_NQAU_iobuf@@@Z 0041dbb6 f i libucrt:output.obj
 0001:0001cc3d       ?validate_stream_is_ansi_if_required@?$__acrt_stdio_char_traits@_W@@SA_NQAU_iobuf@@@Z 0041dc3d f i libucrt:output.obj
 0001:0001cc40       ?wide_null_string@?$output_processor@DV?$stream_output_adapter@D@__crt_stdio_output@@V?$format_validation_base@DV?$stream_output_adapter@D@__crt_stdio_output@@@2@@__crt_stdio_output@@CAPA_WXZ 0041dc40 f i libucrt:output.obj
 0001:0001cc46       ?wide_null_string@?$output_processor@DV?$stream_output_adapter@D@__crt_stdio_output@@V?$positional_parameter_base@DV?$stream_output_adapter@D@__crt_stdio_output@@@2@@__crt_stdio_output@@CAPA_WXZ 0041dc46 f i libucrt:output.obj
 0001:0001cc4c       ?wide_null_string@?$output_processor@DV?$stream_output_adapter@D@__crt_stdio_output@@V?$standard_base@DV?$stream_output_adapter@D@__crt_stdio_output@@@2@@__crt_stdio_output@@CAPA_WXZ 0041dc4c f i libucrt:output.obj
 0001:0001cc52       ?wide_null_string@?$output_processor@DV?$string_output_adapter@D@__crt_stdio_output@@V?$format_validation_base@DV?$string_output_adapter@D@__crt_stdio_output@@@2@@__crt_stdio_output@@CAPA_WXZ 0041dc52 f i libucrt:output.obj
 0001:0001cc58       ?wide_null_string@?$output_processor@DV?$string_output_adapter@D@__crt_stdio_output@@V?$positional_parameter_base@DV?$string_output_adapter@D@__crt_stdio_output@@@2@@__crt_stdio_output@@CAPA_WXZ 0041dc58 f i libucrt:output.obj
 0001:0001cc5e       ?wide_null_string@?$output_processor@DV?$string_output_adapter@D@__crt_stdio_output@@V?$standard_base@DV?$string_output_adapter@D@__crt_stdio_output@@@2@@__crt_stdio_output@@CAPA_WXZ 0041dc5e f i libucrt:output.obj
 0001:0001cc64       ?wide_null_string@?$output_processor@_WV?$stream_output_adapter@_W@__crt_stdio_output@@V?$format_validation_base@_WV?$stream_output_adapter@_W@__crt_stdio_output@@@2@@__crt_stdio_output@@CAPA_WXZ 0041dc64 f i libucrt:output.obj
 0001:0001cc6a       ?wide_null_string@?$output_processor@_WV?$stream_output_adapter@_W@__crt_stdio_output@@V?$positional_parameter_base@_WV?$stream_output_adapter@_W@__crt_stdio_output@@@2@@__crt_stdio_output@@CAPA_WXZ 0041dc6a f i libucrt:output.obj
 0001:0001cc70       ?wide_null_string@?$output_processor@_WV?$stream_output_adapter@_W@__crt_stdio_output@@V?$standard_base@_WV?$stream_output_adapter@_W@__crt_stdio_output@@@2@@__crt_stdio_output@@CAPA_WXZ 0041dc70 f i libucrt:output.obj
 0001:0001cc76       ?wide_null_string@?$output_processor@_WV?$string_output_adapter@_W@__crt_stdio_output@@V?$format_validation_base@_WV?$string_output_adapter@_W@__crt_stdio_output@@@2@@__crt_stdio_output@@CAPA_WXZ 0041dc76 f i libucrt:output.obj
 0001:0001cc7c       ?wide_null_string@?$output_processor@_WV?$string_output_adapter@_W@__crt_stdio_output@@V?$positional_parameter_base@_WV?$string_output_adapter@_W@__crt_stdio_output@@@2@@__crt_stdio_output@@CAPA_WXZ 0041dc7c f i libucrt:output.obj
 0001:0001cc82       ?wide_null_string@?$output_processor@_WV?$string_output_adapter@_W@__crt_stdio_output@@V?$standard_base@_WV?$string_output_adapter@_W@__crt_stdio_output@@@2@@__crt_stdio_output@@CAPA_WXZ 0041dc82 f i libucrt:output.obj
 0001:0001cc88       ?write_character@?$output_adapter_common@DV?$stream_output_adapter@D@__crt_stdio_output@@@__crt_stdio_output@@QBEXDQAH@Z 0041dc88 f i libucrt:output.obj
 0001:0001cca7       ?write_character@?$output_adapter_common@_WV?$stream_output_adapter@_W@__crt_stdio_output@@@__crt_stdio_output@@QBEX_WQAH@Z 0041dca7 f i libucrt:output.obj
 0001:0001ccc6       ?write_character@?$string_output_adapter@D@__crt_stdio_output@@QBE_NDQAH@Z 0041dcc6 f i libucrt:output.obj
 0001:0001cd08       ?write_character@?$string_output_adapter@_W@__crt_stdio_output@@QBE_N_WQAH@Z 0041dd08 f i libucrt:output.obj
 0001:0001cd4d       ?write_character_without_count_update@?$stream_output_adapter@D@__crt_stdio_output@@QBE_ND@Z 0041dd4d f i libucrt:output.obj
 0001:0001cd83       ?write_character_without_count_update@?$stream_output_adapter@_W@__crt_stdio_output@@QBE_N_W@Z 0041dd83 f i libucrt:output.obj
 0001:0001cdbc       ?write_stored_string_tchar@?$output_processor@DV?$stream_output_adapter@D@__crt_stdio_output@@V?$format_validation_base@DV?$stream_output_adapter@D@__crt_stdio_output@@@2@@__crt_stdio_output@@AAE_ND@Z 0041ddbc f i libucrt:output.obj
 0001:0001ce61       ?write_stored_string_tchar@?$output_processor@DV?$stream_output_adapter@D@__crt_stdio_output@@V?$positional_parameter_base@DV?$stream_output_adapter@D@__crt_stdio_output@@@2@@__crt_stdio_output@@AAE_ND@Z 0041de61 f i libucrt:output.obj
 0001:0001cf06       ?write_stored_string_tchar@?$output_processor@DV?$stream_output_adapter@D@__crt_stdio_output@@V?$standard_base@DV?$stream_output_adapter@D@__crt_stdio_output@@@2@@__crt_stdio_output@@AAE_ND@Z 0041df06 f i libucrt:output.obj
 0001:0001cfab       ?write_stored_string_tchar@?$output_processor@DV?$string_output_adapter@D@__crt_stdio_output@@V?$format_validation_base@DV?$string_output_adapter@D@__crt_stdio_output@@@2@@__crt_stdio_output@@AAE_ND@Z 0041dfab f i libucrt:output.obj
 0001:0001d050       ?write_stored_string_tchar@?$output_processor@DV?$string_output_adapter@D@__crt_stdio_output@@V?$positional_parameter_base@DV?$string_output_adapter@D@__crt_stdio_output@@@2@@__crt_stdio_output@@AAE_ND@Z 0041e050 f i libucrt:output.obj
 0001:0001d0f5       ?write_stored_string_tchar@?$output_processor@DV?$string_output_adapter@D@__crt_stdio_output@@V?$standard_base@DV?$string_output_adapter@D@__crt_stdio_output@@@2@@__crt_stdio_output@@AAE_ND@Z 0041e0f5 f i libucrt:output.obj
 0001:0001d19a       ?write_stored_string_tchar@?$output_processor@_WV?$stream_output_adapter@_W@__crt_stdio_output@@V?$format_validation_base@_WV?$stream_output_adapter@_W@__crt_stdio_output@@@2@@__crt_stdio_output@@AAE_N_W@Z 0041e19a f i libucrt:output.obj
 0001:0001d227       ?write_stored_string_tchar@?$output_processor@_WV?$stream_output_adapter@_W@__crt_stdio_output@@V?$positional_parameter_base@_WV?$stream_output_adapter@_W@__crt_stdio_output@@@2@@__crt_stdio_output@@AAE_N_W@Z 0041e227 f i libucrt:output.obj
 0001:0001d2b4       ?write_stored_string_tchar@?$output_processor@_WV?$stream_output_adapter@_W@__crt_stdio_output@@V?$standard_base@_WV?$stream_output_adapter@_W@__crt_stdio_output@@@2@@__crt_stdio_output@@AAE_N_W@Z 0041e2b4 f i libucrt:output.obj
 0001:0001d341       ?write_stored_string_tchar@?$output_processor@_WV?$string_output_adapter@_W@__crt_stdio_output@@V?$format_validation_base@_WV?$string_output_adapter@_W@__crt_stdio_output@@@2@@__crt_stdio_output@@AAE_N_W@Z 0041e341 f i libucrt:output.obj
 0001:0001d3ce       ?write_stored_string_tchar@?$output_processor@_WV?$string_output_adapter@_W@__crt_stdio_output@@V?$positional_parameter_base@_WV?$string_output_adapter@_W@__crt_stdio_output@@@2@@__crt_stdio_output@@AAE_N_W@Z 0041e3ce f i libucrt:output.obj
 0001:0001d45b       ?write_stored_string_tchar@?$output_processor@_WV?$string_output_adapter@_W@__crt_stdio_output@@V?$standard_base@_WV?$string_output_adapter@_W@__crt_stdio_output@@@2@@__crt_stdio_output@@AAE_N_W@Z 0041e45b f i libucrt:output.obj
 0001:0001d4e8       ?write_string@?$stream_output_adapter@D@__crt_stdio_output@@QBEXQBDHQAHAAV__crt_deferred_errno_cache@@@Z 0041e4e8 f i libucrt:output.obj
 0001:0001d514       ?write_string@?$stream_output_adapter@_W@__crt_stdio_output@@QBEXQB_WHQAHAAV__crt_deferred_errno_cache@@@Z 0041e514 f i libucrt:output.obj
 0001:0001d540       ?write_string@?$string_output_adapter@D@__crt_stdio_output@@QBEXQBDHQAHAAV__crt_deferred_errno_cache@@@Z 0041e540 f i libucrt:output.obj
 0001:0001d5a7       ?write_string@?$string_output_adapter@_W@__crt_stdio_output@@QBEXQB_WHQAHAAV__crt_deferred_errno_cache@@@Z 0041e5a7 f i libucrt:output.obj
 0001:0001d618       ?write_string_impl@?$output_adapter_common@DV?$stream_output_adapter@D@__crt_stdio_output@@@__crt_stdio_output@@IBEXQBDHQAHAAV__crt_deferred_errno_cache@@@Z 0041e618 f i libucrt:output.obj
 0001:0001d6b6       ?write_string_impl@?$output_adapter_common@_WV?$stream_output_adapter@_W@__crt_stdio_output@@@__crt_stdio_output@@IBEXQB_WHQAHAAV__crt_deferred_errno_cache@@@Z 0041e6b6 f i libucrt:output.obj
 0001:0001d757       ___acrt_disable_global_locale_sync 0041e757 f i libucrt:output.obj
 0001:0001d76a       ___acrt_enable_global_locale_sync 0041e76a f i libucrt:output.obj
 0001:0001d77f       ___acrt_isleadbyte_l_noupdate 0041e77f f i libucrt:output.obj
 0001:0001d79d       ___acrt_locale_changed     0041e79d f i libucrt:output.obj
 0001:0001d7a8       ___acrt_locale_get_ctype_array_value 0041e7a8 f i libucrt:output.obj
 0001:0001d7ca       ___stdio_common_vfprintf   0041e7ca f   libucrt:output.obj
 0001:0001d84d       ___stdio_common_vfprintf_p 0041e84d f   libucrt:output.obj
 0001:0001d8d0       ___stdio_common_vfprintf_s 0041e8d0 f   libucrt:output.obj
 0001:0001d953       ___stdio_common_vfwprintf  0041e953 f   libucrt:output.obj
 0001:0001d9d6       ___stdio_common_vfwprintf_p 0041e9d6 f   libucrt:output.obj
 0001:0001da59       ___stdio_common_vfwprintf_s 0041ea59 f   libucrt:output.obj
 0001:0001dadc       ___stdio_common_vsnprintf_s 0041eadc f   libucrt:output.obj
 0001:0001db03       ___stdio_common_vsnwprintf_s 0041eb03 f   libucrt:output.obj
 0001:0001db2a       ___stdio_common_vsprintf   0041eb2a f   libucrt:output.obj
 0001:0001db4e       ___stdio_common_vsprintf_p 0041eb4e f   libucrt:output.obj
 0001:0001db72       ___stdio_common_vsprintf_s 0041eb72 f   libucrt:output.obj
 0001:0001db96       ___stdio_common_vswprintf  0041eb96 f   libucrt:output.obj
 0001:0001dbba       ___stdio_common_vswprintf_p 0041ebba f   libucrt:output.obj
 0001:0001dbde       ___stdio_common_vswprintf_s 0041ebde f   libucrt:output.obj
 0001:0001dc02       __ctype_fast_check_internal 0041ec02 f i libucrt:output.obj
 0001:0001dc1c       __isdigit_fast_internal    0041ec1c f i libucrt:output.obj
 0001:0001dc36       __tolower_fast_internal    0041ec36 f i libucrt:output.obj
 0001:0001dc73       __seh_filter_dll           0041ec73 f   libucrt:exception_filter.obj
 0001:0001dc93       __seh_filter_exe           0041ec93 f   libucrt:exception_filter.obj
 0001:0001de89       ___acrt_report_runtime_error 0041ee89 f   libucrt:report_runtime_error.obj
 0001:0001df9e       __invoke_watson_if_error   0041ef9e f i libucrt:report_runtime_error.obj
 0001:0001dfc0       __query_app_type           0041efc0 f   libucrt:report_runtime_error.obj
 0001:0001dfc6       __set_app_type             0041efc6 f   libucrt:report_runtime_error.obj
 0001:0001dfd5       ??$__crt_fast_decode_pointer@P6AHPAU_exception@@@Z@@YAP6AHPAU_exception@@@ZQ6AH0@Z@Z 0041efd5 f i libucrt:matherr.obj
 0001:0001dfeb       ??$__crt_fast_encode_pointer@P6AHPAU_exception@@@Z@@YAP6AHPAU_exception@@@ZQ6AH0@Z@Z 0041efeb f i libucrt:matherr.obj
 0001:0001e00a       ?get_current_state_index@__crt_state_management@@YAIXZ 0041f00a f i libucrt:matherr.obj
 0001:0001e00d       ?initialize@?$dual_state_global@P6AHPAU_exception@@@Z@__crt_state_management@@QAEXQ6AHPAU_exception@@@Z@Z 0041f00d f i libucrt:matherr.obj
 0001:0001e033       ?value@?$dual_state_global@P6AHPAU_exception@@@Z@__crt_state_management@@QAEAAP6AHPAU_exception@@@ZXZ 0041f033 f i libucrt:matherr.obj
 0001:0001e036       ___acrt_has_user_matherr   0041f036 f   libucrt:matherr.obj
 0001:0001e04e       ___acrt_initialize_user_matherr 0041f04e f   libucrt:matherr.obj
 0001:0001e05d       ___acrt_invoke_user_matherr 0041f05d f   libucrt:matherr.obj
 0001:0001e08f       ___setusermatherr          0041f08f f   libucrt:matherr.obj
 0001:0001e0a4       ??$?RE@__crt_internal_free_policy@@QBEXQBE@Z 0041f0a4 f i libucrt:argv_parsing.obj
 0001:0001e0b6       ??$?RPAD@__crt_internal_free_policy@@QBEXQBQAD@Z 0041f0b6 f i libucrt:argv_parsing.obj
 0001:0001e0c8       ??$?RPA_W@__crt_internal_free_policy@@QBEXQBQA_W@Z 0041f0c8 f i libucrt:argv_parsing.obj
 0001:0001e33f       ??$get_module_file_name@$$TAAY0BAF@DH@?$__crt_char_traits@D@@SAK$$QA$$TAAY0BAF@D$$QAH@Z 0041f33f f i libucrt:argv_parsing.obj
 0001:0001e35b       ??$get_module_file_name@$$TAAY0BAF@_WH@?$__crt_char_traits@_W@@SAK$$QA$$TAAY0BAF@_W$$QAH@Z 0041f35b f i libucrt:argv_parsing.obj
 0001:0001e67d       ??$set_program_name@PAD@?$__crt_char_traits@D@@SAX$$QAPAD@Z 0041f67d f i libucrt:argv_parsing.obj
 0001:0001e68e       ??$set_program_name@PA_W@?$__crt_char_traits@_W@@SAX$$QAPA_W@Z 0041f68e f i libucrt:argv_parsing.obj
 0001:0001e6bf       ??0?$__crt_unique_heap_ptr@EU__crt_internal_free_policy@@@@QAE@QAE@Z 0041f6bf f i libucrt:argv_parsing.obj
 0001:0001e6cf       ??0?$__crt_unique_heap_ptr@PADU__crt_internal_free_policy@@@@QAE@QAPAD@Z 0041f6cf f i libucrt:argv_parsing.obj
 0001:0001e6df       ??0?$__crt_unique_heap_ptr@PA_WU__crt_internal_free_policy@@@@QAE@QAPA_W@Z 0041f6df f i libucrt:argv_parsing.obj
 0001:0001e6ef       ??1?$__crt_unique_heap_ptr@EU__crt_internal_free_policy@@@@QAE@XZ 0041f6ef f i libucrt:argv_parsing.obj
 0001:0001e701       ??1?$__crt_unique_heap_ptr@PADU__crt_internal_free_policy@@@@QAE@XZ 0041f701 f i libucrt:argv_parsing.obj
 0001:0001e713       ??1?$__crt_unique_heap_ptr@PA_WU__crt_internal_free_policy@@@@QAE@XZ 0041f713 f i libucrt:argv_parsing.obj
 0001:0001e725       ??B?$__crt_unique_heap_ptr@EU__crt_internal_free_policy@@@@QBE_NXZ 0041f725 f i libucrt:argv_parsing.obj
 0001:0001e758       ?detach@?$__crt_unique_heap_ptr@EU__crt_internal_free_policy@@@@QAEPAEXZ 0041f758 f i libucrt:argv_parsing.obj
 0001:0001e75e       ?detach@?$__crt_unique_heap_ptr@PADU__crt_internal_free_policy@@@@QAEPAPADXZ 0041f75e f i libucrt:argv_parsing.obj
 0001:0001e764       ?detach@?$__crt_unique_heap_ptr@PA_WU__crt_internal_free_policy@@@@QAEPAPA_WXZ 0041f764 f i libucrt:argv_parsing.obj
 0001:0001e788       ?get@?$__crt_unique_heap_ptr@EU__crt_internal_free_policy@@@@QBEPAEXZ 0041f788 f i libucrt:argv_parsing.obj
 0001:0001e78b       ?get@?$__crt_unique_heap_ptr@PADU__crt_internal_free_policy@@@@QBEPAPADXZ 0041f78b f i libucrt:argv_parsing.obj
 0001:0001e78e       ?get@?$__crt_unique_heap_ptr@PA_WU__crt_internal_free_policy@@@@QBEPAPA_WXZ 0041f78e f i libucrt:argv_parsing.obj
 0001:0001e791       ?get_address_of@?$__crt_unique_heap_ptr@PADU__crt_internal_free_policy@@@@QAEPAPAPADXZ 0041f791 f i libucrt:argv_parsing.obj
 0001:0001e794       ?get_address_of@?$__crt_unique_heap_ptr@PA_WU__crt_internal_free_policy@@@@QAEPAPAPA_WXZ 0041f794 f i libucrt:argv_parsing.obj
 0001:0001e7af       ?is_valid@?$__crt_unique_heap_ptr@EU__crt_internal_free_policy@@@@QBE_NXZ 0041f7af f i libucrt:argv_parsing.obj
 0001:0001e7b6       ?release@?$__crt_unique_heap_ptr@EU__crt_internal_free_policy@@@@QAEXXZ 0041f7b6 f i libucrt:argv_parsing.obj
 0001:0001e7c8       ?release@?$__crt_unique_heap_ptr@PADU__crt_internal_free_policy@@@@QAEXXZ 0041f7c8 f i libucrt:argv_parsing.obj
 0001:0001e7da       ?release@?$__crt_unique_heap_ptr@PA_WU__crt_internal_free_policy@@@@QAEXXZ 0041f7da f i libucrt:argv_parsing.obj
 0001:0001e806       ___acrt_allocate_buffer_for_argv 0041f806 f   libucrt:argv_parsing.obj
 0001:0001e855       __configure_narrow_argv    0041f855 f   libucrt:argv_parsing.obj
 0001:0001e860       __configure_wide_argv      0041f860 f   libucrt:argv_parsing.obj
 0001:0001e86b       __set_pgmptr               0041f86b f i libucrt:argv_parsing.obj
 0001:0001e87a       __set_wpgmptr              0041f87a f i libucrt:argv_parsing.obj
 0001:0001e889       ??$?R_W@__crt_internal_free_policy@@QBEXQB_W@Z 0041f889 f i libucrt:environment_initialization.obj
 0001:0001ec74       ??$get_environment_from_os@$$V@?$__crt_char_traits@D@@SAPADXZ 0041fc74 f i libucrt:environment_initialization.obj
 0001:0001ec79       ??$get_environment_from_os@$$V@?$__crt_char_traits@_W@@SAPA_WXZ 0041fc79 f i libucrt:environment_initialization.obj
 0001:0001ed7e       ??$set_variable_in_environment_nolock@PADH@?$__crt_char_traits@D@@SAH$$QAPAD$$QAH@Z 0041fd7e f i libucrt:environment_initialization.obj
 0001:0001ed96       ??$set_variable_in_environment_nolock@PA_WH@?$__crt_char_traits@_W@@SAH$$QAPA_W$$QAH@Z 0041fd96 f i libucrt:environment_initialization.obj
 0001:0001edae       ??$tcscpy_s@PADABIAAPAD@?$__crt_char_traits@D@@SAH$$QAPADABIAAPAD@Z 0041fdae f i libucrt:environment_initialization.obj
 0001:0001edcc       ??$tcscpy_s@PA_WABIAAPA_W@?$__crt_char_traits@_W@@SAH$$QAPA_WABIAAPA_W@Z 0041fdcc f i libucrt:environment_initialization.obj
 0001:0001edea       ??$tcslen@AAPAD@?$__crt_char_traits@D@@SAIAAPAD@Z 0041fdea f i libucrt:environment_initialization.obj
 0001:0001ee02       ??$tcslen@AAPA_W@?$__crt_char_traits@_W@@SAIAAPA_W@Z 0041fe02 f i libucrt:environment_initialization.obj
 0001:0001ee20       ??$uninitialize@A6AXAAPAPAD@Z@?$dual_state_global@PAPAD@__crt_state_management@@QAEXA6AXAAPAPAD@Z@Z 0041fe20 f i libucrt:environment_initialization.obj
 0001:0001ee49       ??$uninitialize@A6AXAAPAPA_W@Z@?$dual_state_global@PAPA_W@__crt_state_management@@QAEXA6AXAAPAPA_W@Z@Z 0041fe49 f i libucrt:environment_initialization.obj
 0001:0001eea8       ??0?$__crt_unique_heap_ptr@_WU__crt_internal_free_policy@@@@QAE@QA_W@Z 0041fea8 f i libucrt:environment_initialization.obj
 0001:0001eeb8       ??1?$__crt_unique_heap_ptr@_WU__crt_internal_free_policy@@@@QAE@XZ 0041feb8 f i libucrt:environment_initialization.obj
 0001:0001eeca       ??B?$__crt_unique_heap_ptr@PADU__crt_internal_free_policy@@@@QBE_NXZ 0041feca f i libucrt:environment_initialization.obj
 0001:0001eed1       ??B?$__crt_unique_heap_ptr@PA_WU__crt_internal_free_policy@@@@QBE_NXZ 0041fed1 f i libucrt:environment_initialization.obj
 0001:0001eed8       ??B?$__crt_unique_heap_ptr@_WU__crt_internal_free_policy@@@@QBE_NXZ 0041fed8 f i libucrt:environment_initialization.obj
 0001:0001eedf       ?__crt_compute_required_transform_buffer_count@@YAIIQBD@Z 0041fedf f i libucrt:environment_initialization.obj
 0001:0001eefb       ?__crt_compute_required_transform_buffer_count@@YAIIQB_W@Z 0041fefb f i libucrt:environment_initialization.obj
 0001:0001ef19       ?__crt_transform_string@@YAIIQBDQA_WI@Z 0041ff19 f i libucrt:environment_initialization.obj
 0001:0001ef38       ?__crt_transform_string@@YAIIQB_WQADI@Z 0041ff38 f i libucrt:environment_initialization.obj
 0001:0001ef5a       ?detach@?$__crt_unique_heap_ptr@DU__crt_internal_free_policy@@@@QAEPADXZ 0041ff5a f i libucrt:environment_initialization.obj
 0001:0001ef60       ?detach@?$__crt_unique_heap_ptr@_WU__crt_internal_free_policy@@@@QAEPA_WXZ 0041ff60 f i libucrt:environment_initialization.obj
 0001:0001ef66       ?get@?$__crt_unique_heap_ptr@_WU__crt_internal_free_policy@@@@QBEPA_WXZ 0041ff66 f i libucrt:environment_initialization.obj
 0001:0001ef8d       ?initialize@?$dual_state_global@PAPAD@__crt_state_management@@QAEXQAPAD@Z 0041ff8d f i libucrt:environment_initialization.obj
 0001:0001efb3       ?initialize@?$dual_state_global@PAPA_W@__crt_state_management@@QAEXQAPA_W@Z 0041ffb3 f i libucrt:environment_initialization.obj
 0001:0001efd9       ?is_valid@?$__crt_unique_heap_ptr@PADU__crt_internal_free_policy@@@@QBE_NXZ 0041ffd9 f i libucrt:environment_initialization.obj
 0001:0001efe0       ?is_valid@?$__crt_unique_heap_ptr@PA_WU__crt_internal_free_policy@@@@QBE_NXZ 0041ffe0 f i libucrt:environment_initialization.obj
 0001:0001efe7       ?is_valid@?$__crt_unique_heap_ptr@_WU__crt_internal_free_policy@@@@QBE_NXZ 0041ffe7 f i libucrt:environment_initialization.obj
 0001:0001eff6       ?release@?$__crt_unique_heap_ptr@_WU__crt_internal_free_policy@@@@QAEXXZ 0041fff6 f i libucrt:environment_initialization.obj
 0001:0001f008       ?value@?$dual_state_global@PAPAD@__crt_state_management@@QAEAAPAPADXZ 00420008 f i libucrt:environment_initialization.obj
 0001:0001f00b       ?value@?$dual_state_global@PAPA_W@__crt_state_management@@QAEAAPAPA_WXZ 0042000b f i libucrt:environment_initialization.obj
 0001:0001f00e       ___dcrt_get_or_create_narrow_environment_nolock 0042000e f   libucrt:environment_initialization.obj
 0001:0001f013       ___dcrt_get_or_create_wide_environment_nolock 00420013 f   libucrt:environment_initialization.obj
 0001:0001f018       ___dcrt_uninitialize_environments_nolock 00420018 f   libucrt:environment_initialization.obj
 0001:0001f04f       ___p__environ              0042004f f   libucrt:environment_initialization.obj
 0001:0001f055       ___p__wenviron             00420055 f   libucrt:environment_initialization.obj
 0001:0001f05b       __get_initial_narrow_environment 0042005b f   libucrt:environment_initialization.obj
 0001:0001f06f       __get_initial_wide_environment 0042006f f   libucrt:environment_initialization.obj
 0001:0001f083       __initialize_narrow_environment 00420083 f   libucrt:environment_initialization.obj
 0001:0001f088       __initialize_wide_environment 00420088 f   libucrt:environment_initialization.obj
 0001:0001f08d       __initterm                 0042008d f   libucrt:initterm.obj
 0001:0001f0d2       __initterm_e               004200d2 f   libucrt:initterm.obj
 0001:0001f100       ??$__crt_interlocked_read@H@@YAHPDH@Z 00420100 f i libucrt:setmode.obj
 0001:0001f10d       ?value@?$dual_state_global@H@__crt_state_management@@QAEAAHXZ 0042010d f i libucrt:setmode.obj
 0001:0001f110       __get_fmode                00420110 f   libucrt:setmode.obj
 0001:0001f13d       __set_fmode                0042013d f   libucrt:setmode.obj
 0001:0001f17a       __setmode                  0042017a f   libucrt:setmode.obj
 0001:0001f28b       __setmode_nolock           0042028b f   libucrt:setmode.obj
 0001:0001f35a       ___acrt_initialize_command_line 0042035a f   libucrt:argv_data.obj
 0001:0001f373       ___acrt_uninitialize_command_line 00420373 f   libucrt:argv_data.obj
 0001:0001f376       ___p___argc                00420376 f   libucrt:argv_data.obj
 0001:0001f37c       ___p___argv                0042037c f   libucrt:argv_data.obj
 0001:0001f382       ___p___wargv               00420382 f   libucrt:argv_data.obj
 0001:0001f388       ___p__acmdln               00420388 f   libucrt:argv_data.obj
 0001:0001f38e       ___p__pgmptr               0042038e f   libucrt:argv_data.obj
 0001:0001f394       ___p__wcmdln               00420394 f   libucrt:argv_data.obj
 0001:0001f39a       ___p__wpgmptr              0042039a f   libucrt:argv_data.obj
 0001:0001f3a0       __get_pgmptr               004203a0 f   libucrt:argv_data.obj
 0001:0001f3d1       __get_wpgmptr              004203d1 f   libucrt:argv_data.obj
 0001:0001f405       ??$?RU__crt_locale_data@@@__crt_internal_free_policy@@QBEXQBU__crt_locale_data@@@Z 00420405 f i libucrt:wsetlocale.obj
 0001:0001f417       ??$?RU__crt_locale_pointers@@@__crt_internal_free_policy@@QBEXQBU__crt_locale_pointers@@@Z 00420417 f i libucrt:wsetlocale.obj
 0001:0001f429       ??$?RU__crt_multibyte_data@@@__crt_internal_free_policy@@QBEXQBU__crt_multibyte_data@@@Z 00420429 f i libucrt:wsetlocale.obj
 0001:0001f7d2       ??0?$__crt_unique_heap_ptr@U__crt_locale_data@@U__crt_internal_free_policy@@@@QAE@QAU__crt_locale_data@@@Z 004207d2 f i libucrt:wsetlocale.obj
 0001:0001f7e2       ??0?$__crt_unique_heap_ptr@U__crt_locale_pointers@@U__crt_internal_free_policy@@@@QAE@QAU__crt_locale_pointers@@@Z 004207e2 f i libucrt:wsetlocale.obj
 0001:0001f7f2       ??0?$__crt_unique_heap_ptr@U__crt_multibyte_data@@U__crt_internal_free_policy@@@@QAE@QAU__crt_multibyte_data@@@Z 004207f2 f i libucrt:wsetlocale.obj
 0001:0001f802       ??0_expandlocale_locale_name_cache@@QAE@QA_WIQAU__crt_qualified_locale_data@@@Z 00420802 f i libucrt:wsetlocale.obj
 0001:0001f84c       ??1?$__crt_unique_heap_ptr@U__crt_locale_data@@U__crt_internal_free_policy@@@@QAE@XZ 0042084c f i libucrt:wsetlocale.obj
 0001:0001f85e       ??1?$__crt_unique_heap_ptr@U__crt_locale_pointers@@U__crt_internal_free_policy@@@@QAE@XZ 0042085e f i libucrt:wsetlocale.obj
 0001:0001f870       ??1?$__crt_unique_heap_ptr@U__crt_multibyte_data@@U__crt_internal_free_policy@@@@QAE@XZ 00420870 f i libucrt:wsetlocale.obj
 0001:0001f882       ??1_expandlocale_locale_name_cache@@QAE@XZ 00420882 f i libucrt:wsetlocale.obj
 0001:0001f8b2       ??B?$__crt_unique_heap_ptr@U__crt_locale_data@@U__crt_internal_free_policy@@@@QBE_NXZ 004208b2 f i libucrt:wsetlocale.obj
 0001:0001f8b9       ??B?$__crt_unique_heap_ptr@U__crt_locale_pointers@@U__crt_internal_free_policy@@@@QBE_NXZ 004208b9 f i libucrt:wsetlocale.obj
 0001:0001f8c0       ??B?$__crt_unique_heap_ptr@U__crt_multibyte_data@@U__crt_internal_free_policy@@@@QBE_NXZ 004208c0 f i libucrt:wsetlocale.obj
 0001:0001fae0       ?commit_locale_name@_expandlocale_locale_name_cache@@QAEXQB_WI@Z 00420ae0 f i libucrt:wsetlocale.obj
 0001:0001fb24       ?commit_locale_name_cache_already_updated@_expandlocale_locale_name_cache@@QAEXQB_WI@Z 00420b24 f i libucrt:wsetlocale.obj
 0001:0001fb59       ?detach@?$__crt_unique_heap_ptr@U__crt_locale_data@@U__crt_internal_free_policy@@@@QAEPAU__crt_locale_data@@XZ 00420b59 f i libucrt:wsetlocale.obj
 0001:0001fb5f       ?detach@?$__crt_unique_heap_ptr@U__crt_locale_pointers@@U__crt_internal_free_policy@@@@QAEPAU__crt_locale_pointers@@XZ 00420b5f f i libucrt:wsetlocale.obj
 0001:0001fb65       ?detach@?$__crt_unique_heap_ptr@U__crt_multibyte_data@@U__crt_internal_free_policy@@@@QAEPAU__crt_multibyte_data@@XZ 00420b65 f i libucrt:wsetlocale.obj
 0001:0001fb6b       ?get@?$__crt_unique_heap_ptr@U__crt_locale_data@@U__crt_internal_free_policy@@@@QBEPAU__crt_locale_data@@XZ 00420b6b f i libucrt:wsetlocale.obj
 0001:0001fb6e       ?get@?$__crt_unique_heap_ptr@U__crt_locale_pointers@@U__crt_internal_free_policy@@@@QBEPAU__crt_locale_pointers@@XZ 00420b6e f i libucrt:wsetlocale.obj
 0001:0001fb71       ?get@?$__crt_unique_heap_ptr@U__crt_multibyte_data@@U__crt_internal_free_policy@@@@QBEPAU__crt_multibyte_data@@XZ 00420b71 f i libucrt:wsetlocale.obj
 0001:0001fb74       ?is_valid@?$__crt_unique_heap_ptr@U__crt_locale_data@@U__crt_internal_free_policy@@@@QBE_NXZ 00420b74 f i libucrt:wsetlocale.obj
 0001:0001fb7b       ?is_valid@?$__crt_unique_heap_ptr@U__crt_locale_pointers@@U__crt_internal_free_policy@@@@QBE_NXZ 00420b7b f i libucrt:wsetlocale.obj
 0001:0001fb82       ?is_valid@?$__crt_unique_heap_ptr@U__crt_multibyte_data@@U__crt_internal_free_policy@@@@QBE_NXZ 00420b82 f i libucrt:wsetlocale.obj
 0001:0001fb89       ?release@?$__crt_unique_heap_ptr@U__crt_locale_data@@U__crt_internal_free_policy@@@@QAEXXZ 00420b89 f i libucrt:wsetlocale.obj
 0001:0001fb9b       ?release@?$__crt_unique_heap_ptr@U__crt_locale_pointers@@U__crt_internal_free_policy@@@@QAEXXZ 00420b9b f i libucrt:wsetlocale.obj
 0001:0001fbad       ?release@?$__crt_unique_heap_ptr@U__crt_multibyte_data@@U__crt_internal_free_policy@@@@QAEXXZ 00420bad f i libucrt:wsetlocale.obj
 0001:0001fbbf       ?value@?$dual_state_global@PAU__crt_locale_data@@@__crt_state_management@@QAEAAPAU__crt_locale_data@@XZ 00420bbf f i libucrt:wsetlocale.obj
 0001:0001fbc2       ___acrt_copy_locale_name   00420bc2 f   libucrt:wsetlocale.obj
 0001:0001fc22       ___acrt_set_locale_changed 00420c22 f   libucrt:wsetlocale.obj
 0001:0001fc2d       ___acrt_uninitialize_locale 00420c2d f   libucrt:wsetlocale.obj
 0001:0001fc54       ___ascii_tolower           00420c54 f i libucrt:wsetlocale.obj
 0001:0001fc6b       ___ascii_towlower          00420c6b f i libucrt:wsetlocale.obj
 0001:0001fc82       ___lc_lctowcs              00420c82 f   libucrt:wsetlocale.obj
 0001:0001fcf2       ___lc_wcstolc              00420cf2 f   libucrt:wsetlocale.obj
 0001:0001fe42       __configthreadlocale       00420e42 f   libucrt:wsetlocale.obj
 0001:0001fed3       __create_locale            00420ed3 f   libucrt:wsetlocale.obj
 0001:000202fd       __free_locale              004212fd f   libucrt:wsetlocale.obj
 0001:000203bf       __get_current_locale       004213bf f   libucrt:wsetlocale.obj
 0001:0002045a       __wcreate_locale           0042145a f   libucrt:wsetlocale.obj
 0001:00020561       __wcscats                  00421561 f   libucrt:wsetlocale.obj
 0001:000205a2       __wsetlocale               004215a2 f   libucrt:wsetlocale.obj
 0001:00021307       ?value@?$dual_state_global@J@__crt_state_management@@QAEAAJXZ 00422307 f i libucrt:new_mode.obj
 0001:0002130a       __query_new_mode           0042230a f   libucrt:new_mode.obj
 0001:00021311       __set_new_mode             00422311 f   libucrt:new_mode.obj
 0001:00021340       ___p__commode              00422340 f   libucrt:ncommode.obj
 0001:00021346       ??$?B$$A6AXXZ@__crt_fast_encoded_nullptr_t@@QBEP6AXXZXZ 00422346 f i libucrt:onexit.obj
 0001:0002134c       ??$?BP6AXXZ@__crt_fast_encoded_nullptr_t@@QBEPAP6AXXZXZ 0042234c f i libucrt:onexit.obj
 0001:00021352       ??$?RP6AXXZ@__crt_internal_free_policy@@QBEXQBQ6AXXZ@Z 00422352 f i libucrt:onexit.obj
 0001:00021466       ??$__crt_fast_decode_pointer@P6AXXZ@@YAP6AXXZQ6AXXZ@Z 00422466 f i libucrt:onexit.obj
 0001:0002147c       ??$__crt_fast_decode_pointer@PAP6AXXZ@@YAPAP6AXXZQAP6AXXZ@Z 0042247c f i libucrt:onexit.obj
 0001:00021492       ??$__crt_fast_encode_pointer@P6AHXZ@@YAP6AHXZQ6AHXZ@Z 00422492 f i libucrt:onexit.obj
 0001:000214b1       ??$__crt_fast_encode_pointer@P6AXXZ@@YAP6AXXZQ6AXXZ@Z 004224b1 f i libucrt:onexit.obj
 0001:000214d0       ??$__crt_fast_encode_pointer@PAP6AXXZ@@YAPAP6AXXZQAP6AXXZ@Z 004224d0 f i libucrt:onexit.obj
 0001:0002155d       ??0?$__crt_unique_heap_ptr@P6AXXZU__crt_internal_free_policy@@@@QAE@QAP6AXXZ@Z 0042255d f i libucrt:onexit.obj
 0001:0002156d       ??1?$__crt_unique_heap_ptr@P6AXXZU__crt_internal_free_policy@@@@QAE@XZ 0042256d f i libucrt:onexit.obj
 0001:0002157f       ??1scoped_global_state_reset@__crt_state_management@@QAE@XZ 0042257f f i libucrt:onexit.obj
 0001:000217a9       ?detach@?$__crt_unique_heap_ptr@P6AXXZU__crt_internal_free_policy@@@@QAEPAP6AXXZXZ 004227a9 f i libucrt:onexit.obj
 0001:000217af       ?release@?$__crt_unique_heap_ptr@P6AXXZU__crt_internal_free_policy@@@@QAEXXZ 004227af f i libucrt:onexit.obj
 0001:000217c1       __crt_at_quick_exit        004227c1 f   libucrt:onexit.obj
 0001:000217d7       __crt_atexit               004227d7 f   libucrt:onexit.obj
 0001:000217ed       __execute_onexit_table     004227ed f   libucrt:onexit.obj
 0001:0002181a       __initialize_onexit_table  0042281a f   libucrt:onexit.obj
 0001:00021843       __register_onexit_function 00422843 f   libucrt:onexit.obj
 0001:00021952       ??$?BX@__crt_fast_encoded_nullptr_t@@QBEPAXXZ 00422952 f i libucrt:initialization.obj
 0001:00021958       ??$__crt_fast_encode_pointer@PAX@@YAPAXQAX@Z 00422958 f i libucrt:initialization.obj
 0001:000219c9       ?__acrt_stdio_is_initialized@@YA_NXZ 004229c9 f i libucrt:initialization.obj
 0001:000219d4       ?initialize@?$dual_state_global@PAU__crt_locale_data@@@__crt_state_management@@QAEXQAU__crt_locale_data@@@Z 004229d4 f i libucrt:initialization.obj
 0001:000219fa       ___acrt_initialize         004229fa f   libucrt:initialization.obj
 0001:00021a0c       ___acrt_thread_attach      00422a0c f   libucrt:initialization.obj
 0001:00021a17       ___acrt_thread_detach      00422a17 f   libucrt:initialization.obj
 0001:00021a1f       ___acrt_uninitialize       00422a1f f   libucrt:initialization.obj
 0001:00021a4f       ___acrt_uninitialize_critical 00422a4f f   libucrt:initialization.obj
 0001:00021a61       __controlfp_s              00422a61 f   libucrt:contrlfp.obj
 0001:00021ad6       __get_terminate            00422ad6 f   libucrt:terminate.obj
 0001:00021ae8       _set_terminate             00422ae8 f   libucrt:terminate.obj
 0001:00021b08       _terminate                 00422b08 f   libucrt:terminate.obj
 0001:00021b44       _free                      00422b44 f   libucrt:free.obj
 0001:00021b5f       _malloc                    00422b5f f   libucrt:malloc.obj
 0001:00021bc4       _strcpy_s                  00422bc4 f   libucrt:strcpy_s.obj
 0001:00021c1e       __set_abort_behavior       00422c1e f   libucrt:abort.obj
 0001:00021c3f       _abort                     00422c3f f   libucrt:abort.obj
 0001:00021c83       _calloc                    00422c83 f   libucrt:calloc.obj
 0001:00021c8e       ??$is_overflow_condition@K@__crt_strtox@@YA_NIK@Z 00422c8e f i libucrt:atox.obj
 0001:00021cbf       ??$is_overflow_condition@_K@__crt_strtox@@YA_NI_K@Z 00422cbf f i libucrt:atox.obj
 0001:00021d00       ??$make_c_string_character_source@D$$T@__crt_strtox@@YA?AV?$c_string_character_source@D@0@QBD$$T@Z 00422d00 f i libucrt:atox.obj
 0001:00021d1b       ??$make_c_string_character_source@_W$$T@__crt_strtox@@YA?AV?$c_string_character_source@_W@0@QB_W$$T@Z 00422d1b f i libucrt:atox.obj
 0001:00021d36       ??$parse_integer@KV?$c_string_character_source@D@__crt_strtox@@@__crt_strtox@@YAKQAU__crt_locale_pointers@@V?$c_string_character_source@D@0@H_N@Z 00422d36 f i libucrt:atox.obj
 0001:00021f59       ??$parse_integer@KV?$c_string_character_source@_W@__crt_strtox@@@__crt_strtox@@YAKQAU__crt_locale_pointers@@V?$c_string_character_source@_W@0@H_N@Z 00422f59 f i libucrt:atox.obj
 0001:00022561       ??$parse_integer@_KV?$c_string_character_source@D@__crt_strtox@@@__crt_strtox@@YA_KQAU__crt_locale_pointers@@V?$c_string_character_source@D@0@H_N@Z 00423561 f i libucrt:atox.obj
 0001:00022807       ??$parse_integer@_KV?$c_string_character_source@_W@__crt_strtox@@@__crt_strtox@@YA_KQAU__crt_locale_pointers@@V?$c_string_character_source@_W@0@H_N@Z 00423807 f i libucrt:atox.obj
 0001:00022ed8       ??$parse_integer_from_string@JD$$T@__crt_strtox@@YAJQBD$$THQAU__crt_locale_pointers@@@Z 00423ed8 f i libucrt:atox.obj
 0001:00022f03       ??$parse_integer_from_string@J_W$$T@__crt_strtox@@YAJQB_W$$THQAU__crt_locale_pointers@@@Z 00423f03 f i libucrt:atox.obj
 0001:00022f2e       ??$parse_integer_from_string@_JD$$T@__crt_strtox@@YA_JQBD$$THQAU__crt_locale_pointers@@@Z 00423f2e f i libucrt:atox.obj
 0001:00022f59       ??$parse_integer_from_string@_J_W$$T@__crt_strtox@@YA_JQB_W$$THQAU__crt_locale_pointers@@@Z 00423f59 f i libucrt:atox.obj
 0001:00022f84       ??0?$c_string_character_source@D@__crt_strtox@@QAE@QBDQAPBD@Z 00423f84 f i libucrt:atox.obj
 0001:00022fa0       ??0?$c_string_character_source@_W@__crt_strtox@@QAE@QB_WQAPB_W@Z 00423fa0 f i libucrt:atox.obj
 0001:00022fbc       ??1?$c_string_character_source@D@__crt_strtox@@QAE@XZ 00423fbc f i libucrt:atox.obj
 0001:00022fc8       ??1?$c_string_character_source@_W@__crt_strtox@@QAE@XZ 00423fc8 f i libucrt:atox.obj
 0001:00022fd4       ?get@?$c_string_character_source@D@__crt_strtox@@QAEDXZ 00423fd4 f i libucrt:atox.obj
 0001:00022fdc       ?get@?$c_string_character_source@_W@__crt_strtox@@QAE_WXZ 00423fdc f i libucrt:atox.obj
 0001:00022fe7       ?is_space@__crt_strtox@@YA_NDQAU__crt_locale_pointers@@@Z 00423fe7 f i libucrt:atox.obj
 0001:00023005       ?is_space@__crt_strtox@@YA_N_WPAU__crt_locale_pointers@@@Z 00424005 f i libucrt:atox.obj
 0001:0002301d       ?maximum_signed_value@__crt_strtox@@YAJK@Z 0042401d f i libucrt:atox.obj
 0001:00023023       ?maximum_signed_value@__crt_strtox@@YA_J_K@Z 00424023 f i libucrt:atox.obj
 0001:0002302c       ?minimum_signed_value@__crt_strtox@@YAJK@Z 0042402c f i libucrt:atox.obj
 0001:00023032       ?minimum_signed_value@__crt_strtox@@YA_J_K@Z 00424032 f i libucrt:atox.obj
 0001:0002303a       ?parse_digit@__crt_strtox@@YAID@Z 0042403a f i libucrt:atox.obj
 0001:00023074       ?parse_digit@__crt_strtox@@YAI_W@Z 00424074 f i libucrt:atox.obj
 0001:00023253       ?restore_state@?$c_string_character_source@D@__crt_strtox@@QAE_NQBD@Z 00424253 f i libucrt:atox.obj
 0001:00023263       ?restore_state@?$c_string_character_source@_W@__crt_strtox@@QAE_NQB_W@Z 00424263 f i libucrt:atox.obj
 0001:00023273       ?save_state@?$c_string_character_source@D@__crt_strtox@@QBEPBDXZ 00424273 f i libucrt:atox.obj
 0001:00023276       ?save_state@?$c_string_character_source@_W@__crt_strtox@@QBEPB_WXZ 00424276 f i libucrt:atox.obj
 0001:00023279       ?unget@?$c_string_character_source@D@__crt_strtox@@QAEXD@Z 00424279 f i libucrt:atox.obj
 0001:000232a2       ?unget@?$c_string_character_source@_W@__crt_strtox@@QAEX_W@Z 004242a2 f i libucrt:atox.obj
 0001:000232d0       ?validate@?$c_string_character_source@D@__crt_strtox@@QBE_NXZ 004242d0 f i libucrt:atox.obj
 0001:000232eb       ?validate@?$c_string_character_source@_W@__crt_strtox@@QBE_NXZ 004242eb f i libucrt:atox.obj
 0001:00023306       ?wide_character_to_digit@__crt_strtox@@YAH_W@Z 00424306 f i libucrt:atox.obj
 0001:000234a7       ___acrt_get_locale_data_prefix 004244a7 f i libucrt:atox.obj
 0001:000234b3       ___ascii_iswalpha          004244b3 f i libucrt:atox.obj
 0001:000234d6       ___ascii_toupper           004244d6 f i libucrt:atox.obj
 0001:000234ed       ___ascii_towupper          004244ed f i libucrt:atox.obj
 0001:00023504       __atoi64                   00424504 f   libucrt:atox.obj
 0001:00023527       __atoi64_l                 00424527 f   libucrt:atox.obj
 0001:0002354b       __atoi_l                   0042454b f   libucrt:atox.obj
 0001:0002356f       __atol_l                   0042456f f   libucrt:atox.obj
 0001:00023593       __atoll_l                  00424593 f   libucrt:atox.obj
 0001:000235b7       __chvalidchk_l             004245b7 f i libucrt:atox.obj
 0001:000235df       __ischartype_l             004245df f i libucrt:atox.obj
 0001:00023633       __wtoi                     00424633 f   libucrt:atox.obj
 0001:00023656       __wtoi64                   00424656 f   libucrt:atox.obj
 0001:00023679       __wtoi64_l                 00424679 f   libucrt:atox.obj
 0001:0002369d       __wtoi_l                   0042469d f   libucrt:atox.obj
 0001:000236c1       __wtol                     004246c1 f   libucrt:atox.obj
 0001:000236e4       __wtol_l                   004246e4 f   libucrt:atox.obj
 0001:00023708       __wtoll                    00424708 f   libucrt:atox.obj
 0001:0002372b       __wtoll_l                  0042472b f   libucrt:atox.obj
 0001:0002374f       _atoi                      0042474f f   libucrt:atox.obj
 0001:00023772       _atol                      00424772 f   libucrt:atox.obj
 0001:00023795       _atoll                     00424795 f   libucrt:atox.obj
 0001:000237c0       _strncmp                   004247c0 f   libucrt:strncmp.obj
 0001:00023838       _wcsncmp                   00424838 f   libucrt:wcsncmp.obj
 0001:00023872       ___acrt_initialize_locks   00424872 f   libucrt:locks.obj
 0001:000238b3       ___acrt_lock               004248b3 f   libucrt:locks.obj
 0001:000238ca       ___acrt_uninitialize_locks 004248ca f   libucrt:locks.obj
 0001:000238fb       ___acrt_unlock             004248fb f   libucrt:locks.obj
 0001:00023912       __lock_locales             00424912 f   libucrt:locks.obj
 0001:00023920       __unlock_locales           00424920 f   libucrt:locks.obj
 0001:00023ad0       ___acrt_get_begin_thread_init_policy 00424ad0 f   libucrt:win_policies.obj
 0001:00023b14       ___acrt_get_developer_information_policy 00424b14 f   libucrt:win_policies.obj
 0001:00023b58       ___acrt_get_process_end_policy 00424b58 f   libucrt:win_policies.obj
 0001:00023b89       ___acrt_get_windowing_model_policy 00424b89 f   libucrt:win_policies.obj
 0001:00023be5       ??$__crt_fast_decode_pointer@P6AXPB_W00II@Z@@YAP6AXPB_W00II@ZQ6AX000II@Z@Z 00424be5 f i libucrt:invalid_parameter.obj
 0001:00023bfb       ??$__crt_fast_encode_pointer@P6AXPB_W00II@Z@@YAP6AXPB_W00II@ZQ6AX000II@Z@Z 00424bfb f i libucrt:invalid_parameter.obj
 0001:00023c1a       ??$initialize_from_array@$$BY00Q6AXPB_W00II@Z@?$dual_state_global@P6AXPB_W00II@Z@__crt_state_management@@QAAXAAY00Q6AXPB_W00II@Z@Z 00424c1a f i libucrt:invalid_parameter.obj
 0001:00023c2b       ?dangerous_get_state_array@?$dual_state_global@P6AXPB_W00II@Z@__crt_state_management@@QAEPAP6AXPB_W00II@ZXZ 00424c2b f i libucrt:invalid_parameter.obj
 0001:00023c2e       ?value@?$dual_state_global@P6AXPB_W00II@Z@__crt_state_management@@QAEAAP6AXPB_W00II@ZXZ 00424c2e f i libucrt:invalid_parameter.obj
 0001:00023c31       ___acrt_call_reportfault   00424c31 f   libucrt:invalid_parameter.obj
 0001:00023d6a       ___acrt_initialize_invalid_parameter_handler 00424d6a f   libucrt:invalid_parameter.obj
 0001:00023d79       __get_invalid_parameter_handler 00424d79 f   libucrt:invalid_parameter.obj
 0001:00023d8c       __get_thread_local_invalid_parameter_handler 00424d8c f   libucrt:invalid_parameter.obj
 0001:00023d9d       __invalid_parameter        00424d9d f   libucrt:invalid_parameter.obj
 0001:00023e01       __invalid_parameter_noinfo 00424e01 f   libucrt:invalid_parameter.obj
 0001:00023e11       __invalid_parameter_noinfo_noreturn 00424e11 f   libucrt:invalid_parameter.obj
 0001:00023e2e       __invoke_watson            00424e2e f   libucrt:invalid_parameter.obj
 0001:00023e62       __set_invalid_parameter_handler 00424e62 f   libucrt:invalid_parameter.obj
 0001:00023e92       __set_thread_local_invalid_parameter_handler 00424e92 f   libucrt:invalid_parameter.obj
 0001:00023eaf       ___acrt_errno_from_os_error 00424eaf f   libucrt:errno.obj
 0001:00023ef2       ___acrt_errno_map_os_error 00424ef2 f   libucrt:errno.obj
 0001:00023f15       ___doserrno                00424f15 f   libucrt:errno.obj
 0001:00023f28       __errno                    00424f28 f   libucrt:errno.obj
 0001:00023f3b       __get_doserrno             00424f3b f   libucrt:errno.obj
 0001:00023f60       __get_errno                00424f60 f   libucrt:errno.obj
 0001:00023f85       __set_doserrno             00424f85 f   libucrt:errno.obj
 0001:00023fa6       __set_errno                00424fa6 f   libucrt:errno.obj
 0001:00023fc7       __calloc_base              00424fc7 f   libucrt:calloc_base.obj
 0001:0002402a       __free_base                0042502a f   libucrt:free_base.obj
 0001:00024071       ??$?B$$A6GHPA_WKJ@Z@__crt_fast_encoded_nullptr_t@@QBEP6GHPA_WKJ@ZXZ 00425071 f i libucrt:winapi_thunks.obj
 0001:00024119       ??$__crt_fast_decode_pointer@P6GHPA_WKJ@Z@@YAP6GHPA_WKJ@ZQ6GH0KJ@Z@Z 00425119 f i libucrt:winapi_thunks.obj
 0001:0002412f       ??$__crt_fast_decode_pointer@PAX@@YAPAXQAX@Z 0042512f f i libucrt:winapi_thunks.obj
 0001:00024145       ??$__crt_fast_encode_pointer@P6GHPA_WKJ@Z@@YAP6GHPA_WKJ@ZQ6GH0KJ@Z@Z 00425145 f i libucrt:winapi_thunks.obj
 0001:000247d1       _GetCurrentThreadEffectiveToken 004257d1 f i libucrt:winapi_thunks.obj
 0001:000247d5       ___acrt_AppPolicyGetProcessTerminationMethodInternal@4 004257d5 f   libucrt:winapi_thunks.obj
 0001:00024815       ___acrt_AppPolicyGetShowDeveloperDiagnosticInternal@4 00425815 f   libucrt:winapi_thunks.obj
 0001:00024855       ___acrt_AppPolicyGetThreadInitializationTypeInternal@4 00425855 f   libucrt:winapi_thunks.obj
 0001:00024895       ___acrt_AppPolicyGetWindowingModelInternal@4 00425895 f   libucrt:winapi_thunks.obj
 0001:000248d5       ___acrt_AreFileApisANSI@0  004258d5 f   libucrt:winapi_thunks.obj
 0001:000248f4       ___acrt_CompareStringEx@36 004258f4 f   libucrt:winapi_thunks.obj
 0001:00024951       ___acrt_EnumSystemLocalesEx@16 00425951 f   libucrt:winapi_thunks.obj
 0001:000249a5       ___acrt_FlsAlloc@4         004259a5 f   libucrt:winapi_thunks.obj
 0001:000249e4       ___acrt_FlsFree@4          004259e4 f   libucrt:winapi_thunks.obj
 0001:00024a23       ___acrt_FlsGetValue@4      00425a23 f   libucrt:winapi_thunks.obj
 0001:00024a62       ___acrt_FlsSetValue@8      00425a62 f   libucrt:winapi_thunks.obj
 0001:00024aa4       ___acrt_GetDateFormatEx@28 00425aa4 f   libucrt:winapi_thunks.obj
 0001:00024afb       ___acrt_GetEnabledXStateFeatures@0 00425afb f   libucrt:winapi_thunks.obj
 0001:00024b2f       ___acrt_GetLocaleInfoEx@16 00425b2f f   libucrt:winapi_thunks.obj
 0001:00024b6e       ___acrt_GetSystemTimePreciseAsFileTime@4 00425b6e f   libucrt:winapi_thunks.obj
 0001:00024bad       ___acrt_GetTimeFormatEx@24 00425bad f   libucrt:winapi_thunks.obj
 0001:00024bf2       ___acrt_GetUserDefaultLocaleName@8 00425bf2 f   libucrt:winapi_thunks.obj
 0001:00024c2e       ___acrt_GetXStateFeaturesMask@8 00425c2e f   libucrt:winapi_thunks.obj
 0001:00024c6e       ___acrt_InitializeCriticalSectionEx@12 00425c6e f   libucrt:winapi_thunks.obj
 0001:00024cb9       ___acrt_IsValidLocaleName@4 00425cb9 f   libucrt:winapi_thunks.obj
 0001:00024cf1       ___acrt_LCIDToLocaleName@16 00425cf1 f   libucrt:winapi_thunks.obj
 0001:00024d30       ___acrt_LCMapStringEx@36   00425d30 f   libucrt:winapi_thunks.obj
 0001:00024d8d       ___acrt_LocaleNameToLCID@8 00425d8d f   libucrt:winapi_thunks.obj
 0001:00024dbe       ___acrt_LocateXStateFeature@12 00425dbe f   libucrt:winapi_thunks.obj
 0001:00024ded       ___acrt_MessageBoxA@16     00425ded f   libucrt:winapi_thunks.obj
 0001:00024e1f       ___acrt_MessageBoxW@16     00425e1f f   libucrt:winapi_thunks.obj
 0001:00024e51       ___acrt_RoInitialize@4     00425e51 f   libucrt:winapi_thunks.obj
 0001:00024e8c       ___acrt_RoUninitialize@0   00425e8c f   libucrt:winapi_thunks.obj
 0001:00024eba       ___acrt_RtlGenRandom@8     00425eba f   libucrt:winapi_thunks.obj
 0001:00024efa       ___acrt_SetThreadStackGuarantee@4 00425efa f   libucrt:winapi_thunks.obj
 0001:00024f35       ___acrt_can_show_message_box 00425f35 f   libucrt:winapi_thunks.obj
 0001:00024f5c       ___acrt_can_use_vista_locale_apis 00425f5c f   libucrt:winapi_thunks.obj
 0001:00024f67       ___acrt_can_use_xstate_apis 00425f67 f   libucrt:winapi_thunks.obj
 0001:00024f72       ___acrt_eagerly_load_locale_apis 00425f72 f   libucrt:winapi_thunks.obj
 0001:00024fa9       ___acrt_get_parent_window  00425fa9 f   libucrt:winapi_thunks.obj
 0001:00025011       ___acrt_initialize_winapi_thunks 00426011 f   libucrt:winapi_thunks.obj
 0001:0002503c       ___acrt_is_interactive     0042603c f   libucrt:winapi_thunks.obj
 0001:000250db       ___acrt_uninitialize_winapi_thunks 004260db f   libucrt:winapi_thunks.obj
 0001:00025111       ?is_in_use@__crt_stdio_stream@@QBE_NXZ 00426111 f i libucrt:closeall.obj
 0001:0002511d       __fcloseall                0042611d f   libucrt:closeall.obj
 0001:000251c8       ?has_any_of@__crt_stdio_stream@@QBE_NJ@Z 004261c8 f i libucrt:_freebuf.obj
 0001:000251dd       ?has_crt_buffer@__crt_stdio_stream@@QBE_NXZ 004261dd f i libucrt:_freebuf.obj
 0001:000251e9       ___acrt_stdio_free_buffer_nolock 004261e9 f   libucrt:_freebuf.obj
 0001:000253b5       ___acrt_initialize_lowio   004263b5 f   libucrt:ioinit.obj
 0001:00025415       ___acrt_uninitialize_lowio 00426415 f   libucrt:ioinit.obj
 0001:000255a4       __commit                   004265a4 f   libucrt:commit.obj
 0001:00025deb       __utf8_no_of_trailbytes    00426deb f i libucrt:write.obj
 0001:00025dfc       __write                    00426dfc f   libucrt:write.obj
 0001:00025eee       __write_nolock             00426eee f   libucrt:write.obj
 0001:000260c8       ?lowio_handle@__crt_stdio_stream@@QBEHXZ 004270c8 f i libucrt:fileno.obj
 0001:000260cf       __fileno                   004270cf f   libucrt:fileno.obj
 0001:00026470       ?has_any_buffer@__crt_stdio_stream@@QBE_NXZ 00427470 f i libucrt:_filbuf.obj
 0001:0002650d       ___acrt_stdio_refill_and_read_narrow_nolock 0042750d f   libucrt:_filbuf.obj
 0001:00026518       ___acrt_stdio_refill_and_read_wide_nolock 00427518 f   libucrt:_filbuf.obj
 0001:00026523       __malloc_base              00427523 f   libucrt:malloc_base.obj
 0001:00026571       ??$make_c_string_character_source@DPAPAD@__crt_strtox@@YA?AV?$c_string_character_source@D@0@QBDQAPAD@Z 00427571 f i libucrt:strtox.obj
 0001:0002658c       ??$make_c_string_character_source@_WPAPA_W@__crt_strtox@@YA?AV?$c_string_character_source@_W@0@QB_WQAPA_W@Z 0042758c f i libucrt:strtox.obj
 0001:000265a7       ??$parse_integer_from_string@JDPAPAD@__crt_strtox@@YAJQBDQAPADHQAU__crt_locale_pointers@@@Z 004275a7 f i libucrt:strtox.obj
 0001:000265d2       ??$parse_integer_from_string@J_WPAPA_W@__crt_strtox@@YAJQB_WQAPA_WHQAU__crt_locale_pointers@@@Z 004275d2 f i libucrt:strtox.obj
 0001:000265fd       ??$parse_integer_from_string@KDPAPAD@__crt_strtox@@YAKQBDQAPADHQAU__crt_locale_pointers@@@Z 004275fd f i libucrt:strtox.obj
 0001:00026628       ??$parse_integer_from_string@K_WPAPA_W@__crt_strtox@@YAKQB_WQAPA_WHQAU__crt_locale_pointers@@@Z 00427628 f i libucrt:strtox.obj
 0001:00026653       ??$parse_integer_from_string@_JDPAPAD@__crt_strtox@@YA_JQBDQAPADHQAU__crt_locale_pointers@@@Z 00427653 f i libucrt:strtox.obj
 0001:0002667e       ??$parse_integer_from_string@_J_WPAPA_W@__crt_strtox@@YA_JQB_WQAPA_WHQAU__crt_locale_pointers@@@Z 0042767e f i libucrt:strtox.obj
 0001:000266a9       ??$parse_integer_from_string@_KDPAPAD@__crt_strtox@@YA_KQBDQAPADHQAU__crt_locale_pointers@@@Z 004276a9 f i libucrt:strtox.obj
 0001:000266d4       ??$parse_integer_from_string@_K_WPAPA_W@__crt_strtox@@YA_KQB_WQAPA_WHQAU__crt_locale_pointers@@@Z 004276d4 f i libucrt:strtox.obj
 0001:000266ff       __strtoi64                 004276ff f   libucrt:strtox.obj
 0001:00026729       __strtoi64_l               00427729 f   libucrt:strtox.obj
 0001:00026754       __strtoimax_l              00427754 f   libucrt:strtox.obj
 0001:0002677f       __strtol_l                 0042777f f   libucrt:strtox.obj
 0001:000267aa       __strtoll_l                004277aa f   libucrt:strtox.obj
 0001:000267d5       __strtoui64                004277d5 f   libucrt:strtox.obj
 0001:000267ff       __strtoui64_l              004277ff f   libucrt:strtox.obj
 0001:0002682a       __strtoul_l                0042782a f   libucrt:strtox.obj
 0001:00026855       __strtoull_l               00427855 f   libucrt:strtox.obj
 0001:00026880       __strtoumax_l              00427880 f   libucrt:strtox.obj
 0001:000268ab       __wcstoi64                 004278ab f   libucrt:strtox.obj
 0001:000268d5       __wcstoi64_l               004278d5 f   libucrt:strtox.obj
 0001:00026900       __wcstoimax_l              00427900 f   libucrt:strtox.obj
 0001:0002692b       __wcstol_l                 0042792b f   libucrt:strtox.obj
 0001:00026956       __wcstoll_l                00427956 f   libucrt:strtox.obj
 0001:00026981       __wcstoui64                00427981 f   libucrt:strtox.obj
 0001:000269ab       __wcstoui64_l              004279ab f   libucrt:strtox.obj
 0001:000269d6       __wcstoul_l                004279d6 f   libucrt:strtox.obj
 0001:00026a01       __wcstoull_l               00427a01 f   libucrt:strtox.obj
 0001:00026a2c       __wcstoumax_l              00427a2c f   libucrt:strtox.obj
 0001:00026a57       _strtoimax                 00427a57 f   libucrt:strtox.obj
 0001:00026a81       _strtol                    00427a81 f   libucrt:strtox.obj
 0001:00026aab       _strtoll                   00427aab f   libucrt:strtox.obj
 0001:00026ad5       _strtoul                   00427ad5 f   libucrt:strtox.obj
 0001:00026aff       _strtoull                  00427aff f   libucrt:strtox.obj
 0001:00026b29       _strtoumax                 00427b29 f   libucrt:strtox.obj
 0001:00026b53       _wcstoimax                 00427b53 f   libucrt:strtox.obj
 0001:00026b7d       _wcstol                    00427b7d f   libucrt:strtox.obj
 0001:00026ba7       _wcstoll                   00427ba7 f   libucrt:strtox.obj
 0001:00026bd1       _wcstoul                   00427bd1 f   libucrt:strtox.obj
 0001:00026bfb       _wcstoull                  00427bfb f   libucrt:strtox.obj
 0001:00026c25       _wcstoumax                 00427c25 f   libucrt:strtox.obj
 0001:00026c4f       __mbtowc_l                 00427c4f f   libucrt:mbtowc.obj
 0001:00026d91       _mbtowc                    00427d91 f   libucrt:mbtowc.obj
 0001:00026dab       __wctomb_l                 00427dab f   libucrt:wctomb.obj
 0001:00026dfc       __wctomb_s_l               00427dfc f   libucrt:wctomb.obj
 0001:00026f57       _wctomb                    00427f57 f   libucrt:wctomb.obj
 0001:00026f89       _wctomb_s                  00427f89 f   libucrt:wctomb.obj
 0001:000277a1       ??1?$__crt_simd_cleanup_guard@$00@@QAE@XZ 004287a1 f i libucrt:strnlen.obj
 0001:000277a5       ??1?$__crt_simd_cleanup_guard@$0A@@@QAE@XZ 004287a5 f i libucrt:strnlen.obj
 0001:000277a8       ?compare_equals@?$__crt_simd_traits@$00E@@SA?AT__m256i@@T2@0@Z 004287a8 f i libucrt:strnlen.obj
 0001:000277ad       ?compare_equals@?$__crt_simd_traits@$00G@@SA?AT__m256i@@T2@0@Z 004287ad f i libucrt:strnlen.obj
 0001:000277b2       ?compare_equals@?$__crt_simd_traits@$0A@E@@SA?AT__m128i@@T2@0@Z 004287b2 f i libucrt:strnlen.obj
 0001:000277b7       ?compare_equals@?$__crt_simd_traits@$0A@G@@SA?AT__m128i@@T2@0@Z 004287b7 f i libucrt:strnlen.obj
 0001:000277bc       ?compute_byte_mask@?$__crt_simd_pack_traits@$00@@SAHT__m256i@@@Z 004287bc f i libucrt:strnlen.obj
 0001:000277c1       ?compute_byte_mask@?$__crt_simd_pack_traits@$0A@@@SAHT__m128i@@@Z 004287c1 f i libucrt:strnlen.obj
 0001:000277c6       ?get_zero_pack@?$__crt_simd_pack_traits@$00@@SA?AT__m256i@@XZ 004287c6 f i libucrt:strnlen.obj
 0001:000277cb       ?get_zero_pack@?$__crt_simd_pack_traits@$0A@@@SA?AT__m128i@@XZ 004287cb f i libucrt:strnlen.obj
 0001:000277cf       _strnlen                   004287cf f   libucrt:strnlen.obj
 0001:000278f1       _wcslen                    004288f1 f   libucrt:strnlen.obj
 0001:00027a19       _wcsnlen                   00428a19 f   libucrt:strnlen.obj
 0001:00027bc9       ??$?RU__acrt_ptd@@@__crt_internal_free_policy@@QBEXQBU__acrt_ptd@@@Z 00428bc9 f i libucrt:per_thread_data.obj
 0001:00027eb5       ??0?$__crt_unique_heap_ptr@U__acrt_ptd@@U__crt_internal_free_policy@@@@QAE@QAU__acrt_ptd@@@Z 00428eb5 f i libucrt:per_thread_data.obj
 0001:00027ec5       ??0__crt_scoped_get_last_error_reset@@QAE@XZ 00428ec5 f i libucrt:per_thread_data.obj
 0001:00027ed6       ??1?$__crt_unique_heap_ptr@U__acrt_ptd@@U__crt_internal_free_policy@@@@QAE@XZ 00428ed6 f i libucrt:per_thread_data.obj
 0001:00027ee8       ??1__crt_scoped_get_last_error_reset@@QAE@XZ 00428ee8 f i libucrt:per_thread_data.obj
 0001:00027ef1       ??B?$__crt_unique_heap_ptr@U__acrt_ptd@@U__crt_internal_free_policy@@@@QBE_NXZ 00428ef1 f i libucrt:per_thread_data.obj
 0001:0002803f       ?dangerous_get_state_array@?$dual_state_global@PAU__crt_locale_data@@@__crt_state_management@@QAEPAPAU__crt_locale_data@@XZ 0042903f f i libucrt:per_thread_data.obj
 0001:00028135       ?detach@?$__crt_unique_heap_ptr@U__acrt_ptd@@U__crt_internal_free_policy@@@@QAEPAU__acrt_ptd@@XZ 00429135 f i libucrt:per_thread_data.obj
 0001:0002813b       ?get@?$__crt_unique_heap_ptr@U__acrt_ptd@@U__crt_internal_free_policy@@@@QBEPAU__acrt_ptd@@XZ 0042913b f i libucrt:per_thread_data.obj
 0001:0002813e       ?get_current_state_index@__crt_state_management@@YAIABV__crt_scoped_get_last_error_reset@@@Z 0042913e f i libucrt:per_thread_data.obj
 0001:00028273       ?is_valid@?$__crt_unique_heap_ptr@U__acrt_ptd@@U__crt_internal_free_policy@@@@QBE_NXZ 00429273 f i libucrt:per_thread_data.obj
 0001:0002827a       ?release@?$__crt_unique_heap_ptr@U__acrt_ptd@@U__crt_internal_free_policy@@@@QAEXXZ 0042927a f i libucrt:per_thread_data.obj
 0001:000282ee       ___acrt_freeptd            004292ee f   libucrt:per_thread_data.obj
 0001:0002831a       ___acrt_getptd             0042931a f   libucrt:per_thread_data.obj
 0001:000283d7       ___acrt_getptd_head        004293d7 f   libucrt:per_thread_data.obj
 0001:00028471       ___acrt_getptd_noexit      00429471 f   libucrt:per_thread_data.obj
 0001:00028526       ___acrt_initialize_ptd     00429526 f   libucrt:per_thread_data.obj
 0001:00028552       ___acrt_uninitialize_ptd   00429552 f   libucrt:per_thread_data.obj
 0001:0002856c       ___threadhandle            0042956c f   libucrt:per_thread_data.obj
 0001:00028572       ___threadid                00429572 f   libucrt:per_thread_data.obj
 0001:00028578       ?value@?$dual_state_global@PAU__crt_multibyte_data@@@__crt_state_management@@QAEAAPAU__crt_multibyte_data@@XZ 00429578 f i libucrt:locale_update.obj
 0001:0002857b       ___acrt_should_sync_with_global_locale 0042957b f i libucrt:locale_update.obj
 0001:00028597       ___acrt_update_locale_info 00429597 f   libucrt:locale_update.obj
 0001:000285c4       ___acrt_update_multibyte_info 004295c4 f   libucrt:locale_update.obj
 0001:000285f1       ?__acrt_fp_classify@@YA?AW4__acrt_fp_class@@ABN@Z 004295f1 f i libucrt:cvt.obj
 0001:00028653       ?__acrt_fp_is_negative@@YA_NABN@Z 00429653 f i libucrt:cvt.obj
 0001:00028fbd       ?strrchr@@YAPADQADH@Z      00429fbd f i libucrt:cvt.obj
 0001:00028fc8       ___acrt_fp_format          00429fc8 f   libucrt:cvt.obj
 0001:00029154       __fputwc_nolock            0042a154 f   libucrt:fputwc.obj
 0001:0002927d       __fputwchar                0042a27d f   libucrt:fputwc.obj
 0001:00029297       __putwc_nolock             0042a297 f   libucrt:fputwc.obj
 0001:000292a2       _fputwc                    0042a2a2 f   libucrt:fputwc.obj
 0001:00029320       _putwc                     0042a320 f   libucrt:fputwc.obj
 0001:0002932b       _putwchar                  0042a32b f   libucrt:fputwc.obj
 0001:00029336       __fputc_nolock             0042a336 f   libucrt:fputc.obj
 0001:0002935f       __fputchar                 0042a35f f   libucrt:fputc.obj
 0001:00029379       __putc_nolock              0042a379 f   libucrt:fputc.obj
 0001:00029384       _fputc                     0042a384 f   libucrt:fputc.obj
 0001:0002948e       _putc                      0042a48e f   libucrt:fputc.obj
 0001:00029499       _putchar                   0042a499 f   libucrt:fputc.obj
 0001:000294a4       __get_printf_count_output  0042a4a4 f   libucrt:printf_count_output.obj
 0001:000294b9       __set_printf_count_output  0042a4b9 f   libucrt:printf_count_output.obj
 0001:000294e3       ?has_temporary_buffer@__crt_stdio_stream@@QBE_NXZ 0042a4e3 f i libucrt:_sftbuf.obj
 0001:000294ef       ___acrt_should_use_temporary_buffer 0042a4ef f   libucrt:_sftbuf.obj
 0001:0002952a       ___acrt_stdio_begin_temporary_buffering_nolock 0042a52a f   libucrt:_sftbuf.obj
 0001:000295d6       ___acrt_stdio_end_temporary_buffering_nolock 0042a5d6 f   libucrt:_sftbuf.obj
 0001:00029610       ___p___mb_cur_max          0042a610 f   libucrt:nlsdata.obj
 0001:00029635       __set_error_mode           0042a635 f   libucrt:set_error_mode.obj
 0001:000296e6       _wcscat_s                  0042a6e6 f   libucrt:wcscat_s.obj
 0001:000297bb       _wcscpy_s                  0042a7bb f   libucrt:wcscpy_s.obj
 0001:000298ea       _wcsncpy_s                 0042a8ea f   libucrt:wcsncpy_s.obj
 0001:000299f0       ??$message_box@$$TABQBDABQBDK@?$__crt_char_traits@D@@SAH$$QA$$TABQBD1$$QAK@Z 0042a9f0 f i libucrt:crtmbox.obj
 0001:00029a10       ??$message_box@$$TABQB_WABQB_WK@?$__crt_char_traits@_W@@SAH$$QA$$TABQB_W1$$QAK@Z 0042aa10 f i libucrt:crtmbox.obj
 0001:00029a30       ??$message_box@PAUHWND__@@ABQBDABQBDABI@?$__crt_char_traits@D@@SAH$$QAPAUHWND__@@ABQBD1ABI@Z 0042aa30 f i libucrt:crtmbox.obj
 0001:00029a50       ??$message_box@PAUHWND__@@ABQB_WABQB_WABI@?$__crt_char_traits@_W@@SAH$$QAPAUHWND__@@ABQB_W1ABI@Z 0042aa50 f i libucrt:crtmbox.obj
 0001:00029a70       ??$output_debug_string@ABQBD@?$__crt_char_traits@D@@SAXABQBD@Z 0042aa70 f i libucrt:crtmbox.obj
 0001:00029a81       ??$output_debug_string@ABQB_W@?$__crt_char_traits@_W@@SAXABQB_W@Z 0042aa81 f i libucrt:crtmbox.obj
 0001:00029a93       ___acrt_show_narrow_message_box 0042aa93 f   libucrt:crtmbox.obj
 0001:00029a9e       ___acrt_show_wide_message_box 0042aa9e f   libucrt:crtmbox.obj
 0001:00029c5a       ??$__acrt_mbs_to_wcs_cp@U__crt_win32_buffer_internal_dynamic_resizing@@@@YAHQBDAAV?$__crt_win32_buffer@_WU__crt_win32_buffer_internal_dynamic_resizing@@@@I@Z 0042ac5a f i libucrt:argv_wildcards.obj
 0001:00029c77       ??$__acrt_wcs_to_mbs_cp@U__crt_win32_buffer_internal_dynamic_resizing@@@@YAHQB_WAAV?$__crt_win32_buffer@DU__crt_win32_buffer_internal_dynamic_resizing@@@@I@Z 0042ac77 f i libucrt:argv_wildcards.obj
 0001:0002a5d9       ??$tcslen@ABQBD@?$__crt_char_traits@D@@SAIABQBD@Z 0042b5d9 f i libucrt:argv_wildcards.obj
 0001:0002a5f1       ??$tcslen@ABQB_W@?$__crt_char_traits@_W@@SAIABQB_W@Z 0042b5f1 f i libucrt:argv_wildcards.obj
 0001:0002a60f       ??$tcsncpy_s@AAPADIAAPADABI@?$__crt_char_traits@D@@SAHAAPAD$$QAI0ABI@Z 0042b60f f i libucrt:argv_wildcards.obj
 0001:0002a632       ??$tcsncpy_s@AAPA_WIAAPA_WABI@?$__crt_char_traits@_W@@SAHAAPA_W$$QAI0ABI@Z 0042b632 f i libucrt:argv_wildcards.obj
 0001:0002a655       ??$tcsncpy_s@PADABIABQBDABI@?$__crt_char_traits@D@@SAH$$QAPADABIABQBD1@Z 0042b655 f i libucrt:argv_wildcards.obj
 0001:0002a678       ??$tcsncpy_s@PADIABQBDABI@?$__crt_char_traits@D@@SAH$$QAPAD$$QAIABQBDABI@Z 0042b678 f i libucrt:argv_wildcards.obj
 0001:0002a69b       ??$tcsncpy_s@PA_WABIABQB_WABI@?$__crt_char_traits@_W@@SAH$$QAPA_WABIABQB_W1@Z 0042b69b f i libucrt:argv_wildcards.obj
 0001:0002a6be       ??$tcsncpy_s@PA_WIABQB_WABI@?$__crt_char_traits@_W@@SAH$$QAPA_W$$QAIABQB_WABI@Z 0042b6be f i libucrt:argv_wildcards.obj
 0001:0002a6e1       ??$tcspbrk@AAPADAAY02$$CBD@?$__crt_char_traits@D@@SAPADAAPADAAY02$$CBD@Z 0042b6e1 f i libucrt:argv_wildcards.obj
 0001:0002a6f7       ??$tcspbrk@AAPA_WAAY02$$CB_W@?$__crt_char_traits@_W@@SAPA_WAAPA_WAAY02$$CB_W@Z 0042b6f7 f i libucrt:argv_wildcards.obj
 0001:0002a70d       ??0?$__crt_unique_handle_t@U__crt_findfile_traits@@@@QAE@QAX@Z 0042b70d f i libucrt:argv_wildcards.obj
 0001:0002a71d       ??0?$__crt_win32_buffer@DU__crt_win32_buffer_internal_dynamic_resizing@@@@QAE@XZ 0042b71d f i libucrt:argv_wildcards.obj
 0001:0002a733       ??0?$__crt_win32_buffer@_WU__crt_win32_buffer_internal_dynamic_resizing@@@@QAE@XZ 0042b733 f i libucrt:argv_wildcards.obj
 0001:0002a763       ??1?$__crt_unique_handle_t@U__crt_findfile_traits@@@@QAE@XZ 0042b763 f i libucrt:argv_wildcards.obj
 0001:0002a77a       ??1?$__crt_win32_buffer@DU__crt_win32_buffer_internal_dynamic_resizing@@@@QAE@XZ 0042b77a f i libucrt:argv_wildcards.obj
 0001:0002a77f       ??1?$__crt_win32_buffer@_WU__crt_win32_buffer_internal_dynamic_resizing@@@@QAE@XZ 0042b77f f i libucrt:argv_wildcards.obj
 0001:0002a89d       ?__acrt_get_utf8_acp_compatibility_codepage@@YAIXZ 0042b89d f i libucrt:argv_wildcards.obj
 0001:0002a8dc       ?_deallocate@?$__crt_win32_buffer@DU__crt_win32_buffer_internal_dynamic_resizing@@@@AAEXXZ 0042b8dc f i libucrt:argv_wildcards.obj
 0001:0002a8f6       ?_deallocate@?$__crt_win32_buffer@_WU__crt_win32_buffer_internal_dynamic_resizing@@@@AAEXXZ 0042b8f6 f i libucrt:argv_wildcards.obj
 0001:0002a910       ?allocate@?$__crt_win32_buffer@DU__crt_win32_buffer_internal_dynamic_resizing@@@@QAEHI@Z 0042b910 f i libucrt:argv_wildcards.obj
 0001:0002a94c       ?allocate@?$__crt_win32_buffer@_WU__crt_win32_buffer_internal_dynamic_resizing@@@@QAEHI@Z 0042b94c f i libucrt:argv_wildcards.obj
 0001:0002a98b       ?allocate@__crt_win32_buffer_internal_dynamic_resizing@@SAHQAPAXIABV__crt_win32_buffer_empty_debug_info@@@Z 0042b98b f i libucrt:argv_wildcards.obj
 0001:0002aa1a       ?capacity@?$__crt_win32_buffer@DU__crt_win32_buffer_internal_dynamic_resizing@@@@QBEIXZ 0042ba1a f i libucrt:argv_wildcards.obj
 0001:0002aa1e       ?capacity@?$__crt_win32_buffer@_WU__crt_win32_buffer_internal_dynamic_resizing@@@@QBEIXZ 0042ba1e f i libucrt:argv_wildcards.obj
 0001:0002aa22       ?close@?$__crt_unique_handle_t@U__crt_findfile_traits@@@@QAEXXZ 0042ba22 f i libucrt:argv_wildcards.obj
 0001:0002aa39       ?close@__crt_findfile_traits@@SA_NPAX@Z 0042ba39 f i libucrt:argv_wildcards.obj
 0001:0002aa4e       ?data@?$__crt_win32_buffer@DU__crt_win32_buffer_internal_dynamic_resizing@@@@QAEPADXZ 0042ba4e f i libucrt:argv_wildcards.obj
 0001:0002aa52       ?data@?$__crt_win32_buffer@_WU__crt_win32_buffer_internal_dynamic_resizing@@@@QAEPA_WXZ 0042ba52 f i libucrt:argv_wildcards.obj
 0001:0002aa56       ?deallocate@__crt_win32_buffer_internal_dynamic_resizing@@SAXQAXABV__crt_win32_buffer_empty_debug_info@@@Z 0042ba56 f i libucrt:argv_wildcards.obj
 0001:0002aa66       ?debug_info@?$__crt_win32_buffer@DU__crt_win32_buffer_internal_dynamic_resizing@@@@QBEABV__crt_win32_buffer_empty_debug_info@@XZ 0042ba66 f i libucrt:argv_wildcards.obj
 0001:0002aa69       ?debug_info@?$__crt_win32_buffer@_WU__crt_win32_buffer_internal_dynamic_resizing@@@@QBEABV__crt_win32_buffer_empty_debug_info@@XZ 0042ba69 f i libucrt:argv_wildcards.obj
 0001:0002ab82       ?get@?$__crt_unique_handle_t@U__crt_findfile_traits@@@@QBEPAXXZ 0042bb82 f i libucrt:argv_wildcards.obj
 0001:0002abb8       ?get_invalid_value@__crt_findfile_traits@@SAPAXXZ 0042bbb8 f i libucrt:argv_wildcards.obj
 0001:0002ac07       ?set_to_nullptr@?$__crt_win32_buffer@DU__crt_win32_buffer_internal_dynamic_resizing@@@@QAEXXZ 0042bc07 f i libucrt:argv_wildcards.obj
 0001:0002ac1e       ?set_to_nullptr@?$__crt_win32_buffer@_WU__crt_win32_buffer_internal_dynamic_resizing@@@@QAEXXZ 0042bc1e f i libucrt:argv_wildcards.obj
 0001:0002ac35       ?size@?$__crt_win32_buffer@DU__crt_win32_buffer_internal_dynamic_resizing@@@@QAEXI@Z 0042bc35 f i libucrt:argv_wildcards.obj
 0001:0002ac44       ?size@?$__crt_win32_buffer@_WU__crt_win32_buffer_internal_dynamic_resizing@@@@QAEXI@Z 0042bc44 f i libucrt:argv_wildcards.obj
 0001:0002ac65       ?strpbrk@@YAPADQADQBD@Z    0042bc65 f i libucrt:argv_wildcards.obj
 0001:0002ac70       ?wcspbrk@@YAPA_WPA_WPB_W@Z 0042bc70 f i libucrt:argv_wildcards.obj
 0001:0002ac7b       ___acrt_expand_narrow_argv_wildcards 0042bc7b f   libucrt:argv_wildcards.obj
 0001:0002ac86       ___acrt_expand_wide_argv_wildcards 0042bc86 f   libucrt:argv_wildcards.obj
 0001:0002ad58       ??$__acrt_wcs_to_mbs_cp@U__crt_win32_buffer_no_resizing@@@@YAHQB_WAAV?$__crt_win32_buffer@DU__crt_win32_buffer_no_resizing@@@@I@Z 0042bd58 f i libucrt:getmodulefilenamea.obj
 0001:0002ad75       ??0?$__crt_win32_buffer@DU__crt_win32_buffer_no_resizing@@@@QAE@QADI@Z 0042bd75 f i libucrt:getmodulefilenamea.obj
 0001:0002ad99       ??1?$__crt_win32_buffer@DU__crt_win32_buffer_no_resizing@@@@QAE@XZ 0042bd99 f i libucrt:getmodulefilenamea.obj
 0001:0002adc8       ?_deallocate@?$__crt_win32_buffer@DU__crt_win32_buffer_no_resizing@@@@AAEXXZ 0042bdc8 f i libucrt:getmodulefilenamea.obj
 0001:0002add3       ?allocate@?$__crt_win32_buffer@DU__crt_win32_buffer_no_resizing@@@@QAEHI@Z 0042bdd3 f i libucrt:getmodulefilenamea.obj
 0001:0002adfa       ?allocate@__crt_win32_buffer_no_resizing@@SAHQAPAXIABV__crt_win32_buffer_empty_debug_info@@@Z 0042bdfa f i libucrt:getmodulefilenamea.obj
 0001:0002ae07       ?capacity@?$__crt_win32_buffer@DU__crt_win32_buffer_no_resizing@@@@QBEIXZ 0042be07 f i libucrt:getmodulefilenamea.obj
 0001:0002ae0b       ?data@?$__crt_win32_buffer@DU__crt_win32_buffer_no_resizing@@@@QAEPADXZ 0042be0b f i libucrt:getmodulefilenamea.obj
 0001:0002ae0f       ?deallocate@__crt_win32_buffer_no_resizing@@SAXQAXABV__crt_win32_buffer_empty_debug_info@@@Z 0042be0f f i libucrt:getmodulefilenamea.obj
 0001:0002ae12       ?debug_info@?$__crt_win32_buffer@DU__crt_win32_buffer_no_resizing@@@@QBEABV__crt_win32_buffer_empty_debug_info@@XZ 0042be12 f i libucrt:getmodulefilenamea.obj
 0001:0002ae15       ?set_to_nullptr@?$__crt_win32_buffer@DU__crt_win32_buffer_no_resizing@@@@QAEXXZ 0042be15 f i libucrt:getmodulefilenamea.obj
 0001:0002ae29       ?size@?$__crt_win32_buffer@DU__crt_win32_buffer_no_resizing@@@@QAEXI@Z 0042be29 f i libucrt:getmodulefilenamea.obj
 0001:0002ae38       ?size@?$__crt_win32_buffer@DU__crt_win32_buffer_no_resizing@@@@QBEIXZ 0042be38 f i libucrt:getmodulefilenamea.obj
 0001:0002ae3c       ___acrt_GetModuleFileNameA 0042be3c f   libucrt:getmodulefilenamea.obj
 0001:0002af50       ??$initialize_from_array@$$BY10BAA@E@?$dual_state_global@PAE@__crt_state_management@@QAAXAAY10BAA@E@Z 0042bf50 f i libucrt:mbctype.obj
 0001:0002af5f       ??$initialize_from_array@$$BY10BAB@E@?$dual_state_global@PAE@__crt_state_management@@QAAXAAY10BAB@E@Z 0042bf5f f i libucrt:mbctype.obj
 0001:0002b07b       ?dangerous_get_state_array@?$dual_state_global@PAE@__crt_state_management@@QAEPAPAEXZ 0042c07b f i libucrt:mbctype.obj
 0001:0002b07e       ?dangerous_get_state_array@?$dual_state_global@PAU__crt_multibyte_data@@@__crt_state_management@@QAEPAPAU__crt_multibyte_data@@XZ 0042c07e f i libucrt:mbctype.obj
 0001:0002b0f2       ?initialize@?$dual_state_global@PAU__crt_multibyte_data@@@__crt_state_management@@QAEXQAU__crt_multibyte_data@@@Z 0042c0f2 f i libucrt:mbctype.obj
 0001:0002b4b1       ?value@?$dual_state_global@PAE@__crt_state_management@@QAEAAPAEXZ 0042c4b1 f i libucrt:mbctype.obj
 0001:0002b4b4       ___acrt_initialize_multibyte 0042c4b4 f   libucrt:mbctype.obj
 0001:0002b4fc       ___acrt_update_thread_multibyte_data 0042c4fc f   libucrt:mbctype.obj
 0001:0002b50f       ___p__mbcasemap            0042c50f f   libucrt:mbctype.obj
 0001:0002b515       ___p__mbctype              0042c515 f   libucrt:mbctype.obj
 0001:0002b51b       __getmbcp                  0042c51b f   libucrt:mbctype.obj
 0001:0002b54f       __setmbcp                  0042c54f f   libucrt:mbctype.obj
 0001:0002b56e       __setmbcp_nolock           0042c56e f   libucrt:mbctype.obj
 0001:0002b839       __ismbbalnum               0042c839 f   libucrt:ismbbyte.obj
 0001:0002b854       __ismbbalnum_l             0042c854 f   libucrt:ismbbyte.obj
 0001:0002b870       __ismbbalpha               0042c870 f   libucrt:ismbbyte.obj
 0001:0002b88b       __ismbbalpha_l             0042c88b f   libucrt:ismbbyte.obj
 0001:0002b8a7       __ismbbblank               0042c8a7 f   libucrt:ismbbyte.obj
 0001:0002b8ca       __ismbbblank_l             0042c8ca f   libucrt:ismbbyte.obj
 0001:0002b8ee       __ismbbgraph               0042c8ee f   libucrt:ismbbyte.obj
 0001:0002b909       __ismbbgraph_l             0042c909 f   libucrt:ismbbyte.obj
 0001:0002b925       __ismbbkalnum              0042c925 f   libucrt:ismbbyte.obj
 0001:0002b93d       __ismbbkalnum_l            0042c93d f   libucrt:ismbbyte.obj
 0001:0002b956       __ismbbkana                0042c956 f   libucrt:ismbbyte.obj
 0001:0002b969       __ismbbkana_l              0042c969 f   libucrt:ismbbyte.obj
 0001:0002b9b8       __ismbbkprint              0042c9b8 f   libucrt:ismbbyte.obj
 0001:0002b9d0       __ismbbkprint_l            0042c9d0 f   libucrt:ismbbyte.obj
 0001:0002b9e9       __ismbbkpunct              0042c9e9 f   libucrt:ismbbyte.obj
 0001:0002ba01       __ismbbkpunct_l            0042ca01 f   libucrt:ismbbyte.obj
 0001:0002ba1a       __ismbblead                0042ca1a f   libucrt:ismbbyte.obj
 0001:0002ba32       __ismbblead_l              0042ca32 f   libucrt:ismbbyte.obj
 0001:0002ba4b       __ismbbprint               0042ca4b f   libucrt:ismbbyte.obj
 0001:0002ba66       __ismbbprint_l             0042ca66 f   libucrt:ismbbyte.obj
 0001:0002ba82       __ismbbpunct               0042ca82 f   libucrt:ismbbyte.obj
 0001:0002ba9a       __ismbbpunct_l             0042ca9a f   libucrt:ismbbyte.obj
 0001:0002bab3       __ismbbtrail               0042cab3 f   libucrt:ismbbyte.obj
 0001:0002bacb       __ismbbtrail_l             0042cacb f   libucrt:ismbbyte.obj
 0001:0002bb4c       ___acrt_MultiByteToWideChar 0042cb4c f   libucrt:multibytetowidechar.obj
 0001:0002bc2d       ___acrt_WideCharToMultiByte 0042cc2d f   libucrt:widechartomultibyte.obj
 0001:0002bd7f       ___dcrt_get_narrow_environment_from_os 0042cd7f f   libucrt:get_environment_from_os.obj
 0001:0002be03       ___dcrt_get_wide_environment_from_os 0042ce03 f   libucrt:get_environment_from_os.obj
 0001:0002c533       ??$get_or_create_environment_nolock@$$V@?$__crt_char_traits@D@@SAPAPADXZ 0042d533 f i libucrt:setenv.obj
 0001:0002c538       ??$get_or_create_environment_nolock@$$V@?$__crt_char_traits@_W@@SAPAPA_WXZ 0042d538 f i libucrt:setenv.obj
 0001:0002c53d       ??$set_environment_variable@ABQADQAD@?$__crt_char_traits@D@@SAHABQAD$$QBQAD@Z 0042d53d f i libucrt:setenv.obj
 0001:0002c555       ??$set_environment_variable@ABQA_WQA_W@?$__crt_char_traits@_W@@SAHABQA_W$$QBQA_W@Z 0042d555 f i libucrt:setenv.obj
 0001:0002c56c       ??$tcschr@ABQADD@?$__crt_char_traits@D@@SAPADABQAD$$QAD@Z 0042d56c f i libucrt:setenv.obj
 0001:0002c586       ??$tcschr@ABQA_WD@?$__crt_char_traits@_W@@SAPA_WABQA_W$$QAD@Z 0042d586 f i libucrt:setenv.obj
 0001:0002c5a4       ??$tcscpy_s@AAPADABIAAPAD@?$__crt_char_traits@D@@SAHAAPADABI0@Z 0042d5a4 f i libucrt:setenv.obj
 0001:0002c5c2       ??$tcscpy_s@AAPA_WABIAAPA_W@?$__crt_char_traits@_W@@SAHAAPA_WABI0@Z 0042d5c2 f i libucrt:setenv.obj
 0001:0002c5e0       ??$tcscpy_s@ABQADABIABQAD@?$__crt_char_traits@D@@SAHABQADABI0@Z 0042d5e0 f i libucrt:setenv.obj
 0001:0002c5fe       ??$tcscpy_s@ABQA_WABIABQA_W@?$__crt_char_traits@_W@@SAHABQA_WABI0@Z 0042d5fe f i libucrt:setenv.obj
 0001:0002c61c       ??$tcslen@ABQAD@?$__crt_char_traits@D@@SAIABQAD@Z 0042d61c f i libucrt:setenv.obj
 0001:0002c634       ??$tcslen@ABQA_W@?$__crt_char_traits@_W@@SAIABQA_W@Z 0042d634 f i libucrt:setenv.obj
 0001:0002c652       ??$tcsnicoll@ABQBDAAPADABI@?$__crt_char_traits@D@@SAHABQBDAAPADABI@Z 0042d652 f i libucrt:setenv.obj
 0001:0002c670       ??$tcsnicoll@ABQB_WAAPA_WABI@?$__crt_char_traits@_W@@SAHABQB_WAAPA_WABI@Z 0042d670 f i libucrt:setenv.obj
 0001:0002c6b2       ?strchr@@YAPADQADH@Z       0042d6b2 f i libucrt:setenv.obj
 0001:0002c6bd       ?wcschr@@YAPA_WPA_W_W@Z    0042d6bd f i libucrt:setenv.obj
 0001:0002c6c8       ___dcrt_set_variable_in_narrow_environment_nolock 0042d6c8 f   libucrt:setenv.obj
 0001:0002c6d3       ___dcrt_set_variable_in_wide_environment_nolock 0042d6d3 f   libucrt:setenv.obj
 0001:0002c6de       ??$?RU__crt_lowio_handle_data@@@__crt_internal_free_policy@@QBEXQBU__crt_lowio_handle_data@@@Z 0042d6de f i libucrt:osfinfo.obj
 0001:0002c6f0       ??0?$__crt_unique_heap_ptr@U__crt_lowio_handle_data@@U__crt_internal_free_policy@@@@QAE@QAU__crt_lowio_handle_data@@@Z 0042d6f0 f i libucrt:osfinfo.obj
 0001:0002c700       ??1?$__crt_unique_heap_ptr@U__crt_lowio_handle_data@@U__crt_internal_free_policy@@@@QAE@XZ 0042d700 f i libucrt:osfinfo.obj
 0001:0002c712       ??B?$__crt_unique_heap_ptr@U__crt_lowio_handle_data@@U__crt_internal_free_policy@@@@QBE_NXZ 0042d712 f i libucrt:osfinfo.obj
 0001:0002c719       ?detach@?$__crt_unique_heap_ptr@U__crt_lowio_handle_data@@U__crt_internal_free_policy@@@@QAEPAU__crt_lowio_handle_data@@XZ 0042d719 f i libucrt:osfinfo.obj
 0001:0002c71f       ?get@?$__crt_unique_heap_ptr@U__crt_lowio_handle_data@@U__crt_internal_free_policy@@@@QBEPAU__crt_lowio_handle_data@@XZ 0042d71f f i libucrt:osfinfo.obj
 0001:0002c722       ?is_valid@?$__crt_unique_heap_ptr@U__crt_lowio_handle_data@@U__crt_internal_free_policy@@@@QBE_NXZ 0042d722 f i libucrt:osfinfo.obj
 0001:0002c729       ?release@?$__crt_unique_heap_ptr@U__crt_lowio_handle_data@@U__crt_internal_free_policy@@@@QAEXXZ 0042d729 f i libucrt:osfinfo.obj
 0001:0002c73b       ___acrt_lowio_create_handle_array 0042d73b f   libucrt:osfinfo.obj
 0001:0002c7b6       ___acrt_lowio_destroy_handle_array 0042d7b6 f   libucrt:osfinfo.obj
 0001:0002c7eb       ___acrt_lowio_ensure_fh_exists 0042d7eb f   libucrt:osfinfo.obj
 0001:0002c889       ___acrt_lowio_lock_fh      0042d889 f   libucrt:osfinfo.obj
 0001:0002c8ac       ___acrt_lowio_set_os_handle 0042d8ac f   libucrt:osfinfo.obj
 0001:0002c93e       ___acrt_lowio_unlock_fh    0042d93e f   libucrt:osfinfo.obj
 0001:0002c961       __alloc_osfhnd             0042d961 f   libucrt:osfinfo.obj
 0001:0002ca74       __free_osfhnd              0042da74 f   libucrt:osfinfo.obj
 0001:0002cb05       __get_osfhandle            0042db05 f   libucrt:osfinfo.obj
 0001:0002cb6f       __open_osfhandle           0042db6f f   libucrt:osfinfo.obj
 0001:0002cc85       ?dangerous_get_state_array@?$dual_state_global@H@__crt_state_management@@QAEPAHXZ 0042dc85 f i libucrt:txtmode.obj
 0001:0002cc88       ___acrt_initialize_fmode   0042dc88 f   libucrt:txtmode.obj
 0001:0002cc9e       ___p__fmode                0042dc9e f   libucrt:txtmode.obj
 0001:0002cca4       ??$?RG@__crt_internal_free_policy@@QBEXQBG@Z 0042dca4 f i libucrt:initctype.obj
 0001:0002ccb6       ??$?RJ@__crt_internal_free_policy@@QBEXQBJ@Z 0042dcb6 f i libucrt:initctype.obj
 0001:0002ccc8       ??0?$__crt_unique_heap_ptr@GU__crt_internal_free_policy@@@@QAE@QAG@Z 0042dcc8 f i libucrt:initctype.obj
 0001:0002ccd8       ??0?$__crt_unique_heap_ptr@JU__crt_internal_free_policy@@@@QAE@QAJ@Z 0042dcd8 f i libucrt:initctype.obj
 0001:0002cce8       ??1?$__crt_unique_heap_ptr@GU__crt_internal_free_policy@@@@QAE@XZ 0042dce8 f i libucrt:initctype.obj
 0001:0002ccfa       ??1?$__crt_unique_heap_ptr@JU__crt_internal_free_policy@@@@QAE@XZ 0042dcfa f i libucrt:initctype.obj
 0001:0002cd0c       ?detach@?$__crt_unique_heap_ptr@GU__crt_internal_free_policy@@@@QAEPAGXZ 0042dd0c f i libucrt:initctype.obj
 0001:0002cd12       ?detach@?$__crt_unique_heap_ptr@JU__crt_internal_free_policy@@@@QAEPAJXZ 0042dd12 f i libucrt:initctype.obj
 0001:0002cd18       ?release@?$__crt_unique_heap_ptr@GU__crt_internal_free_policy@@@@QAEXXZ 0042dd18 f i libucrt:initctype.obj
 0001:0002cd2a       ?release@?$__crt_unique_heap_ptr@JU__crt_internal_free_policy@@@@QAEXXZ 0042dd2a f i libucrt:initctype.obj
 0001:0002cd3c       ____lc_codepage_func       0042dd3c f   libucrt:initctype.obj
 0001:0002cd61       ____lc_collate_cp_func     0042dd61 f   libucrt:initctype.obj
 0001:0002cd86       ____lc_locale_name_func    0042dd86 f   libucrt:initctype.obj
 0001:0002cdad       ____mb_cur_max_func        0042ddad f   libucrt:initctype.obj
 0001:0002cdd2       ____mb_cur_max_l_func      0042ddd2 f   libucrt:initctype.obj
 0001:0002cdeb       ___acrt_locale_initialize_ctype 0042ddeb f   libucrt:initctype.obj
 0001:0002d249       ??$?RUlconv@@@__crt_internal_free_policy@@QBEXQBUlconv@@@Z 0042e249 f i libucrt:initmon.obj
 0001:0002d25b       ??0?$__crt_unique_heap_ptr@Ulconv@@U__crt_internal_free_policy@@@@QAE@QAUlconv@@@Z 0042e25b f i libucrt:initmon.obj
 0001:0002d26b       ??1?$__crt_unique_heap_ptr@Ulconv@@U__crt_internal_free_policy@@@@QAE@XZ 0042e26b f i libucrt:initmon.obj
 0001:0002d27d       ?detach@?$__crt_unique_heap_ptr@Ulconv@@U__crt_internal_free_policy@@@@QAEPAUlconv@@XZ 0042e27d f i libucrt:initmon.obj
 0001:0002d283       ?release@?$__crt_unique_heap_ptr@Ulconv@@U__crt_internal_free_policy@@@@QAEXXZ 0042e283 f i libucrt:initmon.obj
 0001:0002d295       ___acrt_locale_free_monetary 0042e295 f   libucrt:initmon.obj
 0001:0002d393       ___acrt_locale_initialize_monetary 0042e393 f   libucrt:initmon.obj
 0001:0002d780       ___acrt_locale_free_numeric 0042e780 f   libucrt:initnum.obj
 0001:0002d7e9       ___acrt_locale_initialize_numeric 0042e7e9 f   libucrt:initnum.obj
 0001:0002da2e       ??$?RU__crt_lc_time_data@@@__crt_internal_free_policy@@QBEXQBU__crt_lc_time_data@@@Z 0042ea2e f i libucrt:inittime.obj
 0001:0002dab2       ??0?$__crt_unique_heap_ptr@U__crt_lc_time_data@@U__crt_internal_free_policy@@@@QAE@QAU__crt_lc_time_data@@@Z 0042eab2 f i libucrt:inittime.obj
 0001:0002dac2       ??1?$__crt_unique_heap_ptr@U__crt_lc_time_data@@U__crt_internal_free_policy@@@@QAE@XZ 0042eac2 f i libucrt:inittime.obj
 0001:0002dad4       ??B?$__crt_unique_heap_ptr@U__crt_lc_time_data@@U__crt_internal_free_policy@@@@QBE_NXZ 0042ead4 f i libucrt:inittime.obj
 0001:0002dadb       ?detach@?$__crt_unique_heap_ptr@U__crt_lc_time_data@@U__crt_internal_free_policy@@@@QAEPAU__crt_lc_time_data@@XZ 0042eadb f i libucrt:inittime.obj
 0001:0002db19       ?get@?$__crt_unique_heap_ptr@U__crt_lc_time_data@@U__crt_internal_free_policy@@@@QBEPAU__crt_lc_time_data@@XZ 0042eb19 f i libucrt:inittime.obj
 0001:0002ddf9       ?is_valid@?$__crt_unique_heap_ptr@U__crt_lc_time_data@@U__crt_internal_free_policy@@@@QBE_NXZ 0042edf9 f i libucrt:inittime.obj
 0001:0002de00       ?release@?$__crt_unique_heap_ptr@U__crt_lc_time_data@@U__crt_internal_free_policy@@@@QAEXXZ 0042ee00 f i libucrt:inittime.obj
 0001:0002de12       ___acrt_locale_free_time   0042ee12 f   libucrt:inittime.obj
 0001:0002def6       ___acrt_locale_initialize_time 0042eef6 f   libucrt:inittime.obj
 0001:0002df71       ___pctype_func             0042ef71 f   libucrt:ctype.obj
 0001:0002df95       ___pwctype_func            0042ef95 f   libucrt:ctype.obj
 0001:0002e082       _wcsncat_s                 0042f082 f   libucrt:wcsncat_s.obj
 0001:0002e08d       _wcscspn                   0042f08d f   libucrt:wcscspn.obj
 0001:0002e0e6       _wcspbrk                   0042f0e6 f   libucrt:wcspbrk.obj
 0001:0002e134       ??0?$__crt_scoped_stack_ptr@_W@@QAE@U?$__crt_scoped_stack_ptr_tag@_W@@@Z 0042f134 f i libucrt:getstringtypea.obj
 0001:0002e144       ??0?$__crt_scoped_stack_ptr_tag@_W@@QAE@QA_W@Z 0042f144 f i libucrt:getstringtypea.obj
 0001:0002e154       ??1?$__crt_scoped_stack_ptr@_W@@QAE@XZ 0042f154 f i libucrt:getstringtypea.obj
 0001:0002e15d       ?get@?$__crt_scoped_stack_ptr@_W@@QBEPA_WXZ 0042f15d f i libucrt:getstringtypea.obj
 0001:0002e160       __MallocaComputeSize       0042f160 f i libucrt:getstringtypea.obj
 0001:0002e173       __MarkAllocaS              0042f173 f i libucrt:getstringtypea.obj
 0001:0002e189       ___acrt_GetStringTypeA     0042f189 f   libucrt:getstringtypea.obj
 0001:0002e28c       __freea_crt                0042f28c f i libucrt:getstringtypea.obj
 0001:0002e2ac       ___acrt_add_locale_ref     0042f2ac f   libucrt:locale_refcounting.obj
 0001:0002e329       ___acrt_free_locale        0042f329 f   libucrt:locale_refcounting.obj
 0001:0002e471       ___acrt_locale_add_lc_time_reference 0042f471 f   libucrt:locale_refcounting.obj
 0001:0002e49a       ___acrt_locale_free_lc_time_if_unreferenced 0042f49a f   libucrt:locale_refcounting.obj
 0001:0002e4cb       ___acrt_locale_release_lc_time_reference 0042f4cb f   libucrt:locale_refcounting.obj
 0001:0002e4f4       ___acrt_release_locale_ref 0042f4f4 f   libucrt:locale_refcounting.obj
 0001:0002e575       ___acrt_update_thread_locale_data 0042f575 f   libucrt:locale_refcounting.obj
 0001:0002e5f6       __updatetlocinfoEx_nolock  0042f5f6 f   libucrt:locale_refcounting.obj
 0001:0002ed88       ___acrt_get_qualified_locale 0042fd88 f   libucrt:get_qualified_locale.obj
 0001:0002f707       ___acrt_get_qualified_locale_downlevel 00430707 f   libucrt:getqloc_downlevel.obj
 0001:0002f8fc       _localeconv                004308fc f   libucrt:localeconv.obj
 0001:0002f924       __recalloc                 00430924 f   libucrt:recalloc.obj
 0001:0002f92f       __recalloc_base            0043092f f   libucrt:recalloc.obj
 0001:0002f99c       ___acrt_getheap            0043099c f   libucrt:heap_handle.obj
 0001:0002f9a2       ___acrt_initialize_heap    004309a2 f   libucrt:heap_handle.obj
 0001:0002f9b3       ___acrt_uninitialize_heap  004309b3 f   libucrt:heap_handle.obj
 0001:0002f9bd       __get_heap_handle          004309bd f   libucrt:heap_handle.obj
 0001:0002f9c3       ___acrt_execute_initializers 004309c3 f   libucrt:shared_initialization.obj
 0001:0002fa2b       ___acrt_execute_uninitializers 00430a2b f   libucrt:shared_initialization.obj
 0001:0002fa5c       ??$?B$$A6AHI@Z@__crt_fast_encoded_nullptr_t@@QBEP6AHI@ZXZ 00430a5c f i libucrt:new_handler.obj
 0001:0002fa62       ??$__crt_fast_decode_pointer@P6AHI@Z@@YAP6AHI@ZQ6AHI@Z@Z 00430a62 f i libucrt:new_handler.obj
 0001:0002fa78       ??$__crt_fast_encode_pointer@P6AHI@Z@@YAP6AHI@ZQ6AHI@Z@Z 00430a78 f i libucrt:new_handler.obj
 0001:0002fa97       ?_set_new_handler@@YAP6AHI@ZH@Z 00430a97 f   libucrt:new_handler.obj
 0001:0002faa4       ?initialize@?$dual_state_global@P6AHI@Z@__crt_state_management@@QAEXQ6AHI@Z@Z 00430aa4 f i libucrt:new_handler.obj
 0001:0002faca       ?value@?$dual_state_global@P6AHI@Z@__crt_state_management@@QAEAAP6AHI@ZXZ 00430aca f i libucrt:new_handler.obj
 0001:0002facd       ___acrt_initialize_new_handler 00430acd f   libucrt:new_handler.obj
 0001:0002fadc       __callnewh                 00430adc f   libucrt:new_handler.obj
 0001:0002fb09       __query_new_handler        00430b09 f   libucrt:new_handler.obj
 0001:0002fb65       __set_new_handler          00430b65 f   libucrt:new_handler.obj
 0001:0002fbcf       ??$?B$$A6AXH@Z@__crt_fast_encoded_nullptr_t@@QBEP6AXH@ZXZ 00430bcf f i libucrt:signal.obj
 0001:0002fc5f       ??$__crt_fast_decode_pointer@P6AXH@Z@@YAP6AXH@ZQ6AXH@Z@Z 00430c5f f i libucrt:signal.obj
 0001:0002fc75       ??$__crt_fast_encode_pointer@P6AXH@Z@@YAP6AXH@ZQ6AXH@Z@Z 00430c75 f i libucrt:signal.obj
 0001:0002fdc9       ?initialize@?$dual_state_global@P6AXH@Z@__crt_state_management@@QAEXQ6AXH@Z@Z 00430dc9 f i libucrt:signal.obj
 0001:0002fe7c       ?value@?$dual_state_global@P6AXH@Z@__crt_state_management@@QAEAAP6AXH@ZXZ 00430e7c f i libucrt:signal.obj
 0001:0002fe7f       ___acrt_get_sigabrt_handler 00430e7f f   libucrt:signal.obj
 0001:0002fea6       ___acrt_initialize_signal_handlers 00430ea6 f   libucrt:signal.obj
 0001:0002fec4       ___fpecode                 00430ec4 f   libucrt:signal.obj
 0001:0002fecd       ___pxcptinfoptrs           00430ecd f   libucrt:signal.obj
 0001:0002fed6       _raise                     00430ed6 f   libucrt:signal.obj
 0001:000300c9       _signal                    004310c9 f   libucrt:signal.obj
 0001:000303cb       ___control87_2             004313cb f   libucrt:ieee87.obj
 0001:00030863       ___fpreset_sse2            00431863 f   libucrt:ieee87.obj
 0001:00030a39       __clearfp                  00431a39 f   libucrt:ieee87.obj
 0001:00030b17       __control87                00431b17 f   libucrt:ieee87.obj
 0001:00030e18       __controlfp                00431e18 f   libucrt:ieee87.obj
 0001:00030e32       __fpreset                  00431e32 f   libucrt:ieee87.obj
 0001:00030f08       __set_controlfp            00431f08 f   libucrt:ieee87.obj
 0001:00030f7b       __statusfp                 00431f7b f   libucrt:ieee87.obj
 0001:00031016       __statusfp2                00432016 f   libucrt:ieee87.obj
 0001:00031079       __iswctype_l               00432079 f   libucrt:iswctype.obj
 0001:0003108d       _iswctype                  0043208d f   libucrt:iswctype.obj
 0001:000310f6       __isctype                  004320f6 f   libucrt:isctype.obj
 0001:00031129       __isctype_l                00432129 f   libucrt:isctype.obj
 0001:000311f4       __isleadbyte_fast_internal 004321f4 f i libucrt:isctype.obj
 0001:00031299       ___acrt_DownlevelLCIDToLocaleName 00432299 f   libucrt:lcidtoname_downlevel.obj
 0001:00031343       ___acrt_DownlevelLocaleNameToLCID 00432343 f   libucrt:lcidtoname_downlevel.obj
 0001:0003136f       __fclose_nolock            0043236f f   libucrt:fclose.obj
 0001:000313e6       _fclose                    004323e6 f   libucrt:fclose.obj
 0001:0003146a       __isatty                   0043246a f   libucrt:isatty.obj
 0001:00031850       __lseek                    00432850 f   libucrt:lseek.obj
 0001:0003185b       __lseek_nolock             0043285b f   libucrt:lseek.obj
 0001:00031866       __lseeki64                 00432866 f   libucrt:lseek.obj
 0001:00031881       __lseeki64_nolock          00432881 f   libucrt:lseek.obj
 0001:000318c8       ?__mbrtowc_utf8@__crt_mbstring@@YAIPA_WPBDIPAU_Mbstatet@@@Z 004328c8 f   libucrt:mbrtowc.obj
 0001:00031908       ?__mbsrtowcs_utf8@__crt_mbstring@@YAIPA_WPAPBDIPAU_Mbstatet@@@Z 00432908 f   libucrt:mbrtowc.obj
 0001:00031d1a       _btowc                     00432d1a f   libucrt:mbrtowc.obj
 0001:00031d72       _mbrlen                    00432d72 f   libucrt:mbrtowc.obj
 0001:00031da4       _mbrtowc                   00432da4 f   libucrt:mbrtowc.obj
 0001:00031df5       _mbsrtowcs                 00432df5 f   libucrt:mbrtowc.obj
 0001:00031e00       _mbsrtowcs_s               00432e00 f   libucrt:mbrtowc.obj
 0001:00031f79       __putwch                   00432f79 f   libucrt:putwch.obj
 0001:00031fa6       __putwch_nolock            00432fa6 f   libucrt:putwch.obj
 0001:0003250f       __read                     0043350f f   libucrt:read.obj
 0001:00032623       __read_nolock              00433623 f   libucrt:read.obj
 0001:000329d3       ___acrt_stdio_allocate_buffer_nolock 004339d3 f   libucrt:_getbuf.obj
 0001:00032a2f       ___iswcsym                 00433a2f f i libucrt:_wctype.obj
 0001:00032a55       ___iswcsymf                00433a55 f i libucrt:_wctype.obj
 0001:00032a7b       __isleadbyte_l             00433a7b f i libucrt:_wctype.obj
 0001:00032ab5       __iswalnum_l               00433ab5 f i libucrt:_wctype.obj
 0001:00032acb       __iswalpha_l               00433acb f i libucrt:_wctype.obj
 0001:00032ae1       __iswblank_l               00433ae1 f i libucrt:_wctype.obj
 0001:00032afe       __iswcntrl_l               00433afe f i libucrt:_wctype.obj
 0001:00032b11       __iswcsym_l                00433b11 f i libucrt:_wctype.obj
 0001:00032b37       __iswcsymf_l               00433b37 f i libucrt:_wctype.obj
 0001:00032b5d       __iswdigit_l               00433b5d f i libucrt:_wctype.obj
 0001:00032b70       __iswgraph_l               00433b70 f i libucrt:_wctype.obj
 0001:00032b86       __iswlower_l               00433b86 f i libucrt:_wctype.obj
 0001:00032b99       __iswprint_l               00433b99 f i libucrt:_wctype.obj
 0001:00032baf       __iswpunct_l               00433baf f i libucrt:_wctype.obj
 0001:00032bc2       __iswspace_l               00433bc2 f i libucrt:_wctype.obj
 0001:00032bd5       __iswupper_l               00433bd5 f i libucrt:_wctype.obj
 0001:00032be8       __iswxdigit_l              00433be8 f i libucrt:_wctype.obj
 0001:00032bfe       _isleadbyte                00433bfe f i libucrt:_wctype.obj
 0001:00032c11       _iswalnum                  00433c11 f i libucrt:_wctype.obj
 0001:00032c27       _iswalpha                  00433c27 f i libucrt:_wctype.obj
 0001:00032c3d       _iswascii                  00433c3d f i libucrt:_wctype.obj
 0001:00032c51       _iswblank                  00433c51 f i libucrt:_wctype.obj
 0001:00032c6e       _iswcntrl                  00433c6e f i libucrt:_wctype.obj
 0001:00032c81       _iswdigit                  00433c81 f i libucrt:_wctype.obj
 0001:00032c94       _iswgraph                  00433c94 f i libucrt:_wctype.obj
 0001:00032caa       _iswlower                  00433caa f i libucrt:_wctype.obj
 0001:00032cbd       _iswprint                  00433cbd f i libucrt:_wctype.obj
 0001:00032cd3       _iswpunct                  00433cd3 f i libucrt:_wctype.obj
 0001:00032ce6       _iswspace                  00433ce6 f i libucrt:_wctype.obj
 0001:00032cf9       _iswupper                  00433cf9 f i libucrt:_wctype.obj
 0001:00032d0c       _iswxdigit                 00433d0c f i libucrt:_wctype.obj
 0001:00032d22       ?__c32rtomb_utf8@__crt_mbstring@@YAIPAD_UPAU_Mbstatet@@@Z 00433d22 f   libucrt:c32rtomb.obj
 0001:00032dcd       ?reset_and_return@__crt_mbstring@@YAIIPAU_Mbstatet@@@Z 00433dcd f i libucrt:c32rtomb.obj
 0001:00032de1       ?return_illegal_sequence@__crt_mbstring@@YAIPAU_Mbstatet@@@Z 00433de1 f i libucrt:c32rtomb.obj
 0001:00032e00       _c32rtomb                  00433e00 f   libucrt:c32rtomb.obj
 0001:00032ea6       ___acrt_fp_strflt_to_string 00433ea6 f   libucrt:_fptostr.obj
 0001:00034310       ??0big_integer@__crt_strtox@@QAE@ABU01@@Z 00435310 f i libucrt:cfout.obj
 0001:00034350       ??0big_integer@__crt_strtox@@QAE@XZ 00435350 f i libucrt:cfout.obj
 0001:000343a0       ??4big_integer@__crt_strtox@@QAEAAU01@ABU01@@Z 004353a0 f i libucrt:cfout.obj
 0001:000343e0       ??8__crt_strtox@@YA_NABUbig_integer@0@0@Z 004353e0 f i libucrt:cfout.obj
 0001:00034420       ??9__crt_strtox@@YA_NABUbig_integer@0@0@Z 00435420 f i libucrt:cfout.obj
 0001:00034460       ?add_carry@__crt_strtox@@YAIAAIII@Z 00435460 f i libucrt:cfout.obj
 0001:00034480       ?add_multiply_carry@__crt_strtox@@YAIAAIIII@Z 00435480 f i libucrt:cfout.obj
 0001:000344b0       ?bit_scan_reverse@__crt_strtox@@YAII@Z 004354b0 f i libucrt:cfout.obj
 0001:000344d0       ?count_sequential_high_zeroes@__crt_strtox@@YAII@Z 004354d0 f i libucrt:cfout.obj
 0001:000344f0       ?divide@__crt_strtox@@YA_KAAUbig_integer@1@ABU21@@Z 004354f0 f i libucrt:cfout.obj
 0001:00034990       ?is_zero@__crt_strtox@@YA_NABUbig_integer@1@@Z 00435990 f i libucrt:cfout.obj
 0001:000349a0       ?make_big_integer@__crt_strtox@@YA?AUbig_integer@1@_K@Z 004359a0 f i libucrt:cfout.obj
 0001:000349c0       ?make_big_integer_power_of_two@__crt_strtox@@YA?AUbig_integer@1@I@Z 004359c0 f i libucrt:cfout.obj
 0001:00034a10       ?multiply@__crt_strtox@@YA_NAAUbig_integer@1@ABU21@@Z 00435a10 f i libucrt:cfout.obj
 0001:00034d50       ?multiply@__crt_strtox@@YA_NAAUbig_integer@1@I@Z 00435d50 f i libucrt:cfout.obj
 0001:00034e20       ?multiply_64_32@__crt_strtox@@YA_K_KI@Z 00435e20 f i libucrt:cfout.obj
 0001:00034e40       ?multiply_by_power_of_ten@__crt_strtox@@YA_NAAUbig_integer@1@I@Z 00435e40 f i libucrt:cfout.obj
 0001:00035370       ?multiply_core@__crt_strtox@@YAIQAIII@Z 00436370 f i libucrt:cfout.obj
 0001:000353b0       ?shift_left@__crt_strtox@@YA_NAAUbig_integer@1@I@Z 004363b0 f i libucrt:cfout.obj
 0001:000354df       ___acrt_fltout             004364df f   libucrt:cfout.obj
 0001:00036a67       ___fpe_flt_rounds          00437a67 f   libucrt:fegetround.obj
 0001:00036a9b       _fegetround                00437a9b f   libucrt:fegetround.obj
 0001:00036e26       ?has_big_buffer@__crt_stdio_stream@@QBE_NXZ 00437e26 f i libucrt:_flsbuf.obj
 0001:00036eb7       ___acrt_stdio_flush_and_write_narrow_nolock 00437eb7 f   libucrt:_flsbuf.obj
 0001:00036ec2       ___acrt_stdio_flush_and_write_wide_nolock 00437ec2 f   libucrt:_flsbuf.obj
 0001:00036ecd       ___acrt_OutputDebugStringA@4 00437ecd f   libucrt:outputdebugstringa.obj
 0001:00037000       _qsort                     00438000 f   libucrt:qsort.obj
 0001:000375a1       _strncpy_s                 004385a1 f   libucrt:strncpy_s.obj
 0001:000375b0       _strpbrk                   004385b0 f   libucrt:strpbrk.obj
 0001:000375f0       __mbsdec                   004385f0 f   libucrt:mbsdec.obj
 0001:00037607       __mbsdec_l                 00438607 f   libucrt:mbsdec.obj
 0001:00037694       ??B?$__crt_scoped_stack_ptr@_W@@QBE_NXZ 00438694 f i libucrt:lcmapstringa.obj
 0001:00037885       ___acrt_LCMapStringA       00438885 f   libucrt:lcmapstringa.obj
 0001:000378dd       __wcsnicoll                004388dd f   libucrt:wcsnicol.obj
 0001:0003794a       __wcsnicoll_l              0043894a f   libucrt:wcsnicol.obj
 0001:00037a0a       __strnicoll                00438a0a f   libucrt:strnicol.obj
 0001:00037a33       __strnicoll_l              00438a33 f   libucrt:strnicol.obj
 0001:00037bce       ___acrt_SetEnvironmentVariableA 00438bce f   libucrt:setenvironmentvariablea.obj
 0001:00037d42       ___acrt_GetLocaleInfoA     00438d42 f   libucrt:getlocaleinfoa.obj
 0001:000383b2       __i64toa                   004393b2 f   libucrt:xtoa.obj
 0001:000383f3       __i64toa_s                 004393f3 f   libucrt:xtoa.obj
 0001:00038432       __i64tow                   00439432 f   libucrt:xtoa.obj
 0001:00038473       __i64tow_s                 00439473 f   libucrt:xtoa.obj
 0001:000384b2       __itoa                     004394b2 f   libucrt:xtoa.obj
 0001:000384e7       __itoa_s                   004394e7 f   libucrt:xtoa.obj
 0001:0003851a       __itow                     0043951a f   libucrt:xtoa.obj
 0001:0003854f       __itow_s                   0043954f f   libucrt:xtoa.obj
 0001:00038582       __ltoa                     00439582 f   libucrt:xtoa.obj
 0001:000385b7       __ltoa_s                   004395b7 f   libucrt:xtoa.obj
 0001:000385ea       __ltow                     004395ea f   libucrt:xtoa.obj
 0001:0003861f       __ltow_s                   0043961f f   libucrt:xtoa.obj
 0001:00038652       __ui64toa                  00439652 f   libucrt:xtoa.obj
 0001:00038674       __ui64toa_s                00439674 f   libucrt:xtoa.obj
 0001:00038694       __ui64tow                  00439694 f   libucrt:xtoa.obj
 0001:000386b6       __ui64tow_s                004396b6 f   libucrt:xtoa.obj
 0001:000386d6       __ultoa                    004396d6 f   libucrt:xtoa.obj
 0001:000386f5       __ultoa_s                  004396f5 f   libucrt:xtoa.obj
 0001:00038712       __ultow                    00439712 f   libucrt:xtoa.obj
 0001:00038731       __ultow_s                  00439731 f   libucrt:xtoa.obj
 0001:0003874e       ___ascii_wcsicmp           0043974e f   libucrt:wcsicmp.obj
 0001:0003878b       __towlower_fast_internal   0043978b f i libucrt:wcsicmp.obj
 0001:000387b6       __towlower_internal        004397b6 f i libucrt:wcsicmp.obj
 0001:000387f5       __wcsicmp                  004397f5 f   libucrt:wcsicmp.obj
 0001:0003883e       __wcsicmp_l                0043983e f   libucrt:wcsicmp.obj
 0001:000388f6       ___ascii_wcsnicmp          004398f6 f   libucrt:wcsnicmp.obj
 0001:00038945       __wcsnicmp                 00439945 f   libucrt:wcsnicmp.obj
 0001:00038991       __wcsnicmp_l               00439991 f   libucrt:wcsnicmp.obj
 0001:00038a64       __msize                    00439a64 f   libucrt:msize.obj
 0001:00038a6f       __msize_base               00439a6f f   libucrt:msize.obj
 0001:00038aa2       __realloc_base             00439aa2 f   libucrt:realloc_base.obj
 0001:00038b0b       ___clrfp_sse2              00439b0b f   libucrt:fpctrl.obj
 0001:00038b3d       ___ctrlfp_sse2             00439b3d f   libucrt:fpctrl.obj
 0001:00038b78       ___fclrf_sse2              00439b78 f   libucrt:fpctrl.obj
 0001:00038b95       ___get_fpsr_sse2           00439b95 f   libucrt:fpctrl.obj
 0001:00038bb1       ___set_fpsr_sse2           00439bb1 f   libucrt:fpctrl.obj
 0001:00038c31       ___set_statfp_sse2         00439c31 f   libucrt:fpctrl.obj
 0001:00038c4c       ___statfp_sse2             00439c4c f   libucrt:fpctrl.obj
 0001:00038c61       __clrfp                    00439c61 f   libucrt:fpctrl.obj
 0001:00038c72       __ctrlfp                   00439c72 f   libucrt:fpctrl.obj
 0001:00038c9c       __set_statfp               00439c9c f   libucrt:fpctrl.obj
 0001:00038cf5       __statfp                   00439cf5 f   libucrt:fpctrl.obj
 0001:00038d05       ___acrt_GetStringTypeW     00439d05 f   libucrt:getstringtypew.obj
 0001:00038eb9       __close                    00439eb9 f   libucrt:close.obj
 0001:00038f46       __close_nolock             00439f46 f   libucrt:close.obj
 0001:00038fe2       ??$?RU__crt_stdio_stream_data@@@__crt_internal_free_policy@@QBEXQBU__crt_stdio_stream_data@@@Z 00439fe2 f i libucrt:stream.obj
 0001:00038ff4       ??0?$__crt_unique_heap_ptr@U__crt_stdio_stream_data@@U__crt_internal_free_policy@@@@QAE@QAU__crt_stdio_stream_data@@@Z 00439ff4 f i libucrt:stream.obj
 0001:00039004       ??0__crt_stdio_stream@@QAE@XZ 0043a004 f i libucrt:stream.obj
 0001:0003900a       ??1?$__crt_unique_heap_ptr@U__crt_stdio_stream_data@@U__crt_internal_free_policy@@@@QAE@XZ 0043a00a f i libucrt:stream.obj
 0001:0003901c       ?__acrt_stdio_allocate_stream@@YA?AV__crt_stdio_stream@@XZ 0043a01c f   libucrt:stream.obj
 0001:00039085       ?__acrt_stdio_free_stream@@YAXV__crt_stdio_stream@@@Z 0043a085 f   libucrt:stream.obj
 0001:000390c0       ?deallocate@__crt_stdio_stream@@QAEXXZ 0043a0c0 f i libucrt:stream.obj
 0001:000390ca       ?detach@?$__crt_unique_heap_ptr@U__crt_stdio_stream_data@@U__crt_internal_free_policy@@@@QAEPAU__crt_stdio_stream_data@@XZ 0043a0ca f i libucrt:stream.obj
 0001:00039192       ?lock@__crt_stdio_stream@@QBEXXZ 0043a192 f i libucrt:stream.obj
 0001:0003919b       ?release@?$__crt_unique_heap_ptr@U__crt_stdio_stream_data@@U__crt_internal_free_policy@@@@QAEXXZ 0043a19b f i libucrt:stream.obj
 0001:000391ad       ?try_allocate@__crt_stdio_stream@@QAE_NXZ 0043a1ad f i libucrt:stream.obj
 0001:000391cd       ?unlock@__crt_stdio_stream@@QBEXXZ 0043a1cd f i libucrt:stream.obj
 0001:000391d6       ?__mbrtoc32_utf8@__crt_mbstring@@YAIPA_UPBDIPAU_Mbstatet@@@Z 0043a1d6 f   libucrt:mbrtoc32.obj
 0001:0003937d       _mbrtoc32                  0043a37d f   libucrt:mbrtoc32.obj
 0001:00039438       ___dcrt_lowio_ensure_console_output_initialized 0043a438 f   libucrt:initcon.obj
 0001:00039457       ___dcrt_terminate_console_output 0043a457 f   libucrt:initcon.obj
 0001:0003946e       ___dcrt_write_console      0043a46e f   libucrt:initcon.obj
 0001:000394c3       _fegetenv                  0043a4c3 f   libucrt:fegetenv.obj
 0001:000394e0       _fesetenv                  0043a4e0 f   libucrt:fesetenv.obj
 0001:0003952b       _feholdexcept              0043a52b f   libucrt:feholdexcept.obj
 0001:00039580       __CIlog10                  0043a580 f   libucrt:log10_impl.obj
 0001:000395bb       __CIlog10_default          0043a5bb f   libucrt:log10_impl.obj
 0001:000395cf       __log10_default            0043a5cf     libucrt:log10_impl.obj
 0001:00039690       _ceil                      0043a690 f   libucrt:ceil_pentium4.obj
 0001:000396d0       __ceil_pentium4            0043a6d0 f   libucrt:ceil_pentium4.obj
 0001:000397ad       ??$__acrt_fenv_shift_bits@W4__acrt_fenv_abstract_control@@@@YA?AW4__acrt_fenv_abstract_control@@W40@0I@Z 0043a7ad f i libucrt:_fenvutils.obj
 0001:000397bf       ??$__acrt_fenv_shift_bits@W4__acrt_fenv_abstract_status@@@@YA?AW4__acrt_fenv_abstract_status@@W40@0I@Z 0043a7bf f i libucrt:_fenvutils.obj
 0001:000397d1       ??$__acrt_fenv_translate_bit@W4__acrt_fenv_abstract_control@@W4__acrt_fenv_machine_sse_control@@@@YA?AW4__acrt_fenv_abstract_control@@W4__acrt_fenv_machine_sse_control@@0W40@1@Z 0043a7d1 f i libucrt:_fenvutils.obj
 0001:000397e9       ??$__acrt_fenv_translate_bit@W4__acrt_fenv_abstract_control@@W4__acrt_fenv_machine_x87_control@@@@YA?AW4__acrt_fenv_abstract_control@@W4__acrt_fenv_machine_x87_control@@0W40@1@Z 0043a7e9 f i libucrt:_fenvutils.obj
 0001:00039801       ??$__acrt_fenv_translate_bit@W4__acrt_fenv_abstract_status@@W4__acrt_fenv_machine_sse_status@@@@YA?AW4__acrt_fenv_abstract_status@@W4__acrt_fenv_machine_sse_status@@0W40@1@Z 0043a801 f i libucrt:_fenvutils.obj
 0001:00039816       ??$__acrt_fenv_translate_bit@W4__acrt_fenv_abstract_status@@W4__acrt_fenv_machine_x87_status@@@@YA?AW4__acrt_fenv_abstract_status@@W4__acrt_fenv_machine_x87_status@@0W40@1@Z 0043a816 f i libucrt:_fenvutils.obj
 0001:0003982b       ??$__acrt_fenv_translate_bit@W4__acrt_fenv_machine_sse_control@@W4__acrt_fenv_abstract_control@@@@YA?AW4__acrt_fenv_machine_sse_control@@W4__acrt_fenv_abstract_control@@0W40@1@Z 0043a82b f i libucrt:_fenvutils.obj
 0001:00039842       ??$__acrt_fenv_translate_bit@W4__acrt_fenv_machine_sse_status@@W4__acrt_fenv_abstract_status@@@@YA?AW4__acrt_fenv_machine_sse_status@@W4__acrt_fenv_abstract_status@@0W40@1@Z 0043a842 f i libucrt:_fenvutils.obj
 0001:00039857       ??$__acrt_fenv_translate_bit@W4__acrt_fenv_machine_x87_control@@W4__acrt_fenv_abstract_control@@@@YA?AW4__acrt_fenv_machine_x87_control@@W4__acrt_fenv_abstract_control@@0W40@1@Z 0043a857 f i libucrt:_fenvutils.obj
 0001:0003986e       ??$__acrt_fenv_translate_bit@W4__acrt_fenv_machine_x87_status@@W4__acrt_fenv_abstract_status@@@@YA?AW4__acrt_fenv_machine_x87_status@@W4__acrt_fenv_abstract_status@@0W40@1@Z 0043a86e f i libucrt:_fenvutils.obj
 0001:00039883       ??$__acrt_fenv_unshift_bits@W4__acrt_fenv_abstract_control@@@@YA?AW4__acrt_fenv_abstract_control@@W40@0I@Z 0043a883 f i libucrt:_fenvutils.obj
 0001:00039895       ??$__acrt_fenv_unshift_bits@W4__acrt_fenv_abstract_status@@@@YA?AW4__acrt_fenv_abstract_status@@W40@0I@Z 0043a895 f i libucrt:_fenvutils.obj
 0001:00039d3a       ??I@YA?AW4__acrt_fenv_abstract_control@@W40@0@Z 0043ad3a f i libucrt:_fenvutils.obj
 0001:00039d47       ??I@YA?AW4__acrt_fenv_abstract_status@@W40@0@Z 0043ad47 f i libucrt:_fenvutils.obj
 0001:00039d54       ??I@YA?AW4__acrt_fenv_machine_sse_control@@W40@0@Z 0043ad54 f i libucrt:_fenvutils.obj
 0001:00039d61       ??I@YA?AW4__acrt_fenv_machine_sse_status@@W40@0@Z 0043ad61 f i libucrt:_fenvutils.obj
 0001:00039d6e       ??I@YA?AW4__acrt_fenv_machine_x87_control@@W40@0@Z 0043ad6e f i libucrt:_fenvutils.obj
 0001:00039d7b       ??I@YA?AW4__acrt_fenv_machine_x87_status@@W40@0@Z 0043ad7b f i libucrt:_fenvutils.obj
 0001:00039d88       ??U@YA?AW4__acrt_fenv_abstract_control@@W40@0@Z 0043ad88 f i libucrt:_fenvutils.obj
 0001:00039d95       ??U@YA?AW4__acrt_fenv_abstract_status@@W40@0@Z 0043ad95 f i libucrt:_fenvutils.obj
 0001:00039da2       ??U@YA?AW4__acrt_fenv_machine_sse_control@@W40@0@Z 0043ada2 f i libucrt:_fenvutils.obj
 0001:00039daf       ??U@YA?AW4__acrt_fenv_machine_x87_control@@W40@0@Z 0043adaf f i libucrt:_fenvutils.obj
 0001:00039dbc       ??_5@YAAAW4__acrt_fenv_abstract_control@@AAW40@W40@@Z 0043adbc f i libucrt:_fenvutils.obj
 0001:00039dcb       ??_5@YAAAW4__acrt_fenv_abstract_status@@AAW40@W40@@Z 0043adcb f i libucrt:_fenvutils.obj
 0001:00039dda       ??_5@YAAAW4__acrt_fenv_machine_sse_control@@AAW40@W40@@Z 0043adda f i libucrt:_fenvutils.obj
 0001:00039deb       ??_5@YAAAW4__acrt_fenv_machine_sse_status@@AAW40@W40@@Z 0043adeb f i libucrt:_fenvutils.obj
 0001:00039dfa       ??_5@YAAAW4__acrt_fenv_machine_x87_control@@AAW40@W40@@Z 0043adfa f i libucrt:_fenvutils.obj
 0001:00039e0b       ??_5@YAAAW4__acrt_fenv_machine_x87_status@@AAW40@W40@@Z 0043ae0b f i libucrt:_fenvutils.obj
 0001:00039e1a       ?__acrt_fenv_shift_abstract_sse_control@@YA?AW4__acrt_fenv_abstract_control@@W41@@Z 0043ae1a f i libucrt:_fenvutils.obj
 0001:00039e37       ?__acrt_fenv_shift_abstract_sse_status@@YA?AW4__acrt_fenv_abstract_status@@W41@@Z 0043ae37 f i libucrt:_fenvutils.obj
 0001:00039e47       ?__acrt_fenv_shift_abstract_x87_control@@YA?AW4__acrt_fenv_abstract_control@@W41@@Z 0043ae47 f i libucrt:_fenvutils.obj
 0001:00039e64       ?__acrt_fenv_shift_abstract_x87_status@@YA?AW4__acrt_fenv_abstract_status@@W41@@Z 0043ae64 f i libucrt:_fenvutils.obj
 0001:00039e74       ?__acrt_fenv_unshift_abstract_sse_control@@YA?AW4__acrt_fenv_abstract_control@@W41@@Z 0043ae74 f i libucrt:_fenvutils.obj
 0001:00039e93       ?__acrt_fenv_unshift_abstract_sse_status@@YA?AW4__acrt_fenv_abstract_status@@W41@@Z 0043ae93 f i libucrt:_fenvutils.obj
 0001:00039ea3       ?__acrt_fenv_unshift_abstract_x87_control@@YA?AW4__acrt_fenv_abstract_control@@W41@@Z 0043aea3 f i libucrt:_fenvutils.obj
 0001:00039ec2       ?__acrt_fenv_unshift_abstract_x87_status@@YA?AW4__acrt_fenv_abstract_status@@W41@@Z 0043aec2 f i libucrt:_fenvutils.obj
 0001:0003a431       ___acrt_fenv_expand_round_control 0043b431 f   libucrt:_fenvutils.obj
 0001:0003a467       ___acrt_fenv_get_common_round_control 0043b467 f   libucrt:_fenvutils.obj
 0001:0003a489       ___acrt_fenv_get_control   0043b489 f   libucrt:_fenvutils.obj
 0001:0003a509       ___acrt_fenv_get_fp_status_word_from_exception_mask 0043b509 f   libucrt:_fenvutils.obj
 0001:0003a523       ___acrt_fenv_get_status    0043b523 f   libucrt:_fenvutils.obj
 0001:0003a5db       ___acrt_fenv_set_control   0043b5db f   libucrt:_fenvutils.obj
 0001:0003a643       ___acrt_fenv_set_status    0043b643 f   libucrt:_fenvutils.obj
 0001:0003a8dd       __mbstowcs_l               0043b8dd f   libucrt:mbstowcs.obj
 0001:0003a8e8       __mbstowcs_s_l             0043b8e8 f   libucrt:mbstowcs.obj
 0001:0003a9c8       _mbstowcs                  0043b9c8 f   libucrt:mbstowcs.obj
 0001:0003a9f2       _mbstowcs_s                0043b9f2 f   libucrt:mbstowcs.obj
 0001:0003aa12       ___strncnt                 0043ba12 f   libucrt:strncnt.obj
 0001:0003aa2e       ___acrt_CompareStringW     0043ba2e f   libucrt:comparestringw.obj
 0001:0003aa93       __strnicmp                 0043ba93 f   libucrt:strnicmp.obj
 0001:0003ab00       __strnicmp_l               0043bb00 f   libucrt:strnicmp.obj
 0001:0003ae54       ___acrt_CompareStringA     0043be54 f   libucrt:comparestringa.obj
 0001:0003ae9a       __towlower_l               0043be9a f   libucrt:towlower.obj
 0001:0003af3c       _towlower                  0043bf3c f   libucrt:towlower.obj
 0001:0003af4f       ___acrt_initialize_sse2    0043bf4f f   libucrt:mathfcns.obj
 0001:0003af5f       __set_SSE2_enable          0043bf5f f   libucrt:mathfcns.obj
 0001:0003af90       __CIlog10_pentium4         0043bf90 f   libucrt:log10_pentium4.obj
 0001:0003afa8       __log10_pentium4           0043bfa8     libucrt:log10_pentium4.obj
 0001:0003b240       __fFEXP                    0043c240 f   libucrt:87tran.obj
 0001:0003b297       __rtinfpopse               0043c297     libucrt:87tran.obj
 0001:0003b299       __rtinfnpopse              0043c299     libucrt:87tran.obj
 0001:0003b2a9       __fFLN                     0043c2a9     libucrt:87tran.obj
 0001:0003b35e       __rtinfpop                 0043c35e     libucrt:87tran.obj
 0001:0003b360       __rtinfnpop                0043c360     libucrt:87tran.obj
 0001:0003b370       __rtforexpinf              0043c370 f   libucrt:87tran.obj
 0001:0003b37d       __ffexpm1                  0043c37d     libucrt:87tran.obj
 0001:0003b430       __trandisp1                0043c430 f   libucrt:87disp.obj
 0001:0003b4a5       __trandisp2                0043c4a5 f   libucrt:87disp.obj
 0001:0003b53f       __rttospopde               0043c53f     libucrt:87disp.obj
 0001:0003b544       __rttospop                 0043c544     libucrt:87disp.obj
 0001:0003b550       __rtnospop                 0043c550 f   libucrt:87disp.obj
 0001:0003b560       __rttosnpop                0043c560 f   libucrt:87disp.obj
 0001:0003b561       __rtnospopde               0043c561     libucrt:87disp.obj
 0001:0003b568       __rtzeropop                0043c568     libucrt:87disp.obj
 0001:0003b56a       __rtzeronpop               0043c56a     libucrt:87disp.obj
 0001:0003b570       __rtzerospop               0043c570 f   libucrt:87disp.obj
 0001:0003b57d       __rtonepop                 0043c57d     libucrt:87disp.obj
 0001:0003b580       __rtonenpop                0043c580 f   libucrt:87disp.obj
 0001:0003b590       __tosnan1                  0043c590 f   libucrt:87disp.obj
 0001:0003b5c0       __nosnan2                  0043c5c0 f   libucrt:87disp.obj
 0001:0003b5d0       __tosnan2                  0043c5d0 f   libucrt:87disp.obj
 0001:0003b600       __nan2                     0043c600 f   libucrt:87disp.obj
 0001:0003b640       __rtindfpop                0043c640 f   libucrt:87disp.obj
 0001:0003b642       __rtindfnpop               0043c642     libucrt:87disp.obj
 0001:0003b653       __rttosnpopde              0043c653     libucrt:87disp.obj
 0001:0003b660       __rtatan2inf               0043c660 f   libucrt:87disp.obj
 0001:0003b67d       __rtchsifneg               0043c67d     libucrt:87disp.obj
 0001:0003b684       ___setfflag                0043c684 f   libucrt:fp_flags.obj
 0001:0003b6a0       __twoToTOS                 0043c6a0 f   libucrt:common.obj
 0001:0003b6b5       __load_CW                  0043c6b5 f   libucrt:common.obj
 0001:0003b6cc       __convertTOStoQNaN         0043c6cc f   libucrt:common.obj
 0001:0003b6e5       __fload_withFB             0043c6e5 f   libucrt:common.obj
 0001:0003b728       __checkTOS_withFB          0043c728 f   libucrt:common.obj
 0001:0003b73e       __fast_exit                0043c73e f   libucrt:common.obj
 0001:0003b74b       __math_exit                0043c74b f   libucrt:common.obj
 0001:0003b775       __check_overflow_exit      0043c775 f   libucrt:common.obj
 0001:0003b789       __check_range_exit         0043c789 f   libucrt:common.obj
 0001:0003b830       __startTwoArgErrorHandling 0043c830 f   libucrt:genexcep.obj
 0001:0003b847       __startOneArgErrorHandling 0043c847 f   libucrt:genexcep.obj
 0001:0003b883       ___libm_error_support      0043c883 f   libucrt:libm_error.obj
 0001:0003ba77       ___libm_setusermatherr     0043ca77 f   libucrt:libm_error.obj
 0001:0003ba9e       __ceil_default             0043ca9e f   libucrt:ceil.obj
 0001:0003bb60       ___ascii_strnicmp          0043cb60 f   libucrt:_strnicm.obj
 0001:0003bbc1       ___acrt_LCMapStringW       0043cbc1 f   libucrt:lcmapstringw.obj
 0001:0003bbff       __d_inttype                0043cbff f   libucrt:powhlp.obj
 0001:0003bc67       __powhlp                   0043cc67 f   libucrt:powhlp.obj
 0001:0003bd92       __87except                 0043cd92 f   libucrt:87except.obj
 0001:0003be9c       __frnd                     0043ce9c f   libucrt:frnd.obj
 0001:0003beb0       __errcode                  0043ceb0 f   libucrt:fpexcept.obj
 0001:0003bee4       __except1                  0043cee4 f   libucrt:fpexcept.obj
 0001:0003bfb2       __except2                  0043cfb2 f   libucrt:fpexcept.obj
 0001:0003c0ba       __handle_exc               0043d0ba f   libucrt:fpexcept.obj
 0001:0003c2a5       __handle_qnan2             0043d2a5 f   libucrt:fpexcept.obj
 0001:0003c2b2       __raise_exc                0043d2b2 f   libucrt:fpexcept.obj
 0001:0003c2d5       __raise_exc_ex             0043d2d5 f   libucrt:fpexcept.obj
 0001:0003c5cb       __raise_excf               0043d5cb f   libucrt:fpexcept.obj
 0001:0003c5ee       __set_errno_from_matherr   0043d5ee f   libucrt:fpexcept.obj
 0001:0003c61d       __umatherr                 0043d61d f   libucrt:fpexcept.obj
 0001:0003c6bd       __add_exp                  0043d6bd f   libucrt:util.obj
 0001:0003c6ec       __decomp                   0043d6ec f   libucrt:util.obj
 0001:0003c7be       __get_exp                  0043d7be f   libucrt:util.obj
 0001:0003c7d6       __set_bexp                 0043d7d6 f   libucrt:util.obj
 0001:0003c7fd       __set_exp                  0043d7fd f   libucrt:util.obj
 0001:0003c82a       __sptype                   0043d82a f   libucrt:util.obj
 0001:0003c888       __chgsign                  0043d888 f   libucrt:ieeemisc.obj
 0001:0003c8b0       __chgsignf                 0043d8b0 f   libucrt:ieeemisc.obj
 0001:0003c8d1       __copysign                 0043d8d1 f   libucrt:ieeemisc.obj
 0001:0003c8f4       __copysignf                0043d8f4 f   libucrt:ieeemisc.obj
 0001:0003c910       __finite                   0043d910 f   libucrt:ieeemisc.obj
 0001:0003c92a       __fpclass                  0043d92a f   libucrt:ieeemisc.obj
 0001:0003c9ce       __isnan                    0043d9ce f   libucrt:ieeemisc.obj
 0001:0003ca04       __logb                     0043da04 f   libucrt:ieeemisc.obj
 0001:0003cad3       __nextafter                0043dad3 f   libucrt:ieeemisc.obj
 0001:0003caf2       __scalb                    0043daf2 f   libucrt:ieeemisc.obj
 0001:0003cb0c       _ldexp                     0043db0c f   libucrt:ldexp.obj
 0001:0003ccfe       _nextafter                 0043dcfe f   libucrt:nextafter.obj
 0001:0003cd1d       _nexttoward                0043dd1d f   libucrt:nexttoward.obj
 0001:0003ceee       __d_int                    0043deee f   libucrt:_test.obj
 0001:0003cff4       __dtest                    0043dff4 f   libucrt:_test.obj
 0001:0003d058       __fd_int                   0043e058 f   libucrt:_test.obj
 0001:0003d125       __fdtest                   0043e125 f   libucrt:_test.obj
 0001:0003d173       __fperrraise               0043e173 f   libucrt:_test.obj
 0001:0003d194       __ld_int                   0043e194 f   libucrt:_test.obj
 0001:0003d19f       __ldtest                   0043e19f f   libucrt:_test.obj
 0001:0003d1aa       ??_4@YAAAW4__acrt_fenv_abstract_status@@AAW40@W40@@Z 0043e1aa f i libucrt:fegetexceptflag.obj
 0001:0003d1b9       _fegetexceptflag           0043e1b9 f   libucrt:fegetexceptflag.obj
 0001:0003d1ea       ??S@YA?AW4__acrt_fenv_abstract_status@@W40@@Z 0043e1ea f i libucrt:fesetexceptflag.obj
 0001:0003d1f6       _fesetexceptflag           0043e1f6 f   libucrt:fesetexceptflag.obj
 0001:0003d24f       _fetestexcept              0043e24f f   libucrt:fetestexcept.obj
 0001:0003d26f       _UnhandledExceptionFilter@4 0043e26f f   kernel32:KERNEL32.dll
 0001:0003d275       _SetUnhandledExceptionFilter@4 0043e275 f   kernel32:KERNEL32.dll
 0001:0003d27b       _GetCurrentProcess@0       0043e27b f   kernel32:KERNEL32.dll
 0001:0003d281       _TerminateProcess@8        0043e281 f   kernel32:KERNEL32.dll
 0001:0003d287       _IsProcessorFeaturePresent@4 0043e287 f   kernel32:KERNEL32.dll
 0001:0003d28d       _QueryPerformanceCounter@4 0043e28d f   kernel32:KERNEL32.dll
 0001:0003d293       _GetCurrentProcessId@0     0043e293 f   kernel32:KERNEL32.dll
 0001:0003d299       _GetCurrentThreadId@0      0043e299 f   kernel32:KERNEL32.dll
 0001:0003d29f       _GetSystemTimeAsFileTime@4 0043e29f f   kernel32:KERNEL32.dll
 0001:0003d2a5       _InitializeSListHead@4     0043e2a5 f   kernel32:KERNEL32.dll
 0001:0003d2ab       _IsDebuggerPresent@0       0043e2ab f   kernel32:KERNEL32.dll
 0001:0003d2b1       _GetStartupInfoW@4         0043e2b1 f   kernel32:KERNEL32.dll
 0001:0003d2b7       _GetModuleHandleW@4        0043e2b7 f   kernel32:KERNEL32.dll
 0001:0003d2bd       _InterlockedPushEntrySList@8 0043e2bd f   kernel32:KERNEL32.dll
 0001:0003d2c3       _InterlockedFlushSList@4   0043e2c3 f   kernel32:KERNEL32.dll
 0001:0003d2c9       _RtlUnwind@16              0043e2c9 f   kernel32:KERNEL32.dll
 0001:0003d2cf       _GetLastError@0            0043e2cf f   kernel32:KERNEL32.dll
 0001:0003d2d5       _SetLastError@4            0043e2d5 f   kernel32:KERNEL32.dll
 0001:0003d2db       _EnterCriticalSection@4    0043e2db f   kernel32:KERNEL32.dll
 0001:0003d2e1       _LeaveCriticalSection@4    0043e2e1 f   kernel32:KERNEL32.dll
 0001:0003d2e7       _DeleteCriticalSection@4   0043e2e7 f   kernel32:KERNEL32.dll
 0001:0003d2ed       _InitializeCriticalSectionAndSpinCount@8 0043e2ed f   kernel32:KERNEL32.dll
 0001:0003d2f3       _TlsAlloc@0                0043e2f3 f   kernel32:KERNEL32.dll
 0001:0003d2f9       _TlsGetValue@4             0043e2f9 f   kernel32:KERNEL32.dll
 0001:0003d2ff       _TlsSetValue@8             0043e2ff f   kernel32:KERNEL32.dll
 0001:0003d305       _TlsFree@4                 0043e305 f   kernel32:KERNEL32.dll
 0001:0003d30b       _FreeLibrary@4             0043e30b f   kernel32:KERNEL32.dll
 0001:0003d311       _GetProcAddress@8          0043e311 f   kernel32:KERNEL32.dll
 0001:0003d317       _LoadLibraryExW@12         0043e317 f   kernel32:KERNEL32.dll
 0001:0003d31d       _EncodePointer@4           0043e31d f   kernel32:KERNEL32.dll
 0001:0003d323       _RaiseException@16         0043e323 f   kernel32:KERNEL32.dll
 0001:0003d329       _ExitProcess@4             0043e329 f   kernel32:KERNEL32.dll
 0001:0003d32f       _GetModuleHandleExW@12     0043e32f f   kernel32:KERNEL32.dll
 0001:0003d335       _Beep@8                    0043e335 f   kernel32:KERNEL32.dll
 0001:0003d33b       _Sleep@4                   0043e33b f   kernel32:KERNEL32.dll
 0001:0003d341       _GetStdHandle@4            0043e341 f   kernel32:KERNEL32.dll
 0001:0003d347       _WriteFile@20              0043e347 f   kernel32:KERNEL32.dll
 0001:0003d34d       _GetModuleFileNameW@12     0043e34d f   kernel32:KERNEL32.dll
 0001:0003d353       _GetCommandLineA@0         0043e353 f   kernel32:KERNEL32.dll
 0001:0003d359       _GetCommandLineW@0         0043e359 f   kernel32:KERNEL32.dll
 0001:0003d35f       _HeapAlloc@12              0043e35f f   kernel32:KERNEL32.dll
 0001:0003d365       _HeapFree@12               0043e365 f   kernel32:KERNEL32.dll
 0001:0003d36b       _GetDateFormatW@24         0043e36b f   kernel32:KERNEL32.dll
 0001:0003d371       _GetTimeFormatW@24         0043e371 f   kernel32:KERNEL32.dll
 0001:0003d377       _CompareStringW@24         0043e377 f   kernel32:KERNEL32.dll
 0001:0003d37d       _LCMapStringW@24           0043e37d f   kernel32:KERNEL32.dll
 0001:0003d383       _GetLocaleInfoW@16         0043e383 f   kernel32:KERNEL32.dll
 0001:0003d389       _IsValidLocale@8           0043e389 f   kernel32:KERNEL32.dll
 0001:0003d38f       _GetUserDefaultLCID@0      0043e38f f   kernel32:KERNEL32.dll
 0001:0003d395       _EnumSystemLocalesW@8      0043e395 f   kernel32:KERNEL32.dll
 0001:0003d39b       _GetFileType@4             0043e39b f   kernel32:KERNEL32.dll
 0001:0003d3a1       _FlushFileBuffers@4        0043e3a1 f   kernel32:KERNEL32.dll
 0001:0003d3a7       _GetConsoleOutputCP@0      0043e3a7 f   kernel32:KERNEL32.dll
 0001:0003d3ad       _GetConsoleMode@8          0043e3ad f   kernel32:KERNEL32.dll
 0001:0003d3b3       _GetCurrentThread@0        0043e3b3 f   kernel32:KERNEL32.dll
 0001:0003d3b9       _OutputDebugStringW@4      0043e3b9 f   kernel32:KERNEL32.dll
 0001:0003d3bf       _FindClose@4               0043e3bf f   kernel32:KERNEL32.dll
 0001:0003d3c5       _FindFirstFileExW@24       0043e3c5 f   kernel32:KERNEL32.dll
 0001:0003d3cb       _FindNextFileW@8           0043e3cb f   kernel32:KERNEL32.dll
 0001:0003d3d1       _IsValidCodePage@4         0043e3d1 f   kernel32:KERNEL32.dll
 0001:0003d3d7       _GetACP@0                  0043e3d7 f   kernel32:KERNEL32.dll
 0001:0003d3dd       _GetOEMCP@0                0043e3dd f   kernel32:KERNEL32.dll
 0001:0003d3e3       _GetCPInfo@8               0043e3e3 f   kernel32:KERNEL32.dll
 0001:0003d3e9       _MultiByteToWideChar@24    0043e3e9 f   kernel32:KERNEL32.dll
 0001:0003d3ef       _WideCharToMultiByte@32    0043e3ef f   kernel32:KERNEL32.dll
 0001:0003d3f5       _GetEnvironmentStringsW@0  0043e3f5 f   kernel32:KERNEL32.dll
 0001:0003d3fb       _FreeEnvironmentStringsW@4 0043e3fb f   kernel32:KERNEL32.dll
 0001:0003d401       _SetEnvironmentVariableW@8 0043e401 f   kernel32:KERNEL32.dll
 0001:0003d407       _SetStdHandle@8            0043e407 f   kernel32:KERNEL32.dll
 0001:0003d40d       _GetStringTypeW@16         0043e40d f   kernel32:KERNEL32.dll
 0001:0003d413       _GetProcessHeap@0          0043e413 f   kernel32:KERNEL32.dll
 0001:0003d419       _SetConsoleCtrlHandler@8   0043e419 f   kernel32:KERNEL32.dll
 0001:0003d41f       _SetFilePointerEx@20       0043e41f f   kernel32:KERNEL32.dll
 0001:0003d425       _ReadFile@20               0043e425 f   kernel32:KERNEL32.dll
 0001:0003d42b       _ReadConsoleW@20           0043e42b f   kernel32:KERNEL32.dll
 0001:0003d431       _GetFileSizeEx@8           0043e431 f   kernel32:KERNEL32.dll
 0001:0003d437       _HeapSize@12               0043e437 f   kernel32:KERNEL32.dll
 0001:0003d43d       _HeapReAlloc@16            0043e43d f   kernel32:KERNEL32.dll
 0001:0003d443       _CloseHandle@4             0043e443 f   kernel32:KERNEL32.dll
 0001:0003d449       _CreateFileW@28            0043e449 f   kernel32:KERNEL32.dll
 0001:0003d44f       _WriteConsoleW@20          0043e44f f   kernel32:KERNEL32.dll
 0001:0003d455       _DecodePointer@4           0043e455 f   kernel32:KERNEL32.dll
 0001:0003d460       __FindPESection            0043e460 f   LIBCMT:pesect.obj
 0001:0003d4b0       __IsNonwritableInCurrentImage 0043e4b0 f   LIBCMT:pesect.obj
 0001:0003d570       __ValidateImageBase        0043e570 f   LIBCMT:pesect.obj
 0001:0003d5a3       ??1type_info@@UAE@XZ       0043e5a3 f   LIBCMT:std_type_info_static.obj
 0001:0003d5aa       ??_Gtype_info@@UAEPAXI@Z   0043e5aa f i LIBCMT:std_type_info_static.obj
 0001:0003d5aa       ??_Etype_info@@UAEPAXI@Z   0043e5aa f i LIBCMT:std_type_info_static.obj
 0001:0003d5cd       __EH_epilog3               0043e5cd f   LIBCMT:ehprolg3.obj
 0001:0003d5e1       __EH_epilog3_GS            0043e5e1 f   LIBCMT:ehprolg3.obj
 0001:0003d5f0       __EH_epilog3_catch_GS      0043e5f0 f   LIBCMT:ehprolg3.obj
 0001:0003d5ff       __EH_prolog3               0043e5ff f   LIBCMT:ehprolg3.obj
 0001:0003d632       __EH_prolog3_GS            0043e632 f   LIBCMT:ehprolg3.obj
 0001:0003d668       __EH_prolog3_catch         0043e668 f   LIBCMT:ehprolg3.obj
 0001:0003d69e       __EH_prolog3_catch_GS      0043e69e f   LIBCMT:ehprolg3.obj
 0001:0003d6e0       __aulldvrm                 0043e6e0 f   LIBCMT:ulldvrm.obj
 0001:0003d775       ??3@YAXPAXI@Z              0043e775 f   LIBCMT:delete_scalar_size.obj
 0001:0003d790       __allmul                   0043e790 f   LIBCMT:llmul.obj
 0001:0003d7d0       __chkstk                   0043e7d0 f   LIBCMT:chkstk.obj
 0001:0003d7d0       __alloca_probe             0043e7d0 f   LIBCMT:chkstk.obj
 0001:0003d800       __alldvrm                  0043e800 f   LIBCMT:lldvrm.obj
 0001:0003d8e0       __allshl                   0043e8e0 f   LIBCMT:llshl.obj
 0001:0003d900       __aullshr                  0043e900 f   LIBCMT:ullshr.obj
 0001:0003d920       __alloca_probe_16          0043e920 f   LIBCMT:alloca16.obj
 0001:0003d936       __alloca_probe_8           0043e936     LIBCMT:alloca16.obj
 0001:0003d950       __ftol2_sse_excpt          0043e950 f   LIBCMT:ftol2.obj
 0001:0003d960       __ftol2_sse                0043e960 f   LIBCMT:ftol2.obj
 0001:0003d970       __ftoi2                    0043e970 f   LIBCMT:ftol2.obj
 0001:0003d9f0       __ftoui2                   0043e9f0 f   LIBCMT:ftol2.obj
 0001:0003daa0       __ftol2                    0043eaa0 f   LIBCMT:ftol2.obj
 0001:0003db50       __ftoul2                   0043eb50 f   LIBCMT:ftol2.obj
 0001:0003dc09       ??3@YAXPAX@Z               0043ec09 f   LIBCMT:delete_scalar.obj
 0001:0003dd03       _memcmp                    0043ed03 f   libvcruntime:memcmp.obj
 0001:0003fa60       _strrchr                   00440a60 f   libvcruntime:strrchr.obj
 0001:0003fba0       _strchr                    00440ba0 f   libvcruntime:strchr.obj
 0001:0003fc0e       ___from_strstr_to_strchr   00440c0e     libvcruntime:strchr.obj
 0001:0003fccb       _wcschr                    00440ccb f   libvcruntime:wcschr.obj
 0001:0003fd92       __filter_x86_sse2_floating_point_exception_default 00440d92 f   LIBCMT:x86_exception_filter.obj
 0001:0003fd92       __filter_x86_sse2_floating_point_exception 00440d92 f   LIBCMT:x86_exception_filter.obj
 0002:00000000       __imp__GetModuleFileNameW@12 00441000     kernel32:KERNEL32.dll
 0002:00000004       __imp__DecodePointer@4     00441004     kernel32:KERNEL32.dll
 0002:00000008       __imp__WriteConsoleW@20    00441008     kernel32:KERNEL32.dll
 0002:0000000c       __imp__CreateFileW@28      0044100c     kernel32:KERNEL32.dll
 0002:00000010       __imp__CloseHandle@4       00441010     kernel32:KERNEL32.dll
 0002:00000014       __imp__HeapReAlloc@16      00441014     kernel32:KERNEL32.dll
 0002:00000018       __imp__HeapSize@12         00441018     kernel32:KERNEL32.dll
 0002:0000001c       __imp__GetFileSizeEx@8     0044101c     kernel32:KERNEL32.dll
 0002:00000020       __imp__UnhandledExceptionFilter@4 00441020     kernel32:KERNEL32.dll
 0002:00000024       __imp__SetUnhandledExceptionFilter@4 00441024     kernel32:KERNEL32.dll
 0002:00000028       __imp__GetCurrentProcess@0 00441028     kernel32:KERNEL32.dll
 0002:0000002c       __imp__TerminateProcess@8  0044102c     kernel32:KERNEL32.dll
 0002:00000030       __imp__IsProcessorFeaturePresent@4 00441030     kernel32:KERNEL32.dll
 0002:00000034       __imp__QueryPerformanceCounter@4 00441034     kernel32:KERNEL32.dll
 0002:00000038       __imp__GetCurrentProcessId@0 00441038     kernel32:KERNEL32.dll
 0002:0000003c       __imp__GetCurrentThreadId@0 0044103c     kernel32:KERNEL32.dll
 0002:00000040       __imp__GetSystemTimeAsFileTime@4 00441040     kernel32:KERNEL32.dll
 0002:00000044       __imp__InitializeSListHead@4 00441044     kernel32:KERNEL32.dll
 0002:00000048       __imp__IsDebuggerPresent@0 00441048     kernel32:KERNEL32.dll
 0002:0000004c       __imp__GetStartupInfoW@4   0044104c     kernel32:KERNEL32.dll
 0002:00000050       __imp__GetModuleHandleW@4  00441050     kernel32:KERNEL32.dll
 0002:00000054       __imp__InterlockedPushEntrySList@8 00441054     kernel32:KERNEL32.dll
 0002:00000058       __imp__InterlockedFlushSList@4 00441058     kernel32:KERNEL32.dll
 0002:0000005c       __imp__RtlUnwind@16        0044105c     kernel32:KERNEL32.dll
 0002:00000060       __imp__GetLastError@0      00441060     kernel32:KERNEL32.dll
 0002:00000064       __imp__SetLastError@4      00441064     kernel32:KERNEL32.dll
 0002:00000068       __imp__EnterCriticalSection@4 00441068     kernel32:KERNEL32.dll
 0002:0000006c       __imp__LeaveCriticalSection@4 0044106c     kernel32:KERNEL32.dll
 0002:00000070       __imp__DeleteCriticalSection@4 00441070     kernel32:KERNEL32.dll
 0002:00000074       __imp__InitializeCriticalSectionAndSpinCount@8 00441074     kernel32:KERNEL32.dll
 0002:00000078       __imp__TlsAlloc@0          00441078     kernel32:KERNEL32.dll
 0002:0000007c       __imp__TlsGetValue@4       0044107c     kernel32:KERNEL32.dll
 0002:00000080       __imp__TlsSetValue@8       00441080     kernel32:KERNEL32.dll
 0002:00000084       __imp__TlsFree@4           00441084     kernel32:KERNEL32.dll
 0002:00000088       __imp__FreeLibrary@4       00441088     kernel32:KERNEL32.dll
 0002:0000008c       __imp__GetProcAddress@8    0044108c     kernel32:KERNEL32.dll
 0002:00000090       __imp__LoadLibraryExW@12   00441090     kernel32:KERNEL32.dll
 0002:00000094       __imp__EncodePointer@4     00441094     kernel32:KERNEL32.dll
 0002:00000098       __imp__RaiseException@16   00441098     kernel32:KERNEL32.dll
 0002:0000009c       __imp__ExitProcess@4       0044109c     kernel32:KERNEL32.dll
 0002:000000a0       __imp__GetModuleHandleExW@12 004410a0     kernel32:KERNEL32.dll
 0002:000000a4       __imp__Beep@8              004410a4     kernel32:KERNEL32.dll
 0002:000000a8       __imp__Sleep@4             004410a8     kernel32:KERNEL32.dll
 0002:000000ac       __imp__GetStdHandle@4      004410ac     kernel32:KERNEL32.dll
 0002:000000b0       __imp__WriteFile@20        004410b0     kernel32:KERNEL32.dll
 0002:000000b4       __imp__ReadFile@20         004410b4     kernel32:KERNEL32.dll
 0002:000000b8       __imp__GetCommandLineA@0   004410b8     kernel32:KERNEL32.dll
 0002:000000bc       __imp__GetCommandLineW@0   004410bc     kernel32:KERNEL32.dll
 0002:000000c0       __imp__HeapAlloc@12        004410c0     kernel32:KERNEL32.dll
 0002:000000c4       __imp__HeapFree@12         004410c4     kernel32:KERNEL32.dll
 0002:000000c8       __imp__GetDateFormatW@24   004410c8     kernel32:KERNEL32.dll
 0002:000000cc       __imp__GetTimeFormatW@24   004410cc     kernel32:KERNEL32.dll
 0002:000000d0       __imp__CompareStringW@24   004410d0     kernel32:KERNEL32.dll
 0002:000000d4       __imp__LCMapStringW@24     004410d4     kernel32:KERNEL32.dll
 0002:000000d8       __imp__GetLocaleInfoW@16   004410d8     kernel32:KERNEL32.dll
 0002:000000dc       __imp__IsValidLocale@8     004410dc     kernel32:KERNEL32.dll
 0002:000000e0       __imp__GetUserDefaultLCID@0 004410e0     kernel32:KERNEL32.dll
 0002:000000e4       __imp__EnumSystemLocalesW@8 004410e4     kernel32:KERNEL32.dll
 0002:000000e8       __imp__GetFileType@4       004410e8     kernel32:KERNEL32.dll
 0002:000000ec       __imp__FlushFileBuffers@4  004410ec     kernel32:KERNEL32.dll
 0002:000000f0       __imp__GetConsoleOutputCP@0 004410f0     kernel32:KERNEL32.dll
 0002:000000f4       __imp__GetConsoleMode@8    004410f4     kernel32:KERNEL32.dll
 0002:000000f8       __imp__GetCurrentThread@0  004410f8     kernel32:KERNEL32.dll
 0002:000000fc       __imp__OutputDebugStringW@4 004410fc     kernel32:KERNEL32.dll
 0002:00000100       __imp__FindClose@4         00441100     kernel32:KERNEL32.dll
 0002:00000104       __imp__FindFirstFileExW@24 00441104     kernel32:KERNEL32.dll
 0002:00000108       __imp__FindNextFileW@8     00441108     kernel32:KERNEL32.dll
 0002:0000010c       __imp__IsValidCodePage@4   0044110c     kernel32:KERNEL32.dll
 0002:00000110       __imp__GetACP@0            00441110     kernel32:KERNEL32.dll
 0002:00000114       __imp__GetOEMCP@0          00441114     kernel32:KERNEL32.dll
 0002:00000118       __imp__GetCPInfo@8         00441118     kernel32:KERNEL32.dll
 0002:0000011c       __imp__MultiByteToWideChar@24 0044111c     kernel32:KERNEL32.dll
 0002:00000120       __imp__WideCharToMultiByte@32 00441120     kernel32:KERNEL32.dll
 0002:00000124       __imp__GetEnvironmentStringsW@0 00441124     kernel32:KERNEL32.dll
 0002:00000128       __imp__FreeEnvironmentStringsW@4 00441128     kernel32:KERNEL32.dll
 0002:0000012c       __imp__SetEnvironmentVariableW@8 0044112c     kernel32:KERNEL32.dll
 0002:00000130       __imp__SetStdHandle@8      00441130     kernel32:KERNEL32.dll
 0002:00000134       __imp__GetStringTypeW@16   00441134     kernel32:KERNEL32.dll
 0002:00000138       __imp__GetProcessHeap@0    00441138     kernel32:KERNEL32.dll
 0002:0000013c       __imp__SetConsoleCtrlHandler@8 0044113c     kernel32:KERNEL32.dll
 0002:00000140       __imp__SetFilePointerEx@20 00441140     kernel32:KERNEL32.dll
 0002:00000144       __imp__ReadConsoleW@20     00441144     kernel32:KERNEL32.dll
 0002:00000148       \177KERNEL32_NULL_THUNK_DATA 00441148     kernel32:KERNEL32.dll
 0002:0000014c       __imp__viReadSTB@8         0044114c     visa32:VISA32.dll
 0002:00000150       __imp__viWrite@16          00441150     visa32:VISA32.dll
 0002:00000154       __imp__viRead@16           00441154     visa32:VISA32.dll
 0002:00000158       __imp__viSetAttribute@12   00441158     visa32:VISA32.dll
 0002:0000015c       __imp__viClose@4           0044115c     visa32:VISA32.dll
 0002:00000160       __imp__viOpen@20           00441160     visa32:VISA32.dll
 0002:00000164       __imp__viOpenDefaultRM@4   00441164     visa32:VISA32.dll
 0002:00000168       \177VISA32_NULL_THUNK_DATA 00441168     visa32:VISA32.dll
 0002:0000016c       ___guard_check_icall_fptr  0044116c     LIBCMT:guard_support.obj
 0002:00000170       ___guard_xfg_check_icall_fptr 00441170     LIBCMT:guard_support.obj
 0002:00000174       ___xc_a                    00441174     LIBCMT:initializers.obj
 0002:0000017c       ___xc_z                    0044117c     LIBCMT:initializers.obj
 0002:00000180       ___xi_a                    00441180     LIBCMT:initializers.obj
 0002:0000018c       ___acrt_stdio_initializer  0044118c     libucrt:stdio_initializer.obj
 0002:00000190       ___acrt_multibyte_initializer 00441190     libucrt:multibyte_initializer.obj
 0002:00000194       ___acrt_fmode_initializer  00441194     libucrt:fmode_initializer.obj
 0002:00000198       ___acrt_tran_sse2_initializer 00441198     libucrt:sse2_initializer.obj
 0002:0000019c       ___xi_z                    0044119c     LIBCMT:initializers.obj
 0002:000001a0       ___xp_a                    004411a0     LIBCMT:initializers.obj
 0002:000001a4       ___acrt_locale_terminator  004411a4     libucrt:locale_initializer.obj
 0002:000001a8       ___dcrt_console_output_terminator 004411a8     libucrt:console_output_initializer.obj
 0002:000001ac       ___acrt_stdio_terminator   004411ac     libucrt:stdio_initializer.obj
 0002:000001b0       ___xp_z                    004411b0     LIBCMT:initializers.obj
 0002:000001b4       ___xt_a                    004411b4     LIBCMT:initializers.obj
 0002:000001b8       ___xt_z                    004411b8     LIBCMT:initializers.obj
 0002:000001c0       ??_C@_09DFAAOKPF@?$CFs?$DL?3?$CKOPC?$DP@ 004411c0     KepcoOPC.obj
 0002:000001cc       ??_C@_0BN@LFFIJNBJ@Error?5writing?5to?5the?5device?6@ 004411cc     KepcoOPC.obj
 0002:000001ec       ??_C@_0M@DCODNMLC@waiting?4?4?4?6@ 004411ec     KepcoOPC.obj
 0002:000001f8       ??_C@_0CK@JNLGMEMN@Error?5reading?5a?5response?5from?5t@ 004411f8     KepcoOPC.obj
 0002:00000224       ??_C@_0DI@ODKNJCDN@Could?5not?5open?5a?5session?5to?5the@ 00441224     KepcoOPC.obj
 0002:0000025c       ??_C@_0N@OBPGHKGJ@ASRL4?3?3INSTR@ 0044125c     KepcoOPC.obj
 0002:0000026c       ??_C@_0CG@IJOENEMN@Cannot?5open?5a?5session?5to?5the?5de@ 0044126c     KepcoOPC.obj
 0002:00000294       ??_C@_06CCGJIGFH@?$CKIDN?$DP?6@ 00441294     KepcoOPC.obj
 0002:0000029c       ??_C@_04FDCLNJEP@?$CF?$CKs?6@ 0044129c     KepcoOPC.obj
 0002:000002a4       ??_C@_0CD@NDFAONFD@sour?3volt?55?$DL?3sour?3curr?51?$DL?3outp?5@ 004412a4     KepcoOPC.obj
 0002:000002c8       ??_C@_0BP@KJAJIHMM@ready?5?9?5hit?5a?5key?5to?5continue?6@ 004412c8     KepcoOPC.obj
 0002:000002e8       ??_C@_06JAPONJND@?$CKsav?51@ 004412e8     KepcoOPC.obj
 0002:000002f0       ??_C@_0L@CEOFCABG@resetting?6@ 004412f0     KepcoOPC.obj
 0002:000002fc       ??_C@_05LLIFOMNH@?$CKrst?6@ 004412fc     KepcoOPC.obj
 0002:00000304       ??_C@_0BH@CHCHMKJL@recalling?5settings?5?$EA1?6@ 00441304     KepcoOPC.obj
 0002:0000031c       ??_C@_0CI@LFIHPDII@Closing?5Sessions?6Hit?5enter?5to?5c@ 0044131c     KepcoOPC.obj
 0002:0000034c       __pDestructExceptionObject 0044134c     libvcruntime:ehhelpers.obj
 0002:000006d0       ??_C@_08EHJDFFNH@__based?$CI@ 004416d0     libvcruntime:undname.obj
 0002:000006dc       ??_C@_07KOLFKCDI@__cdecl@  004416dc     libvcruntime:undname.obj
 0002:000006e4       ??_C@_08GHMPAG@__pascal@   004416e4     libvcruntime:undname.obj
 0002:000006f0       ??_C@_09IFJBGAPI@__stdcall@ 004416f0     libvcruntime:undname.obj
 0002:000006fc       ??_C@_0L@NPHFGOKO@__thiscall@ 004416fc     libvcruntime:undname.obj
 0002:00000708       ??_C@_0L@JMKHOMEK@__fastcall@ 00441708     libvcruntime:undname.obj
 0002:00000714       ??_C@_0N@BCKKPABJ@__vectorcall@ 00441714     libvcruntime:undname.obj
 0002:00000724       ??_C@_09HIJEGCPM@__clrcall@ 00441724     libvcruntime:undname.obj
 0002:00000730       ??_C@_06GHPCKEAG@__eabi@   00441730     libvcruntime:undname.obj
 0002:00000738       ??_C@_09IOPIDJLG@__swift_1@ 00441738     libvcruntime:undname.obj
 0002:00000744       ??_C@_09KFNFGKHF@__swift_2@ 00441744     libvcruntime:undname.obj
 0002:00000750       ??_C@_07JOMMBBKO@__ptr64@  00441750     libvcruntime:undname.obj
 0002:00000758       ??_C@_0L@PILCLIHE@__restrict@ 00441758     libvcruntime:undname.obj
 0002:00000764       ??_C@_0M@GFIIJFMG@__unaligned@ 00441764     libvcruntime:undname.obj
 0002:00000770       ??_C@_09DHDLOLLB@restrict?$CI@ 00441770     libvcruntime:undname.obj
 0002:0000077a       ??_C@_00CNPNBAHC@@         0044177a     libvcruntime:undname.obj
 0002:0000077c       ??_C@_04NIHEBCM@?5new@     0044177c     libvcruntime:undname.obj
 0002:00000784       ??_C@_07FPCDHGMM@?5delete@ 00441784     libvcruntime:undname.obj
 0002:0000078c       ??_C@_01NEMOKFLO@?$DN@     0044178c     libvcruntime:undname.obj
 0002:00000790       ??_C@_02GPIOPFAK@?$DO?$DO@ 00441790     libvcruntime:undname.obj
 0002:00000794       ??_C@_02FODMEDOG@?$DM?$DM@ 00441794     libvcruntime:undname.obj
 0002:00000798       ??_C@_01DCLJPIOD@?$CB@     00441798     libvcruntime:undname.obj
 0002:0000079c       ??_C@_02EGOFBIJA@?$DN?$DN@ 0044179c     libvcruntime:undname.obj
 0002:000007a0       ??_C@_02FDNJECIE@?$CB?$DN@ 004417a0     libvcruntime:undname.obj
 0002:000007a4       ??_C@_02GPECMEKF@?$FL?$FN@ 004417a4     libvcruntime:undname.obj
 0002:000007a8       ??_C@_08LHJFAFGD@operator@ 004417a8     libvcruntime:undname.obj
 0002:000007b4       ??_C@_02HBOOOICD@?9?$DO@   004417b4     libvcruntime:undname.obj
 0002:000007b8       ??_C@_01NBENCBCI@?$CK@     004417b8     libvcruntime:undname.obj
 0002:000007bc       ??_C@_02ECNGHCIF@?$CL?$CL@ 004417bc     libvcruntime:undname.obj
 0002:000007c0       ??_C@_02BAABKJLB@?9?9@     004417c0     libvcruntime:undname.obj
 0002:000007c4       ??_C@_01JOAMLHOP@?9@       004417c4     libvcruntime:undname.obj
 0002:000007c8       ??_C@_01MIFGBAGJ@?$CL@     004417c8     libvcruntime:undname.obj
 0002:000007cc       ??_C@_01HNPIGOCE@?$CG@     004417cc     libvcruntime:undname.obj
 0002:000007d0       ??_C@_03MNHNFDLC@?9?$DO?$CK@ 004417d0     libvcruntime:undname.obj
 0002:000007d4       ??_C@_01KMDKNFGN@?1@       004417d4     libvcruntime:undname.obj
 0002:000007d8       ??_C@_01FGNFDNOH@?$CF@     004417d8     libvcruntime:undname.obj
 0002:000007dc       ??_C@_01MNNFJEPP@?$DM@     004417dc     libvcruntime:undname.obj
 0002:000007e0       ??_C@_02EHCHHCKH@?$DM?$DN@ 004417e0     libvcruntime:undname.obj
 0002:000007e4       ??_C@_01PPODPGHN@?$DO@     004417e4     libvcruntime:undname.obj
 0002:000007e8       ??_C@_02EEKDKGMJ@?$DO?$DN@ 004417e8     libvcruntime:undname.obj
 0002:000007ec       ??_C@_01IHBHIGKO@?0@       004417ec     libvcruntime:undname.obj
 0002:000007f0       ??_C@_02HCKGKOFO@?$CI?$CJ@ 004417f0     libvcruntime:undname.obj
 0002:000007f4       ??_C@_01PJKLJHI@?$HO@      004417f4     libvcruntime:undname.obj
 0002:000007f8       ??_C@_01JKBOJNNK@?$FO@     004417f8     libvcruntime:undname.obj
 0002:000007fc       ??_C@_01DNKMNLPK@?$HM@     004417fc     libvcruntime:undname.obj
 0002:00000800       ??_C@_02PPKAJPJL@?$CG?$CG@ 00441800     libvcruntime:undname.obj
 0002:00000804       ??_C@_02NONPIBCD@?$HM?$HM@ 00441804     libvcruntime:undname.obj
 0002:00000808       ??_C@_02FPIMKNGF@?$CK?$DN@ 00441808     libvcruntime:undname.obj
 0002:0000080c       ??_C@_02FOEOMHFC@?$CL?$DN@ 0044180c     libvcruntime:undname.obj
 0002:00000810       ??_C@_02FKMDLLOA@?9?$DN@   00441810     libvcruntime:undname.obj
 0002:00000814       ??_C@_02FJEHGPIO@?1?$DN@   00441814     libvcruntime:undname.obj
 0002:00000818       ??_C@_02FENAOKFI@?$CF?$DN@ 00441818     libvcruntime:undname.obj
 0002:0000081c       ??_C@_03IKFCCPFF@?$DO?$DO?$DN@ 0044181c     libvcruntime:undname.obj
 0002:00000820       ??_C@_03CDNPDDLA@?$DM?$DM?$DN@ 00441820     libvcruntime:undname.obj
 0002:00000824       ??_C@_02FGJGFEAB@?$CG?$DN@ 00441824     libvcruntime:undname.obj
 0002:00000828       ??_C@_02DHLNPPGH@?$HM?$DN@ 00441828     libvcruntime:undname.obj
 0002:0000082c       ??_C@_02MHEGNOJ@?$FO?$DN@  0044182c     libvcruntime:undname.obj
 0002:00000830       ??_C@_09IFPLHPGF@?$GAvftable?8@ 00441830     libvcruntime:undname.obj
 0002:0000083c       ??_C@_09BLBHBJP@?$GAvbtable?8@ 0044183c     libvcruntime:undname.obj
 0002:00000848       ??_C@_07FEEIOKP@?$GAvcall?8@ 00441848     libvcruntime:undname.obj
 0002:00000850       ??_C@_08LLFFHHDJ@?$GAtypeof?8@ 00441850     libvcruntime:undname.obj
 0002:0000085c       ??_C@_0BF@KDPPACIK@?$GAlocal?5static?5guard?8@ 0044185c     libvcruntime:undname.obj
 0002:00000874       ??_C@_08OBABFOLI@?$GAstring?8@ 00441874     libvcruntime:undname.obj
 0002:00000880       ??_C@_0BD@JDLKDPAB@?$GAvbase?5destructor?8@ 00441880     libvcruntime:undname.obj
 0002:00000894       ??_C@_0BN@DEGPLNFK@?$GAvector?5deleting?5destructor?8@ 00441894     libvcruntime:undname.obj
 0002:000008b4       ??_C@_0BO@OBMKPJIG@?$GAdefault?5constructor?5closure?8@ 004418b4     libvcruntime:undname.obj
 0002:000008d4       ??_C@_0BN@IMDCHIKM@?$GAscalar?5deleting?5destructor?8@ 004418d4     libvcruntime:undname.obj
 0002:000008f4       ??_C@_0BO@PFGOCPJJ@?$GAvector?5constructor?5iterator?8@ 004418f4     libvcruntime:undname.obj
 0002:00000914       ??_C@_0BN@LFPFMEDL@?$GAvector?5destructor?5iterator?8@ 00441914     libvcruntime:undname.obj
 0002:00000934       ??_C@_0CE@IKBNEHA@?$GAvector?5vbase?5constructor?5itera@ 00441934     libvcruntime:undname.obj
 0002:00000958       ??_C@_0BL@NILFHHPC@?$GAvirtual?5displacement?5map?8@ 00441958     libvcruntime:undname.obj
 0002:00000974       ??_C@_0CB@JONCMFFK@?$GAeh?5vector?5constructor?5iterator@ 00441974     libvcruntime:undname.obj
 0002:00000998       ??_C@_0CA@GCEOPDGL@?$GAeh?5vector?5destructor?5iterator?8@ 00441998     libvcruntime:undname.obj
 0002:000009b8       ??_C@_0CH@OOJPLCPH@?$GAeh?5vector?5vbase?5constructor?5it@ 004419b8     libvcruntime:undname.obj
 0002:000009e0       ??_C@_0BL@LLKPOHJI@?$GAcopy?5constructor?5closure?8@ 004419e0     libvcruntime:undname.obj
 0002:000009fc       ??_C@_0BA@KBCDOMBN@?$GAudt?5returning?8@ 004419fc     libvcruntime:undname.obj
 0002:00000a0c       ??_C@_03KLGMFNMG@?$GAEH@   00441a0c     libvcruntime:undname.obj
 0002:00000a10       ??_C@_05KHLCHHI@?$GARTTI@  00441a10     libvcruntime:undname.obj
 0002:00000a18       ??_C@_0BA@KKLDJDLB@?$GAlocal?5vftable?8@ 00441a18     libvcruntime:undname.obj
 0002:00000a28       ??_C@_0CE@IIHCMGGL@?$GAlocal?5vftable?5constructor?5clos@ 00441a28     libvcruntime:undname.obj
 0002:00000a4c       ??_C@_06FHBGPFGH@?5new?$FL?$FN@ 00441a4c     libvcruntime:undname.obj
 0002:00000a54       ??_C@_09LBNFPBCA@?5delete?$FL?$FN@ 00441a54     libvcruntime:undname.obj
 0002:00000a60       ??_C@_0P@HJKNJFNN@?$GAomni?5callsig?8@ 00441a60     libvcruntime:undname.obj
 0002:00000a70       ??_C@_0BL@CNOONJFP@?$GAplacement?5delete?5closure?8@ 00441a70     libvcruntime:undname.obj
 0002:00000a8c       ??_C@_0BN@CKNJLHMB@?$GAplacement?5delete?$FL?$FN?5closure?8@ 00441a8c     libvcruntime:undname.obj
 0002:00000aac       ??_C@_0CG@CFDHKGGD@?$GAmanaged?5vector?5constructor?5ite@ 00441aac     libvcruntime:undname.obj
 0002:00000ad4       ??_C@_0CF@IMGKMJNO@?$GAmanaged?5vector?5destructor?5iter@ 00441ad4     libvcruntime:undname.obj
 0002:00000afc       ??_C@_0CG@HLDDJMAG@?$GAeh?5vector?5copy?5constructor?5ite@ 00441afc     libvcruntime:undname.obj
 0002:00000b24       ??_C@_0CM@FCBBDIGB@?$GAeh?5vector?5vbase?5copy?5construct@ 00441b24     libvcruntime:undname.obj
 0002:00000b50       ??_C@_0BL@CLIPGLGB@?$GAdynamic?5initializer?5for?5?8@ 00441b50     libvcruntime:undname.obj
 0002:00000b6c       ??_C@_0CB@PDBIFEP@?$GAdynamic?5atexit?5destructor?5for?5@ 00441b6c     libvcruntime:undname.obj
 0002:00000b90       ??_C@_0CD@CGAJBKEJ@?$GAvector?5copy?5constructor?5iterat@ 00441b90     libvcruntime:undname.obj
 0002:00000bb4       ??_C@_0CJ@GJELGAMM@?$GAvector?5vbase?5copy?5constructor?5@ 00441bb4     libvcruntime:undname.obj
 0002:00000be0       ??_C@_0CL@FGIJHLCE@?$GAmanaged?5vector?5copy?5constructo@ 00441be0     libvcruntime:undname.obj
 0002:00000c0c       ??_C@_0BM@PMGGMLDN@?$GAlocal?5static?5thread?5guard?8@ 00441c0c     libvcruntime:undname.obj
 0002:00000c28       ??_C@_0N@BDNMDMOL@operator?5?$CC?$CC?5@ 00441c28     libvcruntime:undname.obj
 0002:00000c38       ??_C@_0BC@GGEBGALA@operator?5co_await@ 00441c38     libvcruntime:undname.obj
 0002:00000c4c       ??_C@_0M@GAAIMMOH@operator?$DM?$DN?$DO@ 00441c4c     libvcruntime:undname.obj
 0002:00000c58       ??_C@_0BC@DAFEJGAK@?5Type?5Descriptor?8@ 00441c58     libvcruntime:undname.obj
 0002:00000c6c       ??_C@_0BM@LDKODKLH@?5Base?5Class?5Descriptor?5at?5?$CI@ 00441c6c     libvcruntime:undname.obj
 0002:00000c88       ??_C@_0BD@LGICGFMM@?5Base?5Class?5Array?8@ 00441c88     libvcruntime:undname.obj
 0002:00000c9c       ??_C@_0BN@MECKDCOJ@?5Class?5Hierarchy?5Descriptor?8@ 00441c9c     libvcruntime:undname.obj
 0002:00000cbc       ??_C@_0BK@CFCOFLF@?5Complete?5Object?5Locator?8@ 00441cbc     libvcruntime:undname.obj
 0002:00000cd8       ??_C@_0BG@JNJLAMPM@?$GAanonymous?5namespace?8@ 00441cd8     libvcruntime:undname.obj
 0002:00000cf0       ??_C@_04HEJADOOB@CV?3?5@   00441cf0     libvcruntime:undname.obj
 0002:00000cf8       ??_C@_02MOLJINC@?3?3@      00441cf8     libvcruntime:undname.obj
 0002:00000cfc       ??_C@_0BE@JAEOCHPE@template?9parameter?9@ 00441cfc     libvcruntime:undname.obj
 0002:00000d10       ??_C@_0BF@LNLGBBNL@?$GAtemplate?9parameter?9@ 00441d10     libvcruntime:undname.obj
 0002:00000d28       ??_C@_0O@KHGCOMHP@generic?9type?9@ 00441d28     libvcruntime:undname.obj
 0002:00000d38       ??_C@_0P@ODDENDLM@?$GAgeneric?9type?9@ 00441d38     libvcruntime:undname.obj
 0002:00000d48       ??_C@_02OHHJMEON@?8?8@     00441d48     libvcruntime:undname.obj
 0002:00000d4c       ??_C@_0BN@IBLMMFAP@?$GAnon?9type?9template?9parameter@ 00441d4c     libvcruntime:undname.obj
 0002:00000d6c       ??_C@_03DLDNIBIK@?$CFlf@   00441d6c     libvcruntime:undname.obj
 0002:00000d70       ??_C@_04OFALKAJ@?$DP?$DP_C@ 00441d70     libvcruntime:undname.obj
 0002:00000d78       ??_C@_03KHICJKCI@?4?4?4@   00441d78     libvcruntime:undname.obj
 0002:00000d7c       ??_C@_04HIBGFPH@NULL@      00441d7c     libvcruntime:undname.obj
 0002:00000d84       ??_C@_02DPKJAMEF@?$CFd@    00441d84     libvcruntime:undname.obj
 0002:00000d88       ??_C@_0BK@IHCCFNEL@?$GAtemplate?9type?9parameter?9@ 00441d88     libvcruntime:undname.obj
 0002:00000da4       ??_C@_0BK@OFCNNNKO@?$GAgeneric?9class?9parameter?9@ 00441da4     libvcruntime:undname.obj
 0002:00000dc0       ??_C@_0BL@NGJBLFIL@?$GAgeneric?9method?9parameter?9@ 00441dc0     libvcruntime:undname.obj
 0002:00000ddc       ??_C@_07OHNGEDJK@nullptr@  00441ddc     libvcruntime:undname.obj
 0002:00000de4       ??_C@_04GKJNKENE@void@     00441de4     libvcruntime:undname.obj
 0002:00000dec       ??_C@_0BE@EODMJLIF@?$GAtemplate?9parameter@ 00441dec     libvcruntime:undname.obj
 0002:00000e00       ??_C@_03OPGICMGF@?$HN?8?5@ 00441e00     libvcruntime:undname.obj
 0002:00000e04       ??_C@_02IGFCGPIL@?$HN?8@   00441e04     libvcruntime:undname.obj
 0002:00000e08       ??_C@_0N@CBHHHENL@?$GAvtordispex?$HL@ 00441e08     libvcruntime:undname.obj
 0002:00000e18       ??_C@_0L@GHPFDFH@?$GAvtordisp?$HL@ 00441e18     libvcruntime:undname.obj
 0002:00000e24       ??_C@_0L@HNGCOGAE@?$GAadjustor?$HL@ 00441e24     libvcruntime:undname.obj
 0002:00000e30       ??_C@_0CB@KJDOOODE@?$GAlocal?5static?5destructor?5helper@ 00441e30     libvcruntime:undname.obj
 0002:00000e54       ??_C@_0DB@ILEFOCIJ@?$GAtemplate?5static?5data?5member?5co@ 00441e54     libvcruntime:undname.obj
 0002:00000e88       ??_C@_0DA@HGFJFBBE@?$GAtemplate?5static?5data?5member?5de@ 00441e88     libvcruntime:undname.obj
 0002:00000eb8       ??_C@_07PGOEDBHP@static?5@ 00441eb8     libvcruntime:undname.obj
 0002:00000ec0       ??_C@_08NIEOINHE@virtual?5@ 00441ec0     libvcruntime:undname.obj
 0002:00000ecc       ??_C@_09LAPHOOG@private?3?5@ 00441ecc     libvcruntime:undname.obj
 0002:00000ed8       ??_C@_0M@GAIFPFIP@protected?3?5@ 00441ed8     libvcruntime:undname.obj
 0002:00000ee4       ??_C@_08GPDDCMKI@public?3?5@ 00441ee4     libvcruntime:undname.obj
 0002:00000ef0       ??_C@_08KJLFOPNE@?$FLthunk?$FN?3@ 00441ef0     libvcruntime:undname.obj
 0002:00000efc       ??_C@_0M@DHNBOJMP@extern?5?$CCC?$CC?5@ 00441efc     libvcruntime:undname.obj
 0002:00000f08       ??_C@_02KCKGHPCA@?$CJ?5@   00441f08     libvcruntime:undname.obj
 0002:00000f0c       ??_C@_05CIHEBHNO@char?5@   00441f0c     libvcruntime:undname.obj
 0002:00000f14       ??_C@_06EHJMALKF@short?5@  00441f14     libvcruntime:undname.obj
 0002:00000f1c       ??_C@_04LAHKHJMA@int?5@    00441f1c     libvcruntime:undname.obj
 0002:00000f24       ??_C@_05CJIMAING@long?5@   00441f24     libvcruntime:undname.obj
 0002:00000f2c       ??_C@_09EBBEKKIH@unsigned?5@ 00441f2c     libvcruntime:undname.obj
 0002:00000f38       ??_C@_05BEFAKPML@void?5@   00441f38     libvcruntime:undname.obj
 0002:00000f40       ??_C@_09GAIEOBLP@volatile?5@ 00441f40     libvcruntime:undname.obj
 0002:00000f4c       ??_C@_08PABEKFH@volatile@  00441f4c     libvcruntime:undname.obj
 0002:00000f58       ??_C@_0BA@LKIJLKPP@std?3?3nullptr_t?5@ 00441f58     libvcruntime:undname.obj
 0002:00000f68       ??_C@_0P@GCOCNKDM@std?3?3nullptr_t@ 00441f68     libvcruntime:undname.obj
 0002:00000f78       ??_C@_0L@EGPHHEKN@?$DMellipsis?$DO@ 00441f78     libvcruntime:undname.obj
 0002:00000f84       ??_C@_04EENFHACM@?0?4?4?4@ 00441f84     libvcruntime:undname.obj
 0002:00000f8c       ??_C@_0M@ELJOJFFH@?0?$DMellipsis?$DO@ 00441f8c     libvcruntime:undname.obj
 0002:00000f98       ??_C@_09DNHFEOJI@?5noexcept@ 00441f98     libvcruntime:undname.obj
 0002:00000fa4       ??_C@_03PBJBJNON@cpu@      00441fa4     libvcruntime:undname.obj
 0002:00000fa8       ??_C@_03DCBBJBAA@amp@      00441fa8     libvcruntime:undname.obj
 0002:00000fac       ??_C@_02KEGNLNML@?0?5@     00441fac     libvcruntime:undname.obj
 0002:00000fb0       ??_C@_04ENMBGAPA@char@     00441fb0     libvcruntime:undname.obj
 0002:00000fb8       ??_C@_05BFKKPKCG@short@    00441fb8     libvcruntime:undname.obj
 0002:00000fc0       ??_C@_03JBIPMCLC@int@      00441fc0     libvcruntime:undname.obj
 0002:00000fc4       ??_C@_04GOKPGOLB@long@     00441fc4     libvcruntime:undname.obj
 0002:00000fcc       ??_C@_05KNFBNCOH@float@    00441fcc     libvcruntime:undname.obj
 0002:00000fd4       ??_C@_06BNJCAIGJ@double@   00441fd4     libvcruntime:undname.obj
 0002:00000fdc       ??_C@_04DDKJGDCM@bool@     00441fdc     libvcruntime:undname.obj
 0002:00000fe4       ??_C@_06EBGKOKIG@__int8@   00441fe4     libvcruntime:undname.obj
 0002:00000fec       ??_C@_07ICFHOGAF@__int16@  00441fec     libvcruntime:undname.obj
 0002:00000ff4       ??_C@_07OFLPPHGP@__int32@  00441ff4     libvcruntime:undname.obj
 0002:00000ffc       ??_C@_07LFCOJCAC@__int64@  00441ffc     libvcruntime:undname.obj
 0002:00001004       ??_C@_08GAHOLHEO@__int128@ 00442004     libvcruntime:undname.obj
 0002:00001010       ??_C@_09EEKGDCPH@?$DMunknown?$DO@ 00442010     libvcruntime:undname.obj
 0002:0000101c       ??_C@_07CFHGOPCN@char8_t@  0044201c     libvcruntime:undname.obj
 0002:00001024       ??_C@_08HBIPOFJB@char16_t@ 00442024     libvcruntime:undname.obj
 0002:00001030       ??_C@_08IECNCBKG@char32_t@ 00442030     libvcruntime:undname.obj
 0002:0000103c       ??_C@_07CLGGIAMF@wchar_t@  0044203c     libvcruntime:undname.obj
 0002:00001044       ??_C@_04HAPDLBFF@auto@     00442044     libvcruntime:undname.obj
 0002:0000104c       ??_C@_0P@LHCGKIGK@decltype?$CIauto?$CJ@ 0044204c     libvcruntime:undname.obj
 0002:0000105c       ??_C@_06GCICPBLB@__w64?5@  0044205c     libvcruntime:undname.obj
 0002:00001064       ??_C@_07NFANNNEC@UNKNOWN@  00442064     libvcruntime:undname.obj
 0002:0000106c       ??_C@_07EDHNAJHC@signed?5@ 0044206c     libvcruntime:undname.obj
 0002:00001074       ??_C@_05BNCCCJPP@const@    00442074     libvcruntime:undname.obj
 0002:0000107c       ??_C@_09EFNPDFFP@?5volatile@ 0044207c     libvcruntime:undname.obj
 0002:00001088       ??_C@_0P@GCIFDJCJ@?$GAunknown?5ecsu?8@ 00442088     libvcruntime:undname.obj
 0002:00001098       ??_C@_06MOJHIBMG@union?5@  00442098     libvcruntime:undname.obj
 0002:000010a0       ??_C@_07DIBCDNGL@struct?5@ 004420a0     libvcruntime:undname.obj
 0002:000010a8       ??_C@_06LJBABKPM@class?5@  004420a8     libvcruntime:undname.obj
 0002:000010b0       ??_C@_08KOFANOFK@coclass?5@ 004420b0     libvcruntime:undname.obj
 0002:000010bc       ??_C@_0N@DLIEFKNA@cointerface?5@ 004420bc     libvcruntime:undname.obj
 0002:000010cc       ??_C@_05LJGMCFOG@enum?5@   004420cc     libvcruntime:undname.obj
 0002:000010d4       ??_C@_06LIJLOJAG@const?5@  004420d4     libvcruntime:undname.obj
 0002:000010dc       ??_C@_02KJPKDIBN@?$CG?5@   004420dc     libvcruntime:undname.obj
 0002:000010e0       ??_C@_03PCKGMOPB@?$CG?$CG?5@ 004420e0     libvcruntime:undname.obj
 0002:000010e4       ??_C@_0M@EALIELKG@cli?3?3array?$DM@ 004420e4     libvcruntime:undname.obj
 0002:000010f0       ??_C@_0O@GKABPPIF@cli?3?3pin_ptr?$DM@ 004420f0     libvcruntime:undname.obj
 0002:00001100       ??_C@_02GOGNNPBN@?$CJ?$FL@ 00442100     libvcruntime:undname.obj
 0002:00001104       ??_C@_06EEGAIFAK@?$HLflat?$HN@ 00442104     libvcruntime:undname.obj
 0002:0000110c       ??_C@_05JIBOFOHK@?$HLfor?5@ 0044210c     libvcruntime:undname.obj
 0002:00001114       ??_C@_02MDINNEEG@s?5@      00442114     libvcruntime:undname.obj
 0002:0000111c       ??_7DNameNode@@6B@         0044211c     libvcruntime:undname.obj
 0002:00001130       ??_7charNode@@6B@          00442130     libvcruntime:undname.obj
 0002:00001144       ??_7pcharNode@@6B@         00442144     libvcruntime:undname.obj
 0002:00001158       ??_7pDNameNode@@6B@        00442158     libvcruntime:undname.obj
 0002:0000116c       ??_7DNameStatusNode@@6B@   0044216c     libvcruntime:undname.obj
 0002:00001180       ??_7pairNode@@6B@          00442180     libvcruntime:undname.obj
 0002:00001290       ??_C@_04OKOHEJBO@?5?$DP?$DP?5@ 00442290     libvcruntime:undname.obj
 0002:00001298       ?nodes@?1??make@DNameStatusNode@@SAPBV2@W4DNameStatus@@@Z@4QBV2@B 00442298     libvcruntime:undname.obj
 0002:000012d4       ??_C@_1DM@KHCHBNEB@?$AAa?$AAp?$AAi?$AA?9?$AAm?$AAs?$AA?9?$AAw?$AAi?$AAn?$AA?9?$AAc?$AAo?$AAr?$AAe@ 004422d4     libvcruntime:winapi_downlevel.obj
 0002:00001310       ??_C@_1DK@LPPGFMPP@?$AAa?$AAp?$AAi?$AA?9?$AAm?$AAs?$AA?9?$AAw?$AAi?$AAn?$AA?9?$AAc?$AAo?$AAr?$AAe@ 00442310     libvcruntime:winapi_downlevel.obj
 0002:0000134c       ??_C@_1BC@GDMECMAK@?$AAk?$AAe?$AAr?$AAn?$AAe?$AAl?$AA3?$AA2@ 0044234c     libvcruntime:winapi_downlevel.obj
 0002:00001360       ??_C@_1BA@PFFKHIOG@?$AAa?$AAp?$AAi?$AA?9?$AAm?$AAs?$AA?9@ 00442360     libvcruntime:winapi_downlevel.obj
 0002:00001378       ??_C@_08KNHFBNJ@FlsAlloc@  00442378     libvcruntime:winapi_downlevel.obj
 0002:0000138c       ??_C@_07PEJMOBNF@FlsFree@  0044238c     libvcruntime:winapi_downlevel.obj
 0002:0000139c       ??_C@_0M@GDNOONDI@FlsGetValue@ 0044239c     libvcruntime:winapi_downlevel.obj
 0002:000013b0       ??_C@_0M@JCPCPOEF@FlsSetValue@ 004423b0     libvcruntime:winapi_downlevel.obj
 0002:000013c4       ??_C@_0BM@HCFOFFN@InitializeCriticalSectionEx@ 004423c4     libvcruntime:winapi_downlevel.obj
 0002:000013e4       ??_7exception@std@@6B@     004423e4     libvcruntime:frame.obj
 0002:000013ec       ??_C@_0BC@EOODALEL@Unknown?5exception@ 004423ec     libvcruntime:frame.obj
 0002:00001404       ??_7bad_exception@std@@6B@ 00442404     libvcruntime:frame.obj
 0002:0000140c       ??_C@_0O@DPKOEFFH@bad?5exception@ 0044240c     libvcruntime:frame.obj
 0002:0000141c       _RtlNtPathSeperatorString  0044241c     libucrt:exit.obj
 0002:00001424       ??_C@_13FPGAJAPJ@?$AA?2@   00442424     libucrt:exit.obj
 0002:00001428       _RtlDosPathSeperatorsString 00442428     libucrt:exit.obj
 0002:00001430       ??_C@_15MNCACJLI@?$AA?2?$AA?1@ 00442430     libucrt:exit.obj
 0002:00001438       _RtlAlternateDosPathSeperatorString 00442438     libucrt:exit.obj
 0002:00001440       ??_C@_13CGOKJPIL@?$AA?1@   00442440     libucrt:exit.obj
 0002:00001444       ??_C@_1BI@BGOHAHKC@?$AAm?$AAs?$AAc?$AAo?$AAr?$AAe?$AAe?$AA?4?$AAd?$AAl?$AAl@ 00442444     libucrt:exit.obj
 0002:0000145c       ??_C@_0P@MIGLKIOC@CorExitProcess@ 0044245c     libucrt:exit.obj
 0002:00001470       ?standard_lookup_table_spectre@__crt_stdio_output@@3V?$spectre_mitigated_lookup_table@Ustate_transition_pair@__crt_stdio_output@@$0IA@@1@B 00442470     libucrt:output.obj
 0002:00001870       ?format_validation_lookup_table_spectre@__crt_stdio_output@@3V?$spectre_mitigated_lookup_table@Ustate_transition_pair@__crt_stdio_output@@$0IA@@1@B 00442870     libucrt:output.obj
 0002:00001c70       ??_C@_1O@CEDCILHN@?$AA?$CI?$AAn?$AAu?$AAl?$AAl?$AA?$CJ@ 00442c70     libucrt:output.obj
 0002:00001c80       ??_C@_06OJHGLDPL@?$CInull?$CJ@ 00442c80     libucrt:output.obj
 0002:00001c88       ___acrt_exception_action_table 00442c88     libucrt:exception_filter.obj
 0002:00001d18       ___acrt_signal_action_table_count 00442d18     libucrt:exception_filter.obj
 0002:00001d1c       ___acrt_signal_action_table_size 00442d1c     libucrt:exception_filter.obj
 0002:00001d20       ___acrt_signal_action_first_fpe_index 00442d20     libucrt:exception_filter.obj
 0002:00001d24       ___acrt_signal_action_fpe_count 00442d24     libucrt:exception_filter.obj
 0002:00001d28       ??_C@_1DE@JNGNBFGO@?$AAR?$AAu?$AAn?$AAt?$AAi?$AAm?$AAe?$AA?5?$AAE?$AAr?$AAr?$AAo?$AAr?$AA?$CB?$AA?6@ 00442d28     libucrt:report_runtime_error.obj
 0002:00001d5c       ??_C@_1CO@EAEJAADC@?$AA?$DM?$AAp?$AAr?$AAo?$AAg?$AAr?$AAa?$AAm?$AA?5?$AAn?$AAa?$AAm?$AAe?$AA?5?$AAu@ 00442d5c     libucrt:report_runtime_error.obj
 0002:00001d8c       ??_C@_17LGKOMLJ@?$AA?4?$AA?4?$AA?4@ 00442d8c     libucrt:report_runtime_error.obj
 0002:00001d94       ??_C@_15IABLJNFO@?$AA?6?$AA?6@ 00442d94     libucrt:report_runtime_error.obj
 0002:00001da0       ??_C@_1EK@MBDPDCGA@?$AAM?$AAi?$AAc?$AAr?$AAo?$AAs?$AAo?$AAf?$AAt?$AA?5?$AAV?$AAi?$AAs?$AAu?$AAa@ 00442da0     libucrt:report_runtime_error.obj
 0002:00001e70       ___lc_category             00442e70     libucrt:wsetlocale.obj
 0002:00001eb8       ??_C@_1O@GIFLHMA@?$AAL?$AAC?$AA_?$AAA?$AAL?$AAL@ 00442eb8     libucrt:wsetlocale.obj
 0002:00001ec8       ??_C@_1BG@PPOMIBNJ@?$AAL?$AAC?$AA_?$AAC?$AAO?$AAL?$AAL?$AAA?$AAT?$AAE@ 00442ec8     libucrt:wsetlocale.obj
 0002:00001ee0       ??_C@_1BC@FFJGAPJM@?$AAL?$AAC?$AA_?$AAC?$AAT?$AAY?$AAP?$AAE@ 00442ee0     libucrt:wsetlocale.obj
 0002:00001ef4       ??_C@_1BI@PCKFNJFB@?$AAL?$AAC?$AA_?$AAM?$AAO?$AAN?$AAE?$AAT?$AAA?$AAR?$AAY@ 00442ef4     libucrt:wsetlocale.obj
 0002:00001f0c       ??_C@_1BG@ENIEDKID@?$AAL?$AAC?$AA_?$AAN?$AAU?$AAM?$AAE?$AAR?$AAI?$AAC@ 00442f0c     libucrt:wsetlocale.obj
 0002:00001f24       ??_C@_1BA@HAAOMIIG@?$AAL?$AAC?$AA_?$AAT?$AAI?$AAM?$AAE@ 00442f24     libucrt:wsetlocale.obj
 0002:00001f34       ??_C@_15NBPDDFIP@?$AA?$DN?$AA?$DL@ 00442f34     libucrt:wsetlocale.obj
 0002:00001f3c       ??_C@_13PJJBFPED@?$AA?$DL@ 00442f3c     libucrt:wsetlocale.obj
 0002:00001f40       ??_C@_13NMPKAAJP@?$AA?$DN@ 00442f40     libucrt:wsetlocale.obj
 0002:00001f44       ??_C@_13IMODFHAA@?$AA?9@   00442f44     libucrt:wsetlocale.obj
 0002:00001f48       ??_C@_17EFJLDFDO@?$AA?9?$AA_?$AA?4@ 00442f48     libucrt:wsetlocale.obj
 0002:00001f50       ??_C@_13FHBKNHDA@?$AAC@    00442f50     libucrt:wsetlocale.obj
 0002:00001f54       ??_C@_17MBJJLFDM@?$AA_?$AA?4?$AA?0@ 00442f54     libucrt:wsetlocale.obj
 0002:00001f5c       ??_C@_13ENNFDPBH@?$AA_@    00442f5c     libucrt:wsetlocale.obj
 0002:00001f60       ??_C@_13JOFGPIOO@?$AA?4@   00442f60     libucrt:wsetlocale.obj
 0002:00001fe8       __Fenv1                    00442fe8     libucrt:atox.obj
 0002:000021a8       ??_C@_1EA@JGEFHKEI@?$AAa?$AAp?$AAi?$AA?9?$AAm?$AAs?$AA?9?$AAw?$AAi?$AAn?$AA?9?$AAc?$AAo?$AAr?$AAe@ 004431a8     libucrt:winapi_thunks.obj
 0002:000021e8       ??_C@_1DI@IJCEHOCB@?$AAa?$AAp?$AAi?$AA?9?$AAm?$AAs?$AA?9?$AAw?$AAi?$AAn?$AA?9?$AAc?$AAo?$AAr?$AAe@ 004431e8     libucrt:winapi_thunks.obj
 0002:00002220       ??_C@_1EI@MPIAOHOC@?$AAa?$AAp?$AAi?$AA?9?$AAm?$AAs?$AA?9?$AAw?$AAi?$AAn?$AA?9?$AAc?$AAo?$AAr?$AAe@ 00443220     libucrt:winapi_thunks.obj
 0002:00002268       ??_C@_1FK@FPHCKFIE@?$AAa?$AAp?$AAi?$AA?9?$AAm?$AAs?$AA?9?$AAw?$AAi?$AAn?$AA?9?$AAc?$AAo?$AAr?$AAe@ 00443268     libucrt:winapi_thunks.obj
 0002:000022c8       ??_C@_1EM@DILCGIIO@?$AAa?$AAp?$AAi?$AA?9?$AAm?$AAs?$AA?9?$AAw?$AAi?$AAn?$AA?9?$AAc?$AAo?$AAr?$AAe@ 004432c8     libucrt:winapi_thunks.obj
 0002:00002314       ??_C@_1DM@LNCGDDPN@?$AAa?$AAp?$AAi?$AA?9?$AAm?$AAs?$AA?9?$AAw?$AAi?$AAn?$AA?9?$AAc?$AAo?$AAr?$AAe@ 00443314     libucrt:winapi_thunks.obj
 0002:00002350       ??_C@_1DO@FPAPJEMD@?$AAa?$AAp?$AAi?$AA?9?$AAm?$AAs?$AA?9?$AAw?$AAi?$AAn?$AA?9?$AAc?$AAo?$AAr?$AAe@ 00443350     libucrt:winapi_thunks.obj
 0002:00002390       ??_C@_1DK@NDHNAHIO@?$AAa?$AAp?$AAi?$AA?9?$AAm?$AAs?$AA?9?$AAw?$AAi?$AAn?$AA?9?$AAc?$AAo?$AAr?$AAe@ 00443390     libucrt:winapi_thunks.obj
 0002:000023cc       ??_C@_1DM@KGHDGBCM@?$AAa?$AAp?$AAi?$AA?9?$AAm?$AAs?$AA?9?$AAw?$AAi?$AAn?$AA?9?$AAc?$AAo?$AAr?$AAe@ 004433cc     libucrt:winapi_thunks.obj
 0002:00002408       ??_C@_1EO@IJIOEFOH@?$AAa?$AAp?$AAi?$AA?9?$AAm?$AAs?$AA?9?$AAw?$AAi?$AAn?$AA?9?$AAr?$AAt?$AAc?$AAo@ 00443408     libucrt:winapi_thunks.obj
 0002:00002458       ??_C@_1FG@HHGEKANL@?$AAa?$AAp?$AAi?$AA?9?$AAm?$AAs?$AA?9?$AAw?$AAi?$AAn?$AA?9?$AAs?$AAe?$AAc?$AAu@ 00443458     libucrt:winapi_thunks.obj
 0002:000024b0       ??_C@_1EG@DBIOJECG@?$AAe?$AAx?$AAt?$AA?9?$AAm?$AAs?$AA?9?$AAw?$AAi?$AAn?$AA?9?$AAn?$AAt?$AAu?$AAs@ 004434b0     libucrt:winapi_thunks.obj
 0002:000024f8       ??_C@_1EO@FIHMJCLF@?$AAe?$AAx?$AAt?$AA?9?$AAm?$AAs?$AA?9?$AAw?$AAi?$AAn?$AA?9?$AAn?$AAt?$AAu?$AAs@ 004434f8     libucrt:winapi_thunks.obj
 0002:00002548       ??_C@_1BC@DNHGCMLG@?$AAa?$AAd?$AAv?$AAa?$AAp?$AAi?$AA3?$AA2@ 00443548     libucrt:winapi_thunks.obj
 0002:0000255c       ??_C@_1M@OAIMIKLP@?$AAn?$AAt?$AAd?$AAl?$AAl@ 0044355c     libucrt:winapi_thunks.obj
 0002:00002568       ??_C@_1EG@DPGNFKGC@?$AAa?$AAp?$AAi?$AA?9?$AAm?$AAs?$AA?9?$AAw?$AAi?$AAn?$AA?9?$AAa?$AAp?$AAp?$AAm@ 00443568     libucrt:winapi_thunks.obj
 0002:000025b0       ??_C@_1O@BCCLBEOE@?$AAu?$AAs?$AAe?$AAr?$AA3?$AA2@ 004435b0     libucrt:winapi_thunks.obj
 0002:000025c0       ??_C@_1BA@IAIFMGEF@?$AAe?$AAx?$AAt?$AA?9?$AAm?$AAs?$AA?9@ 004435c0     libucrt:winapi_thunks.obj
 0002:000025d4       ??_C@_0BA@FHFNEAED@AreFileApisANSI@ 004435d4     libucrt:winapi_thunks.obj
 0002:000025ec       ??_C@_0BA@IHGNDAEB@CompareStringEx@ 004435ec     libucrt:winapi_thunks.obj
 0002:00002604       ??_C@_0BE@LJANKFHF@EnumSystemLocalesEx@ 00443604     libucrt:winapi_thunks.obj
 0002:00002640       ??_C@_0BA@HNOPNCHB@GetActiveWindow@ 00443640     libucrt:winapi_thunks.obj
 0002:00002658       ??_C@_0BA@EPCJIIPD@GetDateFormatEx@ 00443658     libucrt:winapi_thunks.obj
 0002:00002670       ??_C@_0BJ@DIBIJBHA@GetEnabledXStateFeatures@ 00443670     libucrt:winapi_thunks.obj
 0002:00002694       ??_C@_0BD@HHGDFDBJ@GetLastActivePopup@ 00443694     libucrt:winapi_thunks.obj
 0002:000026b0       ??_C@_0BA@ONOKGCMP@GetLocaleInfoEx@ 004436b0     libucrt:winapi_thunks.obj
 0002:000026c8       ??_C@_0BI@DFKBFLJE@GetProcessWindowStation@ 004436c8     libucrt:winapi_thunks.obj
 0002:000026e4       ??_C@_0BP@FPNJPEJC@GetSystemTimePreciseAsFileTime@ 004436e4     libucrt:winapi_thunks.obj
 0002:0000270c       ??_C@_0BA@CIJJKCJJ@GetTimeFormatEx@ 0044370c     libucrt:winapi_thunks.obj
 0002:00002724       ??_C@_0BJ@PBCCBIPI@GetUserDefaultLocaleName@ 00443724     libucrt:winapi_thunks.obj
 0002:00002748       ??_C@_0BK@DEKFELLI@GetUserObjectInformationW@ 00443748     libucrt:winapi_thunks.obj
 0002:0000276c       ??_C@_0BG@IKLDMBLM@GetXStateFeaturesMask@ 0044376c     libucrt:winapi_thunks.obj
 0002:00002794       ??_C@_0BC@CELBKLLA@IsValidLocaleName@ 00443794     libucrt:winapi_thunks.obj
 0002:000027b0       ??_C@_0O@KKBNKAPF@LCMapStringEx@ 004437b0     libucrt:winapi_thunks.obj
 0002:000027c8       ??_C@_0BB@CDHDDLLP@LCIDToLocaleName@ 004437c8     libucrt:winapi_thunks.obj
 0002:000027e4       ??_C@_0BB@HBDEELFH@LocaleNameToLCID@ 004437e4     libucrt:winapi_thunks.obj
 0002:00002800       ??_C@_0BE@KINNKFDA@LocateXStateFeature@ 00443800     libucrt:winapi_thunks.obj
 0002:0000281c       ??_C@_0M@CHKKJDAI@MessageBoxA@ 0044381c     libucrt:winapi_thunks.obj
 0002:00002830       ??_C@_0M@DLDCCGNP@MessageBoxW@ 00443830     libucrt:winapi_thunks.obj
 0002:00002840       ??_C@_0N@PPOMPGGK@RoInitialize@ 00443840     libucrt:winapi_thunks.obj
 0002:00002854       ??_C@_0P@LLFHBIJD@RoUninitialize@ 00443854     libucrt:winapi_thunks.obj
 0002:00002868       ??_C@_0CF@OJOFEIGO@AppPolicyGetProcessTerminationM@ 00443868     libucrt:winapi_thunks.obj
 0002:00002894       ??_C@_0CF@NNDFDCOC@AppPolicyGetThreadInitializatio@ 00443894     libucrt:winapi_thunks.obj
 0002:000028c0       ??_C@_0CE@OICFMIKE@AppPolicyGetShowDeveloperDiagno@ 004438c0     libucrt:winapi_thunks.obj
 0002:000028e8       ??_C@_0BL@ODDJNEDA@AppPolicyGetWindowingModel@ 004438e8     libucrt:winapi_thunks.obj
 0002:0000290c       ??_C@_0BI@BKLFFAPO@SetThreadStackGuarantee@ 0044390c     libucrt:winapi_thunks.obj
 0002:0000292c       ??_C@_0BC@JEAENNKH@SystemFunction036@ 0044392c     libucrt:winapi_thunks.obj
 0002:00002980       ??_C@_03OEIAHPBN@INF@      00443980     libucrt:cvt.obj
 0002:00002984       ??_C@_03OJHLLCGB@inf@      00443984     libucrt:cvt.obj
 0002:00002988       ??_C@_03LKNCIKJB@NAN@      00443988     libucrt:cvt.obj
 0002:0000298c       ??_C@_03LHCJEHON@nan@      0044398c     libucrt:cvt.obj
 0002:00002990       ??_C@_09OFJJIMPC@NAN?$CISNAN?$CJ@ 00443990     libucrt:cvt.obj
 0002:0000299c       ??_C@_09IPFBKMDL@nan?$CIsnan?$CJ@ 0044399c     libucrt:cvt.obj
 0002:000029a8       ??_C@_08IKHNHAJ@NAN?$CIIND?$CJ@ 004439a8     libucrt:cvt.obj
 0002:000029b4       ??_C@_08OFCDMILK@nan?$CIind?$CJ@ 004439b4     libucrt:cvt.obj
 0002:000029c0       ??_C@_05KLBDPFGC@e?$CL000@ 004439c0     libucrt:cvt.obj
 0002:000029c8       ___lc_time_c               004439c8     libucrt:nlsdata.obj
 0002:00002b2c       ??_C@_03KOEHGMDN@Sun@      00443b2c     libucrt:nlsdata.obj
 0002:00002b30       ??_C@_03PDAGKDH@Mon@       00443b30     libucrt:nlsdata.obj
 0002:00002b34       ??_C@_03NAGEINEP@Tue@      00443b34     libucrt:nlsdata.obj
 0002:00002b38       ??_C@_03MHOMLAJA@Wed@      00443b38     libucrt:nlsdata.obj
 0002:00002b3c       ??_C@_03IOFIKPDN@Thu@      00443b3c     libucrt:nlsdata.obj
 0002:00002b40       ??_C@_03IDIOELNC@Fri@      00443b40     libucrt:nlsdata.obj
 0002:00002b44       ??_C@_03FEFJNEK@Sat@       00443b44     libucrt:nlsdata.obj
 0002:00002b48       ??_C@_06OOPIFAJ@Sunday@    00443b48     libucrt:nlsdata.obj
 0002:00002b50       ??_C@_06JLEDEDGH@Monday@   00443b50     libucrt:nlsdata.obj
 0002:00002b58       ??_C@_07BAAGCFCM@Tuesday@  00443b58     libucrt:nlsdata.obj
 0002:00002b60       ??_C@_09DLIGFAKA@Wednesday@ 00443b60     libucrt:nlsdata.obj
 0002:00002b6c       ??_C@_08HACCIKIA@Thursday@ 00443b6c     libucrt:nlsdata.obj
 0002:00002b78       ??_C@_06JECMNKMI@Friday@   00443b78     libucrt:nlsdata.obj
 0002:00002b80       ??_C@_08INBOOONO@Saturday@ 00443b80     libucrt:nlsdata.obj
 0002:00002b8c       ??_C@_03JIHJHPIE@Jan@      00443b8c     libucrt:nlsdata.obj
 0002:00002b90       ??_C@_03HJBDCHOM@Feb@      00443b90     libucrt:nlsdata.obj
 0002:00002b94       ??_C@_03ODNJBKGA@Mar@      00443b94     libucrt:nlsdata.obj
 0002:00002b98       ??_C@_03LEOLGMJP@Apr@      00443b98     libucrt:nlsdata.obj
 0002:00002b9c       ??_C@_03CNMDKL@May@        00443b9c     libucrt:nlsdata.obj
 0002:00002ba0       ??_C@_03IDFGHECI@Jun@      00443ba0     libucrt:nlsdata.obj
 0002:00002ba4       ??_C@_03LBGABGKK@Jul@      00443ba4     libucrt:nlsdata.obj
 0002:00002ba8       ??_C@_03IFJFEIGA@Aug@      00443ba8     libucrt:nlsdata.obj
 0002:00002bac       ??_C@_03GGCAPAJC@Sep@      00443bac     libucrt:nlsdata.obj
 0002:00002bb0       ??_C@_03BMAOKBAD@Oct@      00443bb0     libucrt:nlsdata.obj
 0002:00002bb4       ??_C@_03JPJOFNIA@Nov@      00443bb4     libucrt:nlsdata.obj
 0002:00002bb8       ??_C@_03MKABNOCG@Dec@      00443bb8     libucrt:nlsdata.obj
 0002:00002bbc       ??_C@_07CGJPFGJA@January@  00443bbc     libucrt:nlsdata.obj
 0002:00002bc4       ??_C@_08GNJGEPFN@February@ 00443bc4     libucrt:nlsdata.obj
 0002:00002bd0       ??_C@_05HPCKOFNC@March@    00443bd0     libucrt:nlsdata.obj
 0002:00002bd8       ??_C@_05DMJDNLEJ@April@    00443bd8     libucrt:nlsdata.obj
 0002:00002be0       ??_C@_04CNLMGBGM@June@     00443be0     libucrt:nlsdata.obj
 0002:00002be8       ??_C@_04MIEPOIFP@July@     00443be8     libucrt:nlsdata.obj
 0002:00002bf0       ??_C@_06LBBHFDDG@August@   00443bf0     libucrt:nlsdata.obj
 0002:00002bf8       ??_C@_09BHHEALKD@September@ 00443bf8     libucrt:nlsdata.obj
 0002:00002c04       ??_C@_07JJNFCEND@October@  00443c04     libucrt:nlsdata.obj
 0002:00002c0c       ??_C@_08HCHEGEOA@November@ 00443c0c     libucrt:nlsdata.obj
 0002:00002c18       ??_C@_08EDHMEBNP@December@ 00443c18     libucrt:nlsdata.obj
 0002:00002c24       ??_C@_02DEDBPAFC@AM@       00443c24     libucrt:nlsdata.obj
 0002:00002c28       ??_C@_02CJNFDJBF@PM@       00443c28     libucrt:nlsdata.obj
 0002:00002c2c       ??_C@_08BPBNCDIB@MM?1dd?1yy@ 00443c2c     libucrt:nlsdata.obj
 0002:00002c38       ??_C@_0BE@CKGJFCPC@dddd?0?5MMMM?5dd?0?5yyyy@ 00443c38     libucrt:nlsdata.obj
 0002:00002c4c       ??_C@_08JCCMCCIL@HH?3mm?3ss@ 00443c4c     libucrt:nlsdata.obj
 0002:00002c58       ??_C@_17MBGCMIPB@?$AAS?$AAu?$AAn@ 00443c58     libucrt:nlsdata.obj
 0002:00002c60       ??_C@_17KBOMKBF@?$AAM?$AAo?$AAn@ 00443c60     libucrt:nlsdata.obj
 0002:00002c68       ??_C@_17BMKGEGOJ@?$AAT?$AAu?$AAe@ 00443c68     libucrt:nlsdata.obj
 0002:00002c70       ??_C@_17CJEDCEPE@?$AAW?$AAe?$AAd@ 00443c70     libucrt:nlsdata.obj
 0002:00002c78       ??_C@_17PDPHAADD@?$AAT?$AAh?$AAu@ 00443c78     libucrt:nlsdata.obj
 0002:00002c80       ??_C@_17HFOLPPLP@?$AAF?$AAr?$AAi@ 00443c80     libucrt:nlsdata.obj
 0002:00002c88       ??_C@_17GGIBDPIH@?$AAS?$AAa?$AAt@ 00443c88     libucrt:nlsdata.obj
 0002:00002c90       ??_C@_1O@IHNHDHPB@?$AAS?$AAu?$AAn?$AAd?$AAa?$AAy@ 00443c90     libucrt:nlsdata.obj
 0002:00002ca0       ??_C@_1O@MMNBFLIA@?$AAM?$AAo?$AAn?$AAd?$AAa?$AAy@ 00443ca0     libucrt:nlsdata.obj
 0002:00002cb0       ??_C@_1BA@ENFBFFEK@?$AAT?$AAu?$AAe?$AAs?$AAd?$AAa?$AAy@ 00443cb0     libucrt:nlsdata.obj
 0002:00002cc0       ??_C@_1BE@EBOGMDOH@?$AAW?$AAe?$AAd?$AAn?$AAe?$AAs?$AAd?$AAa?$AAy@ 00443cc0     libucrt:nlsdata.obj
 0002:00002cd4       ??_C@_1BC@HHMNLIHE@?$AAT?$AAh?$AAu?$AAr?$AAs?$AAd?$AAa?$AAy@ 00443cd4     libucrt:nlsdata.obj
 0002:00002ce8       ??_C@_1O@PDICJHAG@?$AAF?$AAr?$AAi?$AAd?$AAa?$AAy@ 00443ce8     libucrt:nlsdata.obj
 0002:00002cf8       ??_C@_1BC@ENMNNPAJ@?$AAS?$AAa?$AAt?$AAu?$AAr?$AAd?$AAa?$AAy@ 00443cf8     libucrt:nlsdata.obj
 0002:00002d0c       ??_C@_17DKNBKCHM@?$AAJ?$AAa?$AAn@ 00443d0c     libucrt:nlsdata.obj
 0002:00002d14       ??_C@_17LMDJEKJN@?$AAF?$AAe?$AAb@ 00443d14     libucrt:nlsdata.obj
 0002:00002d1c       ??_C@_17CKNLEDEC@?$AAM?$AAa?$AAr@ 00443d1c     libucrt:nlsdata.obj
 0002:00002d24       ??_C@_17LFPOIHDD@?$AAA?$AAp?$AAr@ 00443d24     libucrt:nlsdata.obj
 0002:00002d2c       ??_C@_17PNNKMEED@?$AAM?$AAa?$AAy@ 00443d2c     libucrt:nlsdata.obj
 0002:00002d34       ??_C@_17KCJGOCPB@?$AAJ?$AAu?$AAn@ 00443d34     libucrt:nlsdata.obj
 0002:00002d3c       ??_C@_17IJPCKHK@?$AAJ?$AAu?$AAl@ 00443d3c     libucrt:nlsdata.obj
 0002:00002d44       ??_C@_17ICPELBCN@?$AAA?$AAu?$AAg@ 00443d44     libucrt:nlsdata.obj
 0002:00002d4c       ??_C@_17HCHCOKMG@?$AAS?$AAe?$AAp@ 00443d4c     libucrt:nlsdata.obj
 0002:00002d54       ??_C@_17FNLKOI@?$AAO?$AAc?$AAt@ 00443d54     libucrt:nlsdata.obj
 0002:00002d5c       ??_C@_17BBDMLCIG@?$AAN?$AAo?$AAv@ 00443d5c     libucrt:nlsdata.obj
 0002:00002d64       ??_C@_17EGKACKIF@?$AAD?$AAe?$AAc@ 00443d64     libucrt:nlsdata.obj
 0002:00002d6c       ??_C@_1BA@EFMEIEBA@?$AAJ?$AAa?$AAn?$AAu?$AAa?$AAr?$AAy@ 00443d6c     libucrt:nlsdata.obj
 0002:00002d7c       ??_C@_1BC@JGDDFFAM@?$AAF?$AAe?$AAb?$AAr?$AAu?$AAa?$AAr?$AAy@ 00443d7c     libucrt:nlsdata.obj
 0002:00002d90       ??_C@_1M@IKEENEDF@?$AAM?$AAa?$AAr?$AAc?$AAh@ 00443d90     libucrt:nlsdata.obj
 0002:00002d9c       ??_C@_1M@GJNLMHFD@?$AAA?$AAp?$AAr?$AAi?$AAl@ 00443d9c     libucrt:nlsdata.obj
 0002:00002da8       ??_C@_19EPFLPGAP@?$AAJ?$AAu?$AAn?$AAe@ 00443da8     libucrt:nlsdata.obj
 0002:00002db4       ??_C@_19BIFMLPCD@?$AAJ?$AAu?$AAl?$AAy@ 00443db4     libucrt:nlsdata.obj
 0002:00002dc0       ??_C@_1O@PAHLKOAC@?$AAA?$AAu?$AAg?$AAu?$AAs?$AAt@ 00443dc0     libucrt:nlsdata.obj
 0002:00002dd0       ??_C@_1BE@DKAAMBJL@?$AAS?$AAe?$AAp?$AAt?$AAe?$AAm?$AAb?$AAe?$AAr@ 00443dd0     libucrt:nlsdata.obj
 0002:00002de4       ??_C@_1BA@EPANDLNG@?$AAO?$AAc?$AAt?$AAo?$AAb?$AAe?$AAr@ 00443de4     libucrt:nlsdata.obj
 0002:00002df4       ??_C@_1BC@BGLIFPF@?$AAN?$AAo?$AAv?$AAe?$AAm?$AAb?$AAe?$AAr@ 00443df4     libucrt:nlsdata.obj
 0002:00002e08       ??_C@_1BC@FEMKIFH@?$AAD?$AAe?$AAc?$AAe?$AAm?$AAb?$AAe?$AAr@ 00443e08     libucrt:nlsdata.obj
 0002:00002e1c       ??_C@_15ODEHAHHF@?$AAA?$AAM@ 00443e1c     libucrt:nlsdata.obj
 0002:00002e24       ??_C@_15CLMNNGEL@?$AAP?$AAM@ 00443e24     libucrt:nlsdata.obj
 0002:00002e2c       ??_C@_1BC@IEBCMHCM@?$AAM?$AAM?$AA?1?$AAd?$AAd?$AA?1?$AAy?$AAy@ 00443e2c     libucrt:nlsdata.obj
 0002:00002e40       ??_C@_1CI@KNAKOEBC@?$AAd?$AAd?$AAd?$AAd?$AA?0?$AA?5?$AAM?$AAM?$AAM?$AAM?$AA?5?$AAd?$AAd?$AA?0?$AA?5@ 00443e40     libucrt:nlsdata.obj
 0002:00002e68       ??_C@_1BC@GDGBMEMK@?$AAH?$AAH?$AA?3?$AAm?$AAm?$AA?3?$AAs?$AAs@ 00443e68     libucrt:nlsdata.obj
 0002:00002e7c       ??_C@_1M@BMHNFIME@?$AAe?$AAn?$AA?9?$AAU?$AAS@ 00443e7c     libucrt:nlsdata.obj
 0002:00002e98       ??_C@_1M@HPNHIDJI@?$AAj?$AAa?$AA?9?$AAJ?$AAP@ 00443e98     libucrt:mbctype.obj
 0002:00002ea4       ??_C@_1M@BIBDDEMK@?$AAz?$AAh?$AA?9?$AAC?$AAN@ 00443ea4     libucrt:mbctype.obj
 0002:00002eb0       ??_C@_1M@JLOOOEGK@?$AAk?$AAo?$AA?9?$AAK?$AAR@ 00443eb0     libucrt:mbctype.obj
 0002:00002ebc       ??_C@_1M@CLNBBOPM@?$AAz?$AAh?$AA?9?$AAT?$AAW@ 00443ebc     libucrt:mbctype.obj
 0002:00002ec8       ___newctype                00443ec8     libucrt:ctype.obj
 0002:000031c8       ___newclmap                004441c8     libucrt:ctype.obj
 0002:00003348       ___newcumap                00444348     libucrt:ctype.obj
 0002:000034c8       __wctype                   004444c8     libucrt:ctype.obj
 0002:000036d0       ___acrt_rg_language        004446d0     libucrt:get_qualified_locale.obj
 0002:000039dc       ___acrt_rg_language_count  004449dc     libucrt:get_qualified_locale.obj
 0002:000039e0       ___acrt_rg_country         004449e0     libucrt:get_qualified_locale.obj
 0002:00003af4       ___acrt_rg_country_count   00444af4     libucrt:get_qualified_locale.obj
 0002:00003af8       ??_C@_1BC@LLOKLNP@?$AAa?$AAm?$AAe?$AAr?$AAi?$AAc?$AAa?$AAn@ 00444af8     libucrt:get_qualified_locale.obj
 0002:00003b0c       ??_C@_1CC@HEIGCDGG@?$AAa?$AAm?$AAe?$AAr?$AAi?$AAc?$AAa?$AAn?$AA?5?$AAe?$AAn?$AAg?$AAl?$AAi?$AAs@ 00444b0c     libucrt:get_qualified_locale.obj
 0002:00003b30       ??_C@_1CC@IHCNOMIN@?$AAa?$AAm?$AAe?$AAr?$AAi?$AAc?$AAa?$AAn?$AA?9?$AAe?$AAn?$AAg?$AAl?$AAi?$AAs@ 00444b30     libucrt:get_qualified_locale.obj
 0002:00003b54       ??_C@_1BG@GKAGPCGG@?$AAa?$AAu?$AAs?$AAt?$AAr?$AAa?$AAl?$AAi?$AAa?$AAn@ 00444b54     libucrt:get_qualified_locale.obj
 0002:00003b6c       ??_C@_1BA@GMENCENF@?$AAb?$AAe?$AAl?$AAg?$AAi?$AAa?$AAn@ 00444b6c     libucrt:get_qualified_locale.obj
 0002:00003b7c       ??_C@_1BC@PJMIIAAN@?$AAc?$AAa?$AAn?$AAa?$AAd?$AAi?$AAa?$AAn@ 00444b7c     libucrt:get_qualified_locale.obj
 0002:00003b90       ??_C@_17NOIMNFBF@?$AAc?$AAh?$AAh@ 00444b90     libucrt:get_qualified_locale.obj
 0002:00003b98       ??_C@_17GGDALCHA@?$AAc?$AAh?$AAi@ 00444b98     libucrt:get_qualified_locale.obj
 0002:00003ba0       ??_C@_1BA@NPNJKIBL@?$AAc?$AAh?$AAi?$AAn?$AAe?$AAs?$AAe@ 00444ba0     libucrt:get_qualified_locale.obj
 0002:00003bb0       ??_C@_1CC@DINBAMMJ@?$AAc?$AAh?$AAi?$AAn?$AAe?$AAs?$AAe?$AA?9?$AAh?$AAo?$AAn?$AAg?$AAk?$AAo?$AAn@ 00444bb0     libucrt:get_qualified_locale.obj
 0002:00003bd4       ??_C@_1CG@IOBJPACO@?$AAc?$AAh?$AAi?$AAn?$AAe?$AAs?$AAe?$AA?9?$AAs?$AAi?$AAm?$AAp?$AAl?$AAi?$AAf@ 00444bd4     libucrt:get_qualified_locale.obj
 0002:00003bfc       ??_C@_1CE@GAJNDCKG@?$AAc?$AAh?$AAi?$AAn?$AAe?$AAs?$AAe?$AA?9?$AAs?$AAi?$AAn?$AAg?$AAa?$AAp?$AAo@ 00444bfc     libucrt:get_qualified_locale.obj
 0002:00003c20       ??_C@_1CI@PAJPIOOD@?$AAc?$AAh?$AAi?$AAn?$AAe?$AAs?$AAe?$AA?9?$AAt?$AAr?$AAa?$AAd?$AAi?$AAt?$AAi@ 00444c20     libucrt:get_qualified_locale.obj
 0002:00003c48       ??_C@_1BM@NILJBMMD@?$AAd?$AAu?$AAt?$AAc?$AAh?$AA?9?$AAb?$AAe?$AAl?$AAg?$AAi?$AAa?$AAn@ 00444c48     libucrt:get_qualified_locale.obj
 0002:00003c64       ??_C@_1CC@OOJPJNEJ@?$AAe?$AAn?$AAg?$AAl?$AAi?$AAs?$AAh?$AA?9?$AAa?$AAm?$AAe?$AAr?$AAi?$AAc?$AAa@ 00444c64     libucrt:get_qualified_locale.obj
 0002:00003c88       ??_C@_1BI@IOLFEEM@?$AAe?$AAn?$AAg?$AAl?$AAi?$AAs?$AAh?$AA?9?$AAa?$AAu?$AAs@ 00444c88     libucrt:get_qualified_locale.obj
 0002:00003ca0       ??_C@_1BO@HFFNLENJ@?$AAe?$AAn?$AAg?$AAl?$AAi?$AAs?$AAh?$AA?9?$AAb?$AAe?$AAl?$AAi?$AAz?$AAe@ 00444ca0     libucrt:get_qualified_locale.obj
 0002:00003cc0       ??_C@_1BI@HAPKJMPO@?$AAe?$AAn?$AAg?$AAl?$AAi?$AAs?$AAh?$AA?9?$AAc?$AAa?$AAn@ 00444cc0     libucrt:get_qualified_locale.obj
 0002:00003cd8       ??_C@_1CE@HLNDMIOJ@?$AAe?$AAn?$AAg?$AAl?$AAi?$AAs?$AAh?$AA?9?$AAc?$AAa?$AAr?$AAi?$AAb?$AAb?$AAe@ 00444cd8     libucrt:get_qualified_locale.obj
 0002:00003cfc       ??_C@_1BI@LDHJHHAC@?$AAe?$AAn?$AAg?$AAl?$AAi?$AAs?$AAh?$AA?9?$AAi?$AAr?$AAe@ 00444cfc     libucrt:get_qualified_locale.obj
 0002:00003d14       ??_C@_1CA@NJMMCFOC@?$AAe?$AAn?$AAg?$AAl?$AAi?$AAs?$AAh?$AA?9?$AAj?$AAa?$AAm?$AAa?$AAi?$AAc?$AAa@ 00444d14     libucrt:get_qualified_locale.obj
 0002:00003d34       ??_C@_1BG@BHJEBBGG@?$AAe?$AAn?$AAg?$AAl?$AAi?$AAs?$AAh?$AA?9?$AAn?$AAz@ 00444d34     libucrt:get_qualified_locale.obj
 0002:00003d4c       ??_C@_1CK@FGOEJJCO@?$AAe?$AAn?$AAg?$AAl?$AAi?$AAs?$AAh?$AA?9?$AAs?$AAo?$AAu?$AAt?$AAh?$AA?5?$AAa@ 00444d4c     libucrt:get_qualified_locale.obj
 0002:00003d78       ??_C@_1DE@PDBJPCJ@?$AAe?$AAn?$AAg?$AAl?$AAi?$AAs?$AAh?$AA?9?$AAt?$AAr?$AAi?$AAn?$AAi?$AAd?$AAa@ 00444d78     libucrt:get_qualified_locale.obj
 0002:00003dac       ??_C@_1BG@JGCANDME@?$AAe?$AAn?$AAg?$AAl?$AAi?$AAs?$AAh?$AA?9?$AAu?$AAk@ 00444dac     libucrt:get_qualified_locale.obj
 0002:00003dc4       ??_C@_1BG@DINKMLE@?$AAe?$AAn?$AAg?$AAl?$AAi?$AAs?$AAh?$AA?9?$AAu?$AAs@ 00444dc4     libucrt:get_qualified_locale.obj
 0002:00003ddc       ??_C@_1BI@NMFDBHJE@?$AAe?$AAn?$AAg?$AAl?$AAi?$AAs?$AAh?$AA?9?$AAu?$AAs?$AAa@ 00444ddc     libucrt:get_qualified_locale.obj
 0002:00003df4       ??_C@_1BO@OIHKJKII@?$AAf?$AAr?$AAe?$AAn?$AAc?$AAh?$AA?9?$AAb?$AAe?$AAl?$AAg?$AAi?$AAa?$AAn@ 00444df4     libucrt:get_qualified_locale.obj
 0002:00003e14       ??_C@_1CA@NKAELJKI@?$AAf?$AAr?$AAe?$AAn?$AAc?$AAh?$AA?9?$AAc?$AAa?$AAn?$AAa?$AAd?$AAi?$AAa?$AAn@ 00444e14     libucrt:get_qualified_locale.obj
 0002:00003e34       ??_C@_1CE@MGKCNLGN@?$AAf?$AAr?$AAe?$AAn?$AAc?$AAh?$AA?9?$AAl?$AAu?$AAx?$AAe?$AAm?$AAb?$AAo?$AAu@ 00444e34     libucrt:get_qualified_locale.obj
 0002:00003e58       ??_C@_1BK@CEGEAILM@?$AAf?$AAr?$AAe?$AAn?$AAc?$AAh?$AA?9?$AAs?$AAw?$AAi?$AAs?$AAs@ 00444e58     libucrt:get_qualified_locale.obj
 0002:00003e74       ??_C@_1CA@PAFKEOCC@?$AAg?$AAe?$AAr?$AAm?$AAa?$AAn?$AA?9?$AAa?$AAu?$AAs?$AAt?$AAr?$AAi?$AAa?$AAn@ 00444e74     libucrt:get_qualified_locale.obj
 0002:00003e94       ??_C@_1CI@HCFHGOFD@?$AAg?$AAe?$AAr?$AAm?$AAa?$AAn?$AA?9?$AAl?$AAi?$AAc?$AAh?$AAt?$AAe?$AAn?$AAs@ 00444e94     libucrt:get_qualified_locale.obj
 0002:00003ebc       ??_C@_1CE@FEDDNPDG@?$AAg?$AAe?$AAr?$AAm?$AAa?$AAn?$AA?9?$AAl?$AAu?$AAx?$AAe?$AAm?$AAb?$AAo?$AAu@ 00444ebc     libucrt:get_qualified_locale.obj
 0002:00003ee0       ??_C@_1BK@LIMINNMN@?$AAg?$AAe?$AAr?$AAm?$AAa?$AAn?$AA?9?$AAs?$AAw?$AAi?$AAs?$AAs@ 00444ee0     libucrt:get_qualified_locale.obj
 0002:00003efc       ??_C@_1BM@LGMDBEPD@?$AAi?$AAr?$AAi?$AAs?$AAh?$AA?9?$AAe?$AAn?$AAg?$AAl?$AAi?$AAs?$AAh@ 00444efc     libucrt:get_qualified_locale.obj
 0002:00003f18       ??_C@_1BM@NNCFBAEE@?$AAi?$AAt?$AAa?$AAl?$AAi?$AAa?$AAn?$AA?9?$AAs?$AAw?$AAi?$AAs?$AAs@ 00444f18     libucrt:get_qualified_locale.obj
 0002:00003f34       ??_C@_1BE@FEDJNPIB@?$AAn?$AAo?$AAr?$AAw?$AAe?$AAg?$AAi?$AAa?$AAn@ 00444f34     libucrt:get_qualified_locale.obj
 0002:00003f48       ??_C@_1CC@CILKDEIE@?$AAn?$AAo?$AAr?$AAw?$AAe?$AAg?$AAi?$AAa?$AAn?$AA?9?$AAb?$AAo?$AAk?$AAm?$AAa@ 00444f48     libucrt:get_qualified_locale.obj
 0002:00003f6c       ??_C@_1CE@DHMMHEPL@?$AAn?$AAo?$AAr?$AAw?$AAe?$AAg?$AAi?$AAa?$AAn?$AA?9?$AAn?$AAy?$AAn?$AAo?$AAr@ 00444f6c     libucrt:get_qualified_locale.obj
 0002:00003f90       ??_C@_1CK@OPNMHECD@?$AAp?$AAo?$AAr?$AAt?$AAu?$AAg?$AAu?$AAe?$AAs?$AAe?$AA?9?$AAb?$AAr?$AAa?$AAz@ 00444f90     libucrt:get_qualified_locale.obj
 0002:00003fbc       ??_C@_1CE@KEEHCDB@?$AAs?$AAp?$AAa?$AAn?$AAi?$AAs?$AAh?$AA?9?$AAa?$AAr?$AAg?$AAe?$AAn?$AAt?$AAi@ 00444fbc     libucrt:get_qualified_locale.obj
 0002:00003fe0       ??_C@_1CA@GIAOLHJD@?$AAs?$AAp?$AAa?$AAn?$AAi?$AAs?$AAh?$AA?9?$AAb?$AAo?$AAl?$AAi?$AAv?$AAi?$AAa@ 00444fe0     libucrt:get_qualified_locale.obj
 0002:00004000       ??_C@_1BM@OJNDFNPD@?$AAs?$AAp?$AAa?$AAn?$AAi?$AAs?$AAh?$AA?9?$AAc?$AAh?$AAi?$AAl?$AAe@ 00445000     libucrt:get_qualified_locale.obj
 0002:0000401c       ??_C@_1CC@OCOLPALL@?$AAs?$AAp?$AAa?$AAn?$AAi?$AAs?$AAh?$AA?9?$AAc?$AAo?$AAl?$AAo?$AAm?$AAb?$AAi@ 0044501c     libucrt:get_qualified_locale.obj
 0002:00004040       ??_C@_1CG@BPOFMKBB@?$AAs?$AAp?$AAa?$AAn?$AAi?$AAs?$AAh?$AA?9?$AAc?$AAo?$AAs?$AAt?$AAa?$AA?5?$AAr@ 00445040     libucrt:get_qualified_locale.obj
 0002:00004068       ??_C@_1DG@IGOBAPBB@?$AAs?$AAp?$AAa?$AAn?$AAi?$AAs?$AAh?$AA?9?$AAd?$AAo?$AAm?$AAi?$AAn?$AAi?$AAc@ 00445068     libucrt:get_qualified_locale.obj
 0002:000040a0       ??_C@_1CA@JHAPGEGI@?$AAs?$AAp?$AAa?$AAn?$AAi?$AAs?$AAh?$AA?9?$AAe?$AAc?$AAu?$AAa?$AAd?$AAo?$AAr@ 004450a0     libucrt:get_qualified_locale.obj
 0002:000040c0       ??_C@_1CI@LAPALJPP@?$AAs?$AAp?$AAa?$AAn?$AAi?$AAs?$AAh?$AA?9?$AAe?$AAl?$AA?5?$AAs?$AAa?$AAl?$AAv@ 004450c0     libucrt:get_qualified_locale.obj
 0002:000040e8       ??_C@_1CE@PDGBOFOM@?$AAs?$AAp?$AAa?$AAn?$AAi?$AAs?$AAh?$AA?9?$AAg?$AAu?$AAa?$AAt?$AAe?$AAm?$AAa@ 004450e8     libucrt:get_qualified_locale.obj
 0002:0000410c       ??_C@_1CC@NBEBAODI@?$AAs?$AAp?$AAa?$AAn?$AAi?$AAs?$AAh?$AA?9?$AAh?$AAo?$AAn?$AAd?$AAu?$AAr?$AAa@ 0044510c     libucrt:get_qualified_locale.obj
 0002:00004130       ??_C@_1CA@LLKGHBMF@?$AAs?$AAp?$AAa?$AAn?$AAi?$AAs?$AAh?$AA?9?$AAm?$AAe?$AAx?$AAi?$AAc?$AAa?$AAn@ 00445130     libucrt:get_qualified_locale.obj
 0002:00004150       ??_C@_1BO@LKNDOIGD@?$AAs?$AAp?$AAa?$AAn?$AAi?$AAs?$AAh?$AA?9?$AAm?$AAo?$AAd?$AAe?$AAr?$AAn@ 00445150     libucrt:get_qualified_locale.obj
 0002:00004170       ??_C@_1CE@NMDMOEEB@?$AAs?$AAp?$AAa?$AAn?$AAi?$AAs?$AAh?$AA?9?$AAn?$AAi?$AAc?$AAa?$AAr?$AAa?$AAg@ 00445170     libucrt:get_qualified_locale.obj
 0002:00004194       ??_C@_1BO@LLCBEJGB@?$AAs?$AAp?$AAa?$AAn?$AAi?$AAs?$AAh?$AA?9?$AAp?$AAa?$AAn?$AAa?$AAm?$AAa@ 00445194     libucrt:get_qualified_locale.obj
 0002:000041b4       ??_C@_1CC@FKPGGIHO@?$AAs?$AAp?$AAa?$AAn?$AAi?$AAs?$AAh?$AA?9?$AAp?$AAa?$AAr?$AAa?$AAg?$AAu?$AAa@ 004451b4     libucrt:get_qualified_locale.obj
 0002:000041d8       ??_C@_1BK@CDEIHOOP@?$AAs?$AAp?$AAa?$AAn?$AAi?$AAs?$AAh?$AA?9?$AAp?$AAe?$AAr?$AAu@ 004451d8     libucrt:get_qualified_locale.obj
 0002:000041f4       ??_C@_1CI@GAHAKKGP@?$AAs?$AAp?$AAa?$AAn?$AAi?$AAs?$AAh?$AA?9?$AAp?$AAu?$AAe?$AAr?$AAt?$AAo?$AA?5@ 004451f4     libucrt:get_qualified_locale.obj
 0002:0000421c       ??_C@_1CA@NKJBCAGP@?$AAs?$AAp?$AAa?$AAn?$AAi?$AAs?$AAh?$AA?9?$AAu?$AAr?$AAu?$AAg?$AAu?$AAa?$AAy@ 0044521c     libucrt:get_qualified_locale.obj
 0002:0000423c       ??_C@_1CE@ODILCONM@?$AAs?$AAp?$AAa?$AAn?$AAi?$AAs?$AAh?$AA?9?$AAv?$AAe?$AAn?$AAe?$AAz?$AAu?$AAe@ 0044523c     libucrt:get_qualified_locale.obj
 0002:00004260       ??_C@_1CA@OBNMCGFO@?$AAs?$AAw?$AAe?$AAd?$AAi?$AAs?$AAh?$AA?9?$AAf?$AAi?$AAn?$AAl?$AAa?$AAn?$AAd@ 00445260     libucrt:get_qualified_locale.obj
 0002:00004280       ??_C@_1M@PIPDDPPI@?$AAs?$AAw?$AAi?$AAs?$AAs@ 00445280     libucrt:get_qualified_locale.obj
 0002:0000428c       ??_C@_15PJPFLCCM@?$AAu?$AAk@ 0044528c     libucrt:get_qualified_locale.obj
 0002:00004294       ??_C@_15GMFIMNFM@?$AAu?$AAs@ 00445294     libucrt:get_qualified_locale.obj
 0002:0000429c       ??_C@_17HAEBFAGL@?$AAu?$AAs?$AAa@ 0044529c     libucrt:get_qualified_locale.obj
 0002:000042a4       ??_C@_1BA@DPFJEPHB@?$AAa?$AAm?$AAe?$AAr?$AAi?$AAc?$AAa@ 004452a4     libucrt:get_qualified_locale.obj
 0002:000042b4       ??_C@_1BA@ELOGGFK@?$AAb?$AAr?$AAi?$AAt?$AAa?$AAi?$AAn@ 004452b4     libucrt:get_qualified_locale.obj
 0002:000042c4       ??_C@_1M@GHBGIGDA@?$AAc?$AAh?$AAi?$AAn?$AAa@ 004452c4     libucrt:get_qualified_locale.obj
 0002:000042d0       ??_C@_1M@NCHEJOPO@?$AAc?$AAz?$AAe?$AAc?$AAh@ 004452d0     libucrt:get_qualified_locale.obj
 0002:000042dc       ??_C@_1BA@BKPAPBLA@?$AAe?$AAn?$AAg?$AAl?$AAa?$AAn?$AAd@ 004452dc     libucrt:get_qualified_locale.obj
 0002:000042ec       ??_C@_1BM@HKBCKIPC@?$AAg?$AAr?$AAe?$AAa?$AAt?$AA?5?$AAb?$AAr?$AAi?$AAt?$AAa?$AAi?$AAn@ 004452ec     libucrt:get_qualified_locale.obj
 0002:00004308       ??_C@_1BA@PPCHPGJB@?$AAh?$AAo?$AAl?$AAl?$AAa?$AAn?$AAd@ 00445308     libucrt:get_qualified_locale.obj
 0002:00004318       ??_C@_1BE@JBMPEGDG@?$AAh?$AAo?$AAn?$AAg?$AA?9?$AAk?$AAo?$AAn?$AAg@ 00445318     libucrt:get_qualified_locale.obj
 0002:0000432c       ??_C@_1BI@KOELBBPJ@?$AAn?$AAe?$AAw?$AA?9?$AAz?$AAe?$AAa?$AAl?$AAa?$AAn?$AAd@ 0044532c     libucrt:get_qualified_locale.obj
 0002:00004344       ??_C@_15HIEBHAIO@?$AAn?$AAz@ 00445344     libucrt:get_qualified_locale.obj
 0002:0000434c       ??_C@_1BC@CHBCPFPI@?$AAp?$AAr?$AA?5?$AAc?$AAh?$AAi?$AAn?$AAa@ 0044534c     libucrt:get_qualified_locale.obj
 0002:00004360       ??_C@_1BC@JAOIIFKD@?$AAp?$AAr?$AA?9?$AAc?$AAh?$AAi?$AAn?$AAa@ 00445360     libucrt:get_qualified_locale.obj
 0002:00004374       ??_C@_1BI@BEHPPHKC@?$AAp?$AAu?$AAe?$AAr?$AAt?$AAo?$AA?9?$AAr?$AAi?$AAc?$AAo@ 00445374     libucrt:get_qualified_locale.obj
 0002:0000438c       ??_C@_1O@PAEOFKDI@?$AAs?$AAl?$AAo?$AAv?$AAa?$AAk@ 0044538c     libucrt:get_qualified_locale.obj
 0002:0000439c       ??_C@_1BK@FIHMCKAM@?$AAs?$AAo?$AAu?$AAt?$AAh?$AA?5?$AAa?$AAf?$AAr?$AAi?$AAc?$AAa@ 0044539c     libucrt:get_qualified_locale.obj
 0002:000043b8       ??_C@_1BI@NAEOODKB@?$AAs?$AAo?$AAu?$AAt?$AAh?$AA?5?$AAk?$AAo?$AAr?$AAe?$AAa@ 004453b8     libucrt:get_qualified_locale.obj
 0002:000043d0       ??_C@_1BK@FBDGGIFF@?$AAs?$AAo?$AAu?$AAt?$AAh?$AA?9?$AAa?$AAf?$AAr?$AAi?$AAc?$AAa@ 004453d0     libucrt:get_qualified_locale.obj
 0002:000043ec       ??_C@_1BI@GHLEJDPK@?$AAs?$AAo?$AAu?$AAt?$AAh?$AA?9?$AAk?$AAo?$AAr?$AAe?$AAa@ 004453ec     libucrt:get_qualified_locale.obj
 0002:00004404       ??_C@_1CE@PLHLOMJF@?$AAt?$AAr?$AAi?$AAn?$AAi?$AAd?$AAa?$AAd?$AA?5?$AA?$CG?$AA?5?$AAt?$AAo?$AAb?$AAa@ 00445404     libucrt:get_qualified_locale.obj
 0002:00004428       ??_C@_1BO@MODIMHHI@?$AAu?$AAn?$AAi?$AAt?$AAe?$AAd?$AA?9?$AAk?$AAi?$AAn?$AAg?$AAd?$AAo?$AAm@ 00445428     libucrt:get_qualified_locale.obj
 0002:00004448       ??_C@_1BM@FFHJONBJ@?$AAu?$AAn?$AAi?$AAt?$AAe?$AAd?$AA?9?$AAs?$AAt?$AAa?$AAt?$AAe?$AAs@ 00445448     libucrt:get_qualified_locale.obj
 0002:00004464       ??_C@_19MPDNHKDG@?$AAu?$AAt?$AAf?$AA8@ 00445464     libucrt:get_qualified_locale.obj
 0002:00004470       ??_C@_17DNCLJFIF@?$AAA?$AAC?$AAP@ 00445470     libucrt:get_qualified_locale.obj
 0002:00004478       ??_C@_1M@FPEIIFAM@?$AAu?$AAt?$AAf?$AA?9?$AA8@ 00445478     libucrt:get_qualified_locale.obj
 0002:00004484       ??_C@_17CIKBIHLH@?$AAO?$AAC?$AAP@ 00445484     libucrt:get_qualified_locale.obj
 0002:0000448c       ___rglangidNotDefault      0044548c     libucrt:getqloc_downlevel.obj
 0002:00004bc8       ??_C@_15EMKDOKLE@?$AAa?$AAr@ 00445bc8     libucrt:lcidtoname_downlevel.obj
 0002:00004bd0       ??_C@_15KNPADPLH@?$AAb?$AAg@ 00445bd0     libucrt:lcidtoname_downlevel.obj
 0002:00004bd8       ??_C@_15EDMHLDMO@?$AAc?$AAa@ 00445bd8     libucrt:lcidtoname_downlevel.obj
 0002:00004be0       ??_C@_1O@BPEAJADD@?$AAz?$AAh?$AA?9?$AAC?$AAH?$AAS@ 00445be0     libucrt:lcidtoname_downlevel.obj
 0002:00004bf0       ??_C@_15LJNHCMNK@?$AAc?$AAs@ 00445bf0     libucrt:lcidtoname_downlevel.obj
 0002:00004bf8       ??_C@_15FOMCIDHG@?$AAd?$AAa@ 00445bf8     libucrt:lcidtoname_downlevel.obj
 0002:00004c00       ??_C@_15NBKABECB@?$AAd?$AAe@ 00445c00     libucrt:lcidtoname_downlevel.obj
 0002:00004c08       ??_C@_15GHPEIIAO@?$AAe?$AAl@ 00445c08     libucrt:lcidtoname_downlevel.obj
 0002:00004c10       ??_C@_15MNPNEAIF@?$AAe?$AAn@ 00445c10     libucrt:lcidtoname_downlevel.obj
 0002:00004c18       ??_C@_15GPIOMPMH@?$AAe?$AAs@ 00445c18     libucrt:lcidtoname_downlevel.obj
 0002:00004c20       ??_C@_15NGLOAKJC@?$AAf?$AAi@ 00445c20     libucrt:lcidtoname_downlevel.obj
 0002:00004c28       ??_C@_15FBKGNKAM@?$AAf?$AAr@ 00445c28     libucrt:lcidtoname_downlevel.obj
 0002:00004c30       ??_C@_15KGGCNEFK@?$AAh?$AAe@ 00445c30     libucrt:lcidtoname_downlevel.obj
 0002:00004c38       ??_C@_15PGHLIDMF@?$AAh?$AAu@ 00445c38     libucrt:lcidtoname_downlevel.obj
 0002:00004c40       ??_C@_15BIEMAPLM@?$AAi?$AAs@ 00445c40     libucrt:lcidtoname_downlevel.obj
 0002:00004c48       ??_C@_15IFJLDHAF@?$AAi?$AAt@ 00445c48     libucrt:lcidtoname_downlevel.obj
 0002:00004c50       ??_C@_15GEMIOCAG@?$AAj?$AAa@ 00445c50     libucrt:lcidtoname_downlevel.obj
 0002:00004c58       ??_C@_15EPELEGJA@?$AAk?$AAo@ 00445c58     libucrt:lcidtoname_downlevel.obj
 0002:00004c60       ??_C@_15NDDHIMN@?$AAn?$AAl@ 00445c60     libucrt:lcidtoname_downlevel.obj
 0002:00004c68       ??_C@_15BPIGNHCD@?$AAn?$AAo@ 00445c68     libucrt:lcidtoname_downlevel.obj
 0002:00004c70       ??_C@_15DEOPBLCG@?$AAp?$AAl@ 00445c70     libucrt:lcidtoname_downlevel.obj
 0002:00004c78       ??_C@_15KBECGEFG@?$AAp?$AAt@ 00445c78     libucrt:lcidtoname_downlevel.obj
 0002:00004c80       ??_C@_15GLJCBFMD@?$AAr?$AAo@ 00445c80     libucrt:lcidtoname_downlevel.obj
 0002:00004c88       ??_C@_15FEDGKCDI@?$AAr?$AAu@ 00445c88     libucrt:lcidtoname_downlevel.obj
 0002:00004c90       ??_C@_15GLKMLLHM@?$AAh?$AAr@ 00445c90     libucrt:lcidtoname_downlevel.obj
 0002:00004c98       ??_C@_15CPKMFBDB@?$AAs?$AAk@ 00445c98     libucrt:lcidtoname_downlevel.obj
 0002:00004ca0       ??_C@_15BAAIOGMK@?$AAs?$AAq@ 00445ca0     libucrt:lcidtoname_downlevel.obj
 0002:00004ca8       ??_C@_15INNPNOHD@?$AAs?$AAv@ 00445ca8     libucrt:lcidtoname_downlevel.obj
 0002:00004cb0       ??_C@_15CABMMOGH@?$AAt?$AAh@ 00445cb0     libucrt:lcidtoname_downlevel.obj
 0002:00004cb8       ??_C@_15BPLIHJJM@?$AAt?$AAr@ 00445cb8     libucrt:lcidtoname_downlevel.obj
 0002:00004cc0       ??_C@_15NEOEKKDJ@?$AAu?$AAr@ 00445cc0     libucrt:lcidtoname_downlevel.obj
 0002:00004cc8       ??_C@_15NFICGAJK@?$AAi?$AAd@ 00445cc8     libucrt:lcidtoname_downlevel.obj
 0002:00004cd0       ??_C@_15HPJPHDM@?$AAb?$AAe@ 00445cd0     libucrt:lcidtoname_downlevel.obj
 0002:00004cd8       ??_C@_15LCHLGJII@?$AAs?$AAl@ 00445cd8     libucrt:lcidtoname_downlevel.obj
 0002:00004ce0       ??_C@_15PCFJPHHO@?$AAe?$AAt@ 00445ce0     libucrt:lcidtoname_downlevel.obj
 0002:00004ce8       ??_C@_15HPFPGODN@?$AAl?$AAv@ 00445ce8     libucrt:lcidtoname_downlevel.obj
 0002:00004cf0       ??_C@_15NFFGKGLG@?$AAl?$AAt@ 00445cf0     libucrt:lcidtoname_downlevel.obj
 0002:00004cf8       ??_C@_15BDAKCCHN@?$AAf?$AAa@ 00445cf8     libucrt:lcidtoname_downlevel.obj
 0002:00004d00       ??_C@_15NFGIAIAJ@?$AAv?$AAi@ 00445d00     libucrt:lcidtoname_downlevel.obj
 0002:00004d08       ??_C@_15LMKNDMHN@?$AAh?$AAy@ 00445d08     libucrt:lcidtoname_downlevel.obj
 0002:00004d10       ??_C@_15IJBHMCFL@?$AAa?$AAz@ 00445d10     libucrt:lcidtoname_downlevel.obj
 0002:00004d18       ??_C@_15EKOFJABL@?$AAe?$AAu@ 00445d18     libucrt:lcidtoname_downlevel.obj
 0002:00004d20       ??_C@_15BGHADCNK@?$AAm?$AAk@ 00445d20     libucrt:lcidtoname_downlevel.obj
 0002:00004d28       ??_C@_15JDNICKHM@?$AAa?$AAf@ 00445d28     libucrt:lcidtoname_downlevel.obj
 0002:00004d30       ??_C@_15KPJEDBKD@?$AAk?$AAa@ 00445d30     libucrt:lcidtoname_downlevel.obj
 0002:00004d38       ??_C@_15PDNFFFEO@?$AAf?$AAo@ 00445d38     libucrt:lcidtoname_downlevel.obj
 0002:00004d40       ??_C@_15OMLEGLOC@?$AAh?$AAi@ 00445d40     libucrt:lcidtoname_downlevel.obj
 0002:00004d48       ??_C@_15IDNNENKK@?$AAm?$AAs@ 00445d48     libucrt:lcidtoname_downlevel.obj
 0002:00004d50       ??_C@_15MACJNBMH@?$AAk?$AAk@ 00445d50     libucrt:lcidtoname_downlevel.obj
 0002:00004d58       ??_C@_15DKDJEOND@?$AAk?$AAy@ 00445d58     libucrt:lcidtoname_downlevel.obj
 0002:00004d60       ??_C@_15DFGDLJBG@?$AAs?$AAw@ 00445d60     libucrt:lcidtoname_downlevel.obj
 0002:00004d68       ??_C@_15BBFAICNG@?$AAu?$AAz@ 00445d68     libucrt:lcidtoname_downlevel.obj
 0002:00004d70       ??_C@_15DKNDCGEA@?$AAt?$AAt@ 00445d70     libucrt:lcidtoname_downlevel.obj
 0002:00004d78       ??_C@_15MGIFMDPL@?$AAp?$AAa@ 00445d78     libucrt:lcidtoname_downlevel.obj
 0002:00004d80       ??_C@_15HCNDBBA@?$AAg?$AAu@ 00445d80     libucrt:lcidtoname_downlevel.obj
 0002:00004d88       ??_C@_15FNBEIBON@?$AAt?$AAa@ 00445d88     libucrt:lcidtoname_downlevel.obj
 0002:00004d90       ??_C@_15NCHGBGLK@?$AAt?$AAe@ 00445d90     libucrt:lcidtoname_downlevel.obj
 0002:00004d98       ??_C@_15PHPHCBPF@?$AAk?$AAn@ 00445d98     libucrt:lcidtoname_downlevel.obj
 0002:00004da0       ??_C@_15DLGBCKMP@?$AAm?$AAr@ 00445da0     libucrt:lcidtoname_downlevel.obj
 0002:00004da8       ??_C@_15EABBLBFF@?$AAs?$AAa@ 00445da8     libucrt:lcidtoname_downlevel.obj
 0002:00004db0       ??_C@_15CBKOMCOI@?$AAm?$AAn@ 00445db0     libucrt:lcidtoname_downlevel.obj
 0002:00004db8       ??_C@_15CKDMCJAF@?$AAg?$AAl@ 00445db8     libucrt:lcidtoname_downlevel.obj
 0002:00004dc0       ??_C@_17CNJFBPG@?$AAk?$AAo?$AAk@ 00445dc0     libucrt:lcidtoname_downlevel.obj
 0002:00004dc8       ??_C@_17FFBJICPL@?$AAs?$AAy?$AAr@ 00445dc8     libucrt:lcidtoname_downlevel.obj
 0002:00004dd0       ??_C@_17KPNDCPAF@?$AAd?$AAi?$AAv@ 00445dd0     libucrt:lcidtoname_downlevel.obj
 0002:00004dd8       ??_C@_11LOCGONAA@@         00445dd8     libucrt:lcidtoname_downlevel.obj
 0002:00004ddc       ??_C@_1M@OKAHONE@?$AAa?$AAr?$AA?9?$AAS?$AAA@ 00445ddc     libucrt:lcidtoname_downlevel.obj
 0002:00004de8       ??_C@_1M@FFFIGIGK@?$AAb?$AAg?$AA?9?$AAB?$AAG@ 00445de8     libucrt:lcidtoname_downlevel.obj
 0002:00004df4       ??_C@_1M@BJNKEDC@?$AAc?$AAa?$AA?9?$AAE?$AAS@ 00445df4     libucrt:lcidtoname_downlevel.obj
 0002:00004e00       ??_C@_1M@IJJHFJHA@?$AAc?$AAs?$AA?9?$AAC?$AAZ@ 00445e00     libucrt:lcidtoname_downlevel.obj
 0002:00004e0c       ??_C@_1M@CLPEOBGI@?$AAd?$AAa?$AA?9?$AAD?$AAK@ 00445e0c     libucrt:lcidtoname_downlevel.obj
 0002:00004e18       ??_C@_1M@MCMADGCB@?$AAd?$AAe?$AA?9?$AAD?$AAE@ 00445e18     libucrt:lcidtoname_downlevel.obj
 0002:00004e24       ??_C@_1M@OOCKEMAM@?$AAe?$AAl?$AA?9?$AAG?$AAR@ 00445e24     libucrt:lcidtoname_downlevel.obj
 0002:00004e30       ??_C@_1M@DDNJFGID@?$AAf?$AAi?$AA?9?$AAF?$AAI@ 00445e30     libucrt:lcidtoname_downlevel.obj
 0002:00004e3c       ??_C@_1M@GLIPPMAC@?$AAf?$AAr?$AA?9?$AAF?$AAR@ 00445e3c     libucrt:lcidtoname_downlevel.obj
 0002:00004e48       ??_C@_1M@GFMCHPE@?$AAh?$AAe?$AA?9?$AAI?$AAL@ 00445e48     libucrt:lcidtoname_downlevel.obj
 0002:00004e54       ??_C@_1M@MHLPGNKM@?$AAh?$AAu?$AA?9?$AAH?$AAU@ 00445e54     libucrt:lcidtoname_downlevel.obj
 0002:00004e60       ??_C@_1M@LPDDNNPN@?$AAi?$AAs?$AA?9?$AAI?$AAS@ 00445e60     libucrt:lcidtoname_downlevel.obj
 0002:00004e6c       ??_C@_1M@MADIPODN@?$AAi?$AAt?$AA?9?$AAI?$AAT@ 00445e6c     libucrt:lcidtoname_downlevel.obj
 0002:00004e78       ??_C@_1M@IHBJJGG@?$AAn?$AAl?$AA?9?$AAN?$AAL@ 00445e78     libucrt:lcidtoname_downlevel.obj
 0002:00004e84       ??_C@_1M@EANAGDL@?$AAn?$AAb?$AA?9?$AAN?$AAO@ 00445e84     libucrt:lcidtoname_downlevel.obj
 0002:00004e90       ??_C@_1M@NEIEMEGP@?$AAp?$AAl?$AA?9?$AAP?$AAL@ 00445e90     libucrt:lcidtoname_downlevel.obj
 0002:00004e9c       ??_C@_1M@BOCFIGEP@?$AAp?$AAt?$AA?9?$AAB?$AAR@ 00445e9c     libucrt:lcidtoname_downlevel.obj
 0002:00004ea8       ??_C@_1M@IMPFOPBG@?$AAr?$AAo?$AA?9?$AAR?$AAO@ 00445ea8     libucrt:lcidtoname_downlevel.obj
 0002:00004eb4       ??_C@_1M@IDNNEJMM@?$AAr?$AAu?$AA?9?$AAR?$AAU@ 00445eb4     libucrt:lcidtoname_downlevel.obj
 0002:00004ec0       ??_C@_1M@LILEEOGM@?$AAh?$AAr?$AA?9?$AAH?$AAR@ 00445ec0     libucrt:lcidtoname_downlevel.obj
 0002:00004ecc       ??_C@_1M@FKIFEHPB@?$AAs?$AAk?$AA?9?$AAS?$AAK@ 00445ecc     libucrt:lcidtoname_downlevel.obj
 0002:00004ed8       ??_C@_1M@LJMAMNPJ@?$AAs?$AAq?$AA?9?$AAA?$AAL@ 00445ed8     libucrt:lcidtoname_downlevel.obj
 0002:00004ee4       ??_C@_1M@GIAKDKJK@?$AAs?$AAv?$AA?9?$AAS?$AAE@ 00445ee4     libucrt:lcidtoname_downlevel.obj
 0002:00004ef0       ??_C@_1M@MKJKIKCL@?$AAt?$AAh?$AA?9?$AAT?$AAH@ 00445ef0     libucrt:lcidtoname_downlevel.obj
 0002:00004efc       ??_C@_1M@MFLCCMPB@?$AAt?$AAr?$AA?9?$AAT?$AAR@ 00445efc     libucrt:lcidtoname_downlevel.obj
 0002:00004f08       ??_C@_1M@OIJHDKJN@?$AAu?$AAr?$AA?9?$AAP?$AAK@ 00445f08     libucrt:lcidtoname_downlevel.obj
 0002:00004f14       ??_C@_1M@LHIPCIEK@?$AAi?$AAd?$AA?9?$AAI?$AAD@ 00445f14     libucrt:lcidtoname_downlevel.obj
 0002:00004f20       ??_C@_1M@MFMOBGI@?$AAu?$AAk?$AA?9?$AAU?$AAA@ 00445f20     libucrt:lcidtoname_downlevel.obj
 0002:00004f2c       ??_C@_1M@OBGLJIPL@?$AAb?$AAe?$AA?9?$AAB?$AAY@ 00445f2c     libucrt:lcidtoname_downlevel.obj
 0002:00004f38       ??_C@_1M@BCFAJEAD@?$AAs?$AAl?$AA?9?$AAS?$AAI@ 00445f38     libucrt:lcidtoname_downlevel.obj
 0002:00004f44       ??_C@_1M@FKFFEDDN@?$AAe?$AAt?$AA?9?$AAE?$AAE@ 00445f44     libucrt:lcidtoname_downlevel.obj
 0002:00004f50       ??_C@_1M@KGKKAACI@?$AAl?$AAv?$AA?9?$AAL?$AAV@ 00445f50     libucrt:lcidtoname_downlevel.obj
 0002:00004f5c       ??_C@_1M@IFGBIJO@?$AAl?$AAt?$AA?9?$AAL?$AAT@ 00445f5c     libucrt:lcidtoname_downlevel.obj
 0002:00004f68       ??_C@_1M@FGEAHEDM@?$AAf?$AAa?$AA?9?$AAI?$AAR@ 00445f68     libucrt:lcidtoname_downlevel.obj
 0002:00004f74       ??_C@_1M@KBMAIBFN@?$AAv?$AAi?$AA?9?$AAV?$AAN@ 00445f74     libucrt:lcidtoname_downlevel.obj
 0002:00004f80       ??_C@_1M@GPCBKDJK@?$AAh?$AAy?$AA?9?$AAA?$AAM@ 00445f80     libucrt:lcidtoname_downlevel.obj
 0002:00004f8c       ??_C@_1BG@BECMDDJB@?$AAa?$AAz?$AA?9?$AAA?$AAZ?$AA?9?$AAL?$AAa?$AAt?$AAn@ 00445f8c     libucrt:lcidtoname_downlevel.obj
 0002:00004fa4       ??_C@_1M@MAOFCAEA@?$AAe?$AAu?$AA?9?$AAE?$AAS@ 00445fa4     libucrt:lcidtoname_downlevel.obj
 0002:00004fb0       ??_C@_1M@IGHABKPI@?$AAm?$AAk?$AA?9?$AAM?$AAK@ 00445fb0     libucrt:lcidtoname_downlevel.obj
 0002:00004fbc       ??_C@_1M@IAIGNEJG@?$AAt?$AAn?$AA?9?$AAZ?$AAA@ 00445fbc     libucrt:lcidtoname_downlevel.obj
 0002:00004fc8       ??_C@_1M@IIJCOJFA@?$AAx?$AAh?$AA?9?$AAZ?$AAA@ 00445fc8     libucrt:lcidtoname_downlevel.obj
 0002:00004fd4       ??_C@_1M@LGPJHNJH@?$AAz?$AAu?$AA?9?$AAZ?$AAA@ 00445fd4     libucrt:lcidtoname_downlevel.obj
 0002:00004fe0       ??_C@_1M@HOKAOIO@?$AAa?$AAf?$AA?9?$AAZ?$AAA@ 00445fe0     libucrt:lcidtoname_downlevel.obj
 0002:00004fec       ??_C@_1M@DPCLHLIE@?$AAk?$AAa?$AA?9?$AAG?$AAE@ 00445fec     libucrt:lcidtoname_downlevel.obj
 0002:00004ff8       ??_C@_1M@BLKMHJBI@?$AAf?$AAo?$AA?9?$AAF?$AAO@ 00445ff8     libucrt:lcidtoname_downlevel.obj
 0002:00005004       ??_C@_1M@LGGJAPPB@?$AAh?$AAi?$AA?9?$AAI?$AAN@ 00446004     libucrt:lcidtoname_downlevel.obj
 0002:00005010       ??_C@_1M@FIKPIHFE@?$AAm?$AAt?$AA?9?$AAM?$AAT@ 00446010     libucrt:lcidtoname_downlevel.obj
 0002:0000501c       ??_C@_1M@HEGGPBFA@?$AAs?$AAe?$AA?9?$AAN?$AAO@ 0044601c     libucrt:lcidtoname_downlevel.obj
 0002:00005028       ??_C@_1M@EIBJEEPA@?$AAm?$AAs?$AA?9?$AAM?$AAY@ 00446028     libucrt:lcidtoname_downlevel.obj
 0002:00005034       ??_C@_1M@FHLBGMPP@?$AAk?$AAk?$AA?9?$AAK?$AAZ@ 00446034     libucrt:lcidtoname_downlevel.obj
 0002:00005040       ??_C@_1M@NGJJLCGI@?$AAk?$AAy?$AA?9?$AAK?$AAG@ 00446040     libucrt:lcidtoname_downlevel.obj
 0002:0000504c       ??_C@_1M@GIENNBFC@?$AAs?$AAw?$AA?9?$AAK?$AAE@ 0044604c     libucrt:lcidtoname_downlevel.obj
 0002:00005058       ??_C@_1BG@NDGMJIMJ@?$AAu?$AAz?$AA?9?$AAU?$AAZ?$AA?9?$AAL?$AAa?$AAt?$AAn@ 00446058     libucrt:lcidtoname_downlevel.obj
 0002:00005070       ??_C@_1M@IDCCIHBC@?$AAt?$AAt?$AA?9?$AAR?$AAU@ 00446070     libucrt:lcidtoname_downlevel.obj
 0002:0000507c       ??_C@_1M@LOICPMOJ@?$AAb?$AAn?$AA?9?$AAI?$AAN@ 0044607c     libucrt:lcidtoname_downlevel.obj
 0002:00005088       ??_C@_1M@KPKKNEAH@?$AAp?$AAa?$AA?9?$AAI?$AAN@ 00446088     libucrt:lcidtoname_downlevel.obj
 0002:00005094       ??_C@_1M@PJGPPBOG@?$AAg?$AAu?$AA?9?$AAI?$AAN@ 00446094     libucrt:lcidtoname_downlevel.obj
 0002:000050a0       ??_C@_1M@KMKMOPHI@?$AAt?$AAa?$AA?9?$AAI?$AAN@ 004460a0     libucrt:lcidtoname_downlevel.obj
 0002:000050ac       ??_C@_1M@KFEHEPAC@?$AAt?$AAe?$AA?9?$AAI?$AAN@ 004460ac     libucrt:lcidtoname_downlevel.obj
 0002:000050b8       ??_C@_1M@CDCLMGHI@?$AAk?$AAn?$AA?9?$AAI?$AAN@ 004460b8     libucrt:lcidtoname_downlevel.obj
 0002:000050c4       ??_C@_1M@MIODLDKF@?$AAm?$AAl?$AA?9?$AAI?$AAN@ 004460c4     libucrt:lcidtoname_downlevel.obj
 0002:000050d0       ??_C@_1M@PBIEACPO@?$AAm?$AAr?$AA?9?$AAI?$AAN@ 004460d0     libucrt:lcidtoname_downlevel.obj
 0002:000050dc       ??_C@_1M@NIDEAGPH@?$AAs?$AAa?$AA?9?$AAI?$AAN@ 004460dc     libucrt:lcidtoname_downlevel.obj
 0002:000050e8       ??_C@_1M@FHIHCBIO@?$AAm?$AAn?$AA?9?$AAM?$AAN@ 004460e8     libucrt:lcidtoname_downlevel.obj
 0002:000050f4       ??_C@_1M@JAIJPENP@?$AAc?$AAy?$AA?9?$AAG?$AAB@ 004460f4     libucrt:lcidtoname_downlevel.obj
 0002:00005100       ??_C@_1M@PHGFBEPN@?$AAg?$AAl?$AA?9?$AAE?$AAS@ 00446100     libucrt:lcidtoname_downlevel.obj
 0002:0000510c       ??_C@_1O@KPIPDNCP@?$AAk?$AAo?$AAk?$AA?9?$AAI?$AAN@ 0044610c     libucrt:lcidtoname_downlevel.obj
 0002:0000511c       ??_C@_1O@KNHJLDJA@?$AAs?$AAy?$AAr?$AA?9?$AAS?$AAY@ 0044611c     libucrt:lcidtoname_downlevel.obj
 0002:0000512c       ??_C@_1O@MKEKBLAH@?$AAd?$AAi?$AAv?$AA?9?$AAM?$AAV@ 0044612c     libucrt:lcidtoname_downlevel.obj
 0002:0000513c       ??_C@_1O@OHDCKDDF@?$AAq?$AAu?$AAz?$AA?9?$AAB?$AAO@ 0044613c     libucrt:lcidtoname_downlevel.obj
 0002:0000514c       ??_C@_1M@LEPJNLFD@?$AAn?$AAs?$AA?9?$AAZ?$AAA@ 0044614c     libucrt:lcidtoname_downlevel.obj
 0002:00005158       ??_C@_1M@OMLEIIJB@?$AAm?$AAi?$AA?9?$AAN?$AAZ@ 00446158     libucrt:lcidtoname_downlevel.obj
 0002:00005164       ??_C@_1M@PMPEAILG@?$AAa?$AAr?$AA?9?$AAI?$AAQ@ 00446164     libucrt:lcidtoname_downlevel.obj
 0002:00005170       ??_C@_1M@CNKPNOEE@?$AAd?$AAe?$AA?9?$AAC?$AAH@ 00446170     libucrt:lcidtoname_downlevel.obj
 0002:0000517c       ??_C@_1M@LKMGMLKO@?$AAe?$AAn?$AA?9?$AAG?$AAB@ 0044617c     libucrt:lcidtoname_downlevel.obj
 0002:00005188       ??_C@_1M@PGKJFFGL@?$AAe?$AAs?$AA?9?$AAM?$AAX@ 00446188     libucrt:lcidtoname_downlevel.obj
 0002:00005194       ??_C@_1M@DNNANBDC@?$AAf?$AAr?$AA?9?$AAB?$AAE@ 00446194     libucrt:lcidtoname_downlevel.obj
 0002:000051a0       ??_C@_1M@HLGMDFHM@?$AAi?$AAt?$AA?9?$AAC?$AAH@ 004461a0     libucrt:lcidtoname_downlevel.obj
 0002:000051ac       ??_C@_1M@CLLBGJH@?$AAn?$AAl?$AA?9?$AAB?$AAE@ 004461ac     libucrt:lcidtoname_downlevel.obj
 0002:000051b8       ??_C@_1M@BODBOGLF@?$AAn?$AAn?$AA?9?$AAN?$AAO@ 004461b8     libucrt:lcidtoname_downlevel.obj
 0002:000051c4       ??_C@_1M@HFFAHKAD@?$AAp?$AAt?$AA?9?$AAP?$AAT@ 004461c4     libucrt:lcidtoname_downlevel.obj
 0002:000051d0       ??_C@_1BG@LNOAKHIE@?$AAs?$AAr?$AA?9?$AAS?$AAP?$AA?9?$AAL?$AAa?$AAt?$AAn@ 004461d0     libucrt:lcidtoname_downlevel.obj
 0002:000051e8       ??_C@_1M@HBMHBGAK@?$AAs?$AAv?$AA?9?$AAF?$AAI@ 004461e8     libucrt:lcidtoname_downlevel.obj
 0002:000051f4       ??_C@_1BG@DGCJGJBE@?$AAa?$AAz?$AA?9?$AAA?$AAZ?$AA?9?$AAC?$AAy?$AAr?$AAl@ 004461f4     libucrt:lcidtoname_downlevel.obj
 0002:0000520c       ??_C@_1M@KEJDAAHB@?$AAs?$AAe?$AA?9?$AAS?$AAE@ 0044620c     libucrt:lcidtoname_downlevel.obj
 0002:00005218       ??_C@_1M@HEIBJJAD@?$AAm?$AAs?$AA?9?$AAB?$AAN@ 00446218     libucrt:lcidtoname_downlevel.obj
 0002:00005224       ??_C@_1BG@PBGJMCEM@?$AAu?$AAz?$AA?9?$AAU?$AAZ?$AA?9?$AAC?$AAy?$AAr?$AAl@ 00446224     libucrt:lcidtoname_downlevel.obj
 0002:0000523c       ??_C@_1O@LAOBCMDF@?$AAq?$AAu?$AAz?$AA?9?$AAE?$AAC@ 0044623c     libucrt:lcidtoname_downlevel.obj
 0002:0000524c       ??_C@_1M@POEEMAIO@?$AAa?$AAr?$AA?9?$AAE?$AAG@ 0044624c     libucrt:lcidtoname_downlevel.obj
 0002:00005258       ??_C@_1M@EFAKDEDL@?$AAz?$AAh?$AA?9?$AAH?$AAK@ 00446258     libucrt:lcidtoname_downlevel.obj
 0002:00005264       ??_C@_1M@HKKIJHGI@?$AAd?$AAe?$AA?9?$AAA?$AAT@ 00446264     libucrt:lcidtoname_downlevel.obj
 0002:00005270       ??_C@_1M@KBFBEHJF@?$AAe?$AAn?$AA?9?$AAA?$AAU@ 00446270     libucrt:lcidtoname_downlevel.obj
 0002:0000527c       ??_C@_1M@MNPLFAAH@?$AAe?$AAs?$AA?9?$AAE?$AAS@ 0044627c     libucrt:lcidtoname_downlevel.obj
 0002:00005288       ??_C@_1M@HJOOJFMA@?$AAf?$AAr?$AA?9?$AAC?$AAA@ 00446288     libucrt:lcidtoname_downlevel.obj
 0002:00005294       ??_C@_1BG@JPOFPNAB@?$AAs?$AAr?$AA?9?$AAS?$AAP?$AA?9?$AAC?$AAy?$AAr?$AAl@ 00446294     libucrt:lcidtoname_downlevel.obj
 0002:000052ac       ??_C@_1M@LNFOCMOB@?$AAs?$AAe?$AA?9?$AAF?$AAI@ 004462ac     libucrt:lcidtoname_downlevel.obj
 0002:000052b8       ??_C@_1O@MGJBOAMB@?$AAq?$AAu?$AAz?$AA?9?$AAP?$AAE@ 004462b8     libucrt:lcidtoname_downlevel.obj
 0002:000052c8       ??_C@_1M@GJINLBOK@?$AAa?$AAr?$AA?9?$AAL?$AAY@ 004462c8     libucrt:lcidtoname_downlevel.obj
 0002:000052d4       ??_C@_1M@GGMNHJNL@?$AAz?$AAh?$AA?9?$AAS?$AAG@ 004462d4     libucrt:lcidtoname_downlevel.obj
 0002:000052e0       ??_C@_1M@HOIKODND@?$AAd?$AAe?$AA?9?$AAL?$AAU@ 004462e0     libucrt:lcidtoname_downlevel.obj
 0002:000052ec       ??_C@_1M@DDOCCGFG@?$AAe?$AAn?$AA?9?$AAC?$AAA@ 004462ec     libucrt:lcidtoname_downlevel.obj
 0002:000052f8       ??_C@_1M@BNOEMJLF@?$AAe?$AAs?$AA?9?$AAG?$AAT@ 004462f8     libucrt:lcidtoname_downlevel.obj
 0002:00005304       ??_C@_1M@EOGNKEK@?$AAf?$AAr?$AA?9?$AAC?$AAH@ 00446304     libucrt:lcidtoname_downlevel.obj
 0002:00005310       ??_C@_1M@FLIDJFHL@?$AAh?$AAr?$AA?9?$AAB?$AAA@ 00446310     libucrt:lcidtoname_downlevel.obj
 0002:0000531c       ??_C@_1O@FMCELNAJ@?$AAs?$AAm?$AAj?$AA?9?$AAN?$AAO@ 0044631c     libucrt:lcidtoname_downlevel.obj
 0002:0000532c       ??_C@_1M@JHGLJMGJ@?$AAa?$AAr?$AA?9?$AAD?$AAZ@ 0044632c     libucrt:lcidtoname_downlevel.obj
 0002:00005338       ??_C@_1M@JKKFDCNP@?$AAz?$AAh?$AA?9?$AAM?$AAO@ 00446338     libucrt:lcidtoname_downlevel.obj
 0002:00005344       ??_C@_1M@GEEFALPE@?$AAd?$AAe?$AA?9?$AAL?$AAI@ 00446344     libucrt:lcidtoname_downlevel.obj
 0002:00005350       ??_C@_1M@IGEOFBG@?$AAe?$AAn?$AA?9?$AAN?$AAZ@ 00446350     libucrt:lcidtoname_downlevel.obj
 0002:0000535c       ??_C@_1M@KDBONEHP@?$AAe?$AAs?$AA?9?$AAC?$AAR@ 0044635c     libucrt:lcidtoname_downlevel.obj
 0002:00005368       ??_C@_1M@FHMDOHNN@?$AAf?$AAr?$AA?9?$AAL?$AAU@ 00446368     libucrt:lcidtoname_downlevel.obj
 0002:00005374       ??_C@_1BG@NFKKMAFG@?$AAb?$AAs?$AA?9?$AAB?$AAA?$AA?9?$AAL?$AAa?$AAt?$AAn@ 00446374     libucrt:lcidtoname_downlevel.obj
 0002:0000538c       ??_C@_1O@IMNBEMCI@?$AAs?$AAm?$AAj?$AA?9?$AAS?$AAE@ 0044638c     libucrt:lcidtoname_downlevel.obj
 0002:0000539c       ??_C@_1M@DHHMBNDP@?$AAa?$AAr?$AA?9?$AAM?$AAA@ 0044639c     libucrt:lcidtoname_downlevel.obj
 0002:000053a8       ??_C@_1M@BNBLJCGH@?$AAe?$AAn?$AA?9?$AAI?$AAE@ 004463a8     libucrt:lcidtoname_downlevel.obj
 0002:000053b4       ??_C@_1M@GEPAFMDL@?$AAe?$AAs?$AA?9?$AAP?$AAA@ 004463b4     libucrt:lcidtoname_downlevel.obj
 0002:000053c0       ??_C@_1M@OJONDMDL@?$AAf?$AAr?$AA?9?$AAM?$AAC@ 004463c0     libucrt:lcidtoname_downlevel.obj
 0002:000053cc       ??_C@_1BG@OBCNFJB@?$AAs?$AAr?$AA?9?$AAB?$AAA?$AA?9?$AAL?$AAa?$AAt?$AAn@ 004463cc     libucrt:lcidtoname_downlevel.obj
 0002:000053e4       ??_C@_1O@KEMEEGPO@?$AAs?$AAm?$AAa?$AA?9?$AAN?$AAO@ 004463e4     libucrt:lcidtoname_downlevel.obj
 0002:000053f4       ??_C@_1M@ELMGFODK@?$AAa?$AAr?$AA?9?$AAT?$AAN@ 004463f4     libucrt:lcidtoname_downlevel.obj
 0002:00005400       ??_C@_1M@BHDLHFAF@?$AAe?$AAn?$AA?9?$AAZ?$AAA@ 00446400     libucrt:lcidtoname_downlevel.obj
 0002:0000540c       ??_C@_1M@BMGIGLIF@?$AAe?$AAs?$AA?9?$AAD?$AAO@ 0044640c     libucrt:lcidtoname_downlevel.obj
 0002:00005418       ??_C@_1BG@CMBHIPBE@?$AAs?$AAr?$AA?9?$AAB?$AAA?$AA?9?$AAC?$AAy?$AAr?$AAl@ 00446418     libucrt:lcidtoname_downlevel.obj
 0002:00005430       ??_C@_1O@HEDBLHNP@?$AAs?$AAm?$AAa?$AA?9?$AAS?$AAE@ 00446430     libucrt:lcidtoname_downlevel.obj
 0002:00005440       ??_C@_1M@DAGCADIM@?$AAa?$AAr?$AA?9?$AAO?$AAM@ 00446440     libucrt:lcidtoname_downlevel.obj
 0002:0000544c       ??_C@_1M@FODLMICG@?$AAe?$AAn?$AA?9?$AAJ?$AAM@ 0044644c     libucrt:lcidtoname_downlevel.obj
 0002:00005458       ??_C@_1M@DNMLCIHB@?$AAe?$AAs?$AA?9?$AAV?$AAE@ 00446458     libucrt:lcidtoname_downlevel.obj
 0002:00005464       ??_C@_1O@EOKHMKJK@?$AAs?$AAm?$AAs?$AA?9?$AAF?$AAI@ 00446464     libucrt:lcidtoname_downlevel.obj
 0002:00005474       ??_C@_1M@CAFJMKOF@?$AAa?$AAr?$AA?9?$AAY?$AAE@ 00446474     libucrt:lcidtoname_downlevel.obj
 0002:00005480       ??_C@_1M@CBFHIJLI@?$AAe?$AAn?$AA?9?$AAC?$AAB@ 00446480     libucrt:lcidtoname_downlevel.obj
 0002:0000548c       ??_C@_1M@BGNFLDN@?$AAe?$AAs?$AA?9?$AAC?$AAO@ 0044648c     libucrt:lcidtoname_downlevel.obj
 0002:00005498       ??_C@_1O@JMPHMAMC@?$AAs?$AAm?$AAn?$AA?9?$AAF?$AAI@ 00446498     libucrt:lcidtoname_downlevel.obj
 0002:000054a8       ??_C@_1M@JLANABKE@?$AAa?$AAr?$AA?9?$AAS?$AAY@ 004464a8     libucrt:lcidtoname_downlevel.obj
 0002:000054b4       ??_C@_1M@HPKGCFGN@?$AAe?$AAn?$AA?9?$AAB?$AAZ@ 004464b4     libucrt:lcidtoname_downlevel.obj
 0002:000054c0       ??_C@_1M@OLJCMLGM@?$AAe?$AAs?$AA?9?$AAP?$AAE@ 004464c0     libucrt:lcidtoname_downlevel.obj
 0002:000054cc       ??_C@_1M@MKKGFKLE@?$AAa?$AAr?$AA?9?$AAJ?$AAO@ 004464cc     libucrt:lcidtoname_downlevel.obj
 0002:000054d8       ??_C@_1M@EKPGLDNI@?$AAe?$AAn?$AA?9?$AAT?$AAT@ 004464d8     libucrt:lcidtoname_downlevel.obj
 0002:000054e4       ??_C@_1M@OONGHFHE@?$AAe?$AAs?$AA?9?$AAA?$AAR@ 004464e4     libucrt:lcidtoname_downlevel.obj
 0002:000054f0       ??_C@_1M@OOJFGBHE@?$AAa?$AAr?$AA?9?$AAL?$AAB@ 004464f0     libucrt:lcidtoname_downlevel.obj
 0002:000054fc       ??_C@_1M@GCEJHNEG@?$AAe?$AAn?$AA?9?$AAZ?$AAW@ 004464fc     libucrt:lcidtoname_downlevel.obj
 0002:00005508       ??_C@_1M@JNOCAHJI@?$AAe?$AAs?$AA?9?$AAE?$AAC@ 00446508     libucrt:lcidtoname_downlevel.obj
 0002:00005514       ??_C@_1M@JEFHPGGB@?$AAa?$AAr?$AA?9?$AAK?$AAW@ 00446514     libucrt:lcidtoname_downlevel.obj
 0002:00005520       ??_C@_1M@MLKIBJOJ@?$AAe?$AAn?$AA?9?$AAP?$AAH@ 00446520     libucrt:lcidtoname_downlevel.obj
 0002:0000552c       ??_C@_1M@BDNIPEND@?$AAe?$AAs?$AA?9?$AAC?$AAL@ 0044652c     libucrt:lcidtoname_downlevel.obj
 0002:00005538       ??_C@_1M@MPNMEKBD@?$AAa?$AAr?$AA?9?$AAA?$AAE@ 00446538     libucrt:lcidtoname_downlevel.obj
 0002:00005544       ??_C@_1M@KBJALCPI@?$AAe?$AAs?$AA?9?$AAU?$AAY@ 00446544     libucrt:lcidtoname_downlevel.obj
 0002:00005550       ??_C@_1M@LLCCOAGA@?$AAa?$AAr?$AA?9?$AAB?$AAH@ 00446550     libucrt:lcidtoname_downlevel.obj
 0002:0000555c       ??_C@_1M@PBFNCDEL@?$AAe?$AAs?$AA?9?$AAP?$AAY@ 0044655c     libucrt:lcidtoname_downlevel.obj
 0002:00005568       ??_C@_1M@EDGINPNP@?$AAa?$AAr?$AA?9?$AAQ?$AAA@ 00446568     libucrt:lcidtoname_downlevel.obj
 0002:00005574       ??_C@_1M@MKDBIIJI@?$AAe?$AAs?$AA?9?$AAB?$AAO@ 00446574     libucrt:lcidtoname_downlevel.obj
 0002:00005580       ??_C@_1M@CPKKEBLD@?$AAe?$AAs?$AA?9?$AAS?$AAV@ 00446580     libucrt:lcidtoname_downlevel.obj
 0002:0000558c       ??_C@_1M@NDBGMMJL@?$AAe?$AAs?$AA?9?$AAH?$AAN@ 0044658c     libucrt:lcidtoname_downlevel.obj
 0002:00005598       ??_C@_1M@JIJIBHDP@?$AAe?$AAs?$AA?9?$AAN?$AAI@ 00446598     libucrt:lcidtoname_downlevel.obj
 0002:000055a4       ??_C@_1M@CGFMKEEK@?$AAe?$AAs?$AA?9?$AAP?$AAR@ 004465a4     libucrt:lcidtoname_downlevel.obj
 0002:000055b0       ??_C@_1O@ICJHKIIK@?$AAz?$AAh?$AA?9?$AAC?$AAH?$AAT@ 004465b0     libucrt:lcidtoname_downlevel.obj
 0002:000055c0       ??_C@_15CLNEJCE@?$AAs?$AAr@ 004465c0     libucrt:lcidtoname_downlevel.obj
 0002:00005ce8       ??_C@_1M@KAHEKEIG@?$AAa?$AAf?$AA?9?$AAz?$AAa@ 00446ce8     libucrt:lcidtoname_downlevel.obj
 0002:00005cf4       ??_C@_1M@GIECOABL@?$AAa?$AAr?$AA?9?$AAa?$AAe@ 00446cf4     libucrt:lcidtoname_downlevel.obj
 0002:00005d00       ??_C@_1M@BMLMEKGI@?$AAa?$AAr?$AA?9?$AAb?$AAh@ 00446d00     libucrt:lcidtoname_downlevel.obj
 0002:00005d0c       ??_C@_1M@DAPFDGGB@?$AAa?$AAr?$AA?9?$AAd?$AAz@ 00446d0c     libucrt:lcidtoname_downlevel.obj
 0002:00005d18       ??_C@_1M@FJNKGKIG@?$AAa?$AAr?$AA?9?$AAe?$AAg@ 00446d18     libucrt:lcidtoname_downlevel.obj
 0002:00005d24       ??_C@_1M@FLGKKCLO@?$AAa?$AAr?$AA?9?$AAi?$AAq@ 00446d24     libucrt:lcidtoname_downlevel.obj
 0002:00005d30       ??_C@_1M@GNDIPALM@?$AAa?$AAr?$AA?9?$AAj?$AAo@ 00446d30     libucrt:lcidtoname_downlevel.obj
 0002:00005d3c       ??_C@_1M@DDMJFMGJ@?$AAa?$AAr?$AA?9?$AAk?$AAw@ 00446d3c     libucrt:lcidtoname_downlevel.obj
 0002:00005d48       ??_C@_1M@EJALMLHM@?$AAa?$AAr?$AA?9?$AAl?$AAb@ 00446d48     libucrt:lcidtoname_downlevel.obj
 0002:00005d54       ??_C@_1M@MOBDBLOC@?$AAa?$AAr?$AA?9?$AAl?$AAy@ 00446d54     libucrt:lcidtoname_downlevel.obj
 0002:00005d60       ??_C@_1M@JAOCLHDH@?$AAa?$AAr?$AA?9?$AAm?$AAa@ 00446d60     libucrt:lcidtoname_downlevel.obj
 0002:00005d6c       ??_C@_1M@JHPMKJIE@?$AAa?$AAr?$AA?9?$AAo?$AAm@ 00446d6c     libucrt:lcidtoname_downlevel.obj
 0002:00005d78       ??_C@_1M@OEPGHFNH@?$AAa?$AAr?$AA?9?$AAq?$AAa@ 00446d78     libucrt:lcidtoname_downlevel.obj
 0002:00005d84       ??_C@_1M@KJDONENM@?$AAa?$AAr?$AA?9?$AAs?$AAa@ 00446d84     libucrt:lcidtoname_downlevel.obj
 0002:00005d90       ??_C@_1M@DMJDKLKM@?$AAa?$AAr?$AA?9?$AAs?$AAy@ 00446d90     libucrt:lcidtoname_downlevel.obj
 0002:00005d9c       ??_C@_1M@OMFIPEDC@?$AAa?$AAr?$AA?9?$AAt?$AAn@ 00446d9c     libucrt:lcidtoname_downlevel.obj
 0002:00005da8       ??_C@_1M@IHMHGAON@?$AAa?$AAr?$AA?9?$AAy?$AAe@ 00446da8     libucrt:lcidtoname_downlevel.obj
 0002:00005db4       ??_C@_1BG@KDCPGJGB@?$AAa?$AAz?$AA?9?$AAa?$AAz?$AA?9?$AAc?$AAy?$AAr?$AAl@ 00446db4     libucrt:lcidtoname_downlevel.obj
 0002:00005dcc       ??_C@_1BG@IBCKDDOE@?$AAa?$AAz?$AA?9?$AAa?$AAz?$AA?9?$AAl?$AAa?$AAt?$AAn@ 00446dcc     libucrt:lcidtoname_downlevel.obj
 0002:00005de4       ??_C@_1M@EGPFDCPD@?$AAb?$AAe?$AA?9?$AAb?$AAy@ 00446de4     libucrt:lcidtoname_downlevel.obj
 0002:00005df0       ??_C@_1M@PCMGMCGC@?$AAb?$AAg?$AA?9?$AAb?$AAg@ 00446df0     libucrt:lcidtoname_downlevel.obj
 0002:00005dfc       ??_C@_1M@BJBMFGOB@?$AAb?$AAn?$AA?9?$AAi?$AAn@ 00446dfc     libucrt:lcidtoname_downlevel.obj
 0002:00005e08       ??_C@_1BG@EAKMMACD@?$AAb?$AAs?$AA?9?$AAb?$AAa?$AA?9?$AAl?$AAa?$AAt?$AAn@ 00446e08     libucrt:lcidtoname_downlevel.obj
 0002:00005e20       ??_C@_1M@KGADAODK@?$AAc?$AAa?$AA?9?$AAe?$AAs@ 00446e20     libucrt:lcidtoname_downlevel.obj
 0002:00005e2c       ??_C@_1M@COAJPDHI@?$AAc?$AAs?$AA?9?$AAc?$AAz@ 00446e2c     libucrt:lcidtoname_downlevel.obj
 0002:00005e38       ??_C@_1M@DHBHFONH@?$AAc?$AAy?$AA?9?$AAg?$AAb@ 00446e38     libucrt:lcidtoname_downlevel.obj
 0002:00005e44       ??_C@_1M@IMGKELGA@?$AAd?$AAa?$AA?9?$AAd?$AAk@ 00446e44     libucrt:lcidtoname_downlevel.obj
 0002:00005e50       ??_C@_1M@NNDGDNGA@?$AAd?$AAe?$AA?9?$AAa?$AAt@ 00446e50     libucrt:lcidtoname_downlevel.obj
 0002:00005e5c       ??_C@_1M@IKDBHEEM@?$AAd?$AAe?$AA?9?$AAc?$AAh@ 00446e5c     libucrt:lcidtoname_downlevel.obj
 0002:00005e68       ??_C@_1M@GFFOJMCJ@?$AAd?$AAe?$AA?9?$AAd?$AAe@ 00446e68     libucrt:lcidtoname_downlevel.obj
 0002:00005e74       ??_C@_1M@MDNLKBPM@?$AAd?$AAe?$AA?9?$AAl?$AAi@ 00446e74     libucrt:lcidtoname_downlevel.obj
 0002:00005e80       ??_C@_1M@NJBEEJNL@?$AAd?$AAe?$AA?9?$AAl?$AAu@ 00446e80     libucrt:lcidtoname_downlevel.obj
 0002:00005e8c       ??_C@_1O@GNNELBAP@?$AAd?$AAi?$AAv?$AA?9?$AAm?$AAv@ 00446e8c     libucrt:lcidtoname_downlevel.obj
 0002:00005e9c       ??_C@_1M@EJLEOGAE@?$AAe?$AAl?$AA?9?$AAg?$AAr@ 00446e9c     libucrt:lcidtoname_downlevel.obj
 0002:00005ea8       ??_C@_1M@GMPONJN@?$AAe?$AAn?$AA?9?$AAa?$AAu@ 00446ea8     libucrt:lcidtoname_downlevel.obj
 0002:00005eb4       ??_C@_1M@NIDIIPGF@?$AAe?$AAn?$AA?9?$AAb?$AAz@ 00446eb4     libucrt:lcidtoname_downlevel.obj
 0002:00005ec0       ??_C@_1M@JEHMIMFO@?$AAe?$AAn?$AA?9?$AAc?$AAa@ 00446ec0     libucrt:lcidtoname_downlevel.obj
 0002:00005ecc       ??_C@_1M@IGMJCDLA@?$AAe?$AAn?$AA?9?$AAc?$AAb@ 00446ecc     libucrt:lcidtoname_downlevel.obj
 0002:00005ed8       ??_C@_1M@BNFIGBKG@?$AAe?$AAn?$AA?9?$AAg?$AAb@ 00446ed8     libucrt:lcidtoname_downlevel.obj
 0002:00005ee4       ??_C@_1M@LKIFDIGP@?$AAe?$AAn?$AA?9?$AAi?$AAe@ 00446ee4     libucrt:lcidtoname_downlevel.obj
 0002:00005ef0       ??_C@_1M@PJKFGCCO@?$AAe?$AAn?$AA?9?$AAj?$AAm@ 00446ef0     libucrt:lcidtoname_downlevel.obj
 0002:00005efc       ??_C@_1M@KPPKEPBO@?$AAe?$AAn?$AA?9?$AAn?$AAz@ 00446efc     libucrt:lcidtoname_downlevel.obj
 0002:00005f08       ??_C@_1M@GMDGLDOB@?$AAe?$AAn?$AA?9?$AAp?$AAh@ 00446f08     libucrt:lcidtoname_downlevel.obj
 0002:00005f14       ??_C@_1M@ONGIBJNA@?$AAe?$AAn?$AA?9?$AAt?$AAt@ 00446f14     libucrt:lcidtoname_downlevel.obj
 0002:00005f20       ??_C@_1M@LLODPCMM@?$AAe?$AAn?$AA?9?$AAu?$AAs@ 00446f20     libucrt:lcidtoname_downlevel.obj
 0002:00005f2c       ??_C@_1M@LAKFNPAN@?$AAe?$AAn?$AA?9?$AAz?$AAa@ 00446f2c     libucrt:lcidtoname_downlevel.obj
 0002:00005f38       ??_C@_1M@MFNHNHEO@?$AAe?$AAn?$AA?9?$AAz?$AAw@ 00446f38     libucrt:lcidtoname_downlevel.obj
 0002:00005f44       ??_C@_1M@EJEINPHM@?$AAe?$AAs?$AA?9?$AAa?$AAr@ 00446f44     libucrt:lcidtoname_downlevel.obj
 0002:00005f50       ??_C@_1M@GNKPCCJA@?$AAe?$AAs?$AA?9?$AAb?$AAo@ 00446f50     libucrt:lcidtoname_downlevel.obj
 0002:00005f5c       ??_C@_1M@LEEGFONL@?$AAe?$AAs?$AA?9?$AAc?$AAl@ 00446f5c     libucrt:lcidtoname_downlevel.obj
 0002:00005f68       ??_C@_1M@KGPDPBDF@?$AAe?$AAs?$AA?9?$AAc?$AAo@ 00446f68     libucrt:lcidtoname_downlevel.obj
 0002:00005f74       ??_C@_1M@EIAHOHH@?$AAe?$AAs?$AA?9?$AAc?$AAr@ 00446f74     libucrt:lcidtoname_downlevel.obj
 0002:00005f80       ??_C@_1M@LLPGMBIN@?$AAe?$AAs?$AA?9?$AAd?$AAo@ 00446f80     libucrt:lcidtoname_downlevel.obj
 0002:00005f8c       ??_C@_1M@DKHMKNJA@?$AAe?$AAs?$AA?9?$AAe?$AAc@ 00446f8c     libucrt:lcidtoname_downlevel.obj
 0002:00005f98       ??_C@_1M@GKGFPKAP@?$AAe?$AAs?$AA?9?$AAe?$AAs@ 00446f98     libucrt:lcidtoname_downlevel.obj
 0002:00005fa4       ??_C@_1M@LKHKGDLN@?$AAe?$AAs?$AA?9?$AAg?$AAt@ 00446fa4     libucrt:lcidtoname_downlevel.obj
 0002:00005fb0       ??_C@_1M@HEIIGGJD@?$AAe?$AAs?$AA?9?$AAh?$AAn@ 00446fb0     libucrt:lcidtoname_downlevel.obj
 0002:00005fbc       ??_C@_1M@FBDHPPGD@?$AAe?$AAs?$AA?9?$AAm?$AAx@ 00446fbc     libucrt:lcidtoname_downlevel.obj
 0002:00005fc8       ??_C@_1M@DPAGLNDH@?$AAe?$AAs?$AA?9?$AAn?$AAi@ 00446fc8     libucrt:lcidtoname_downlevel.obj
 0002:00005fd4       ??_C@_1M@MDGOPGDD@?$AAe?$AAs?$AA?9?$AAp?$AAa@ 00446fd4     libucrt:lcidtoname_downlevel.obj
 0002:00005fe0       ??_C@_1M@EMAMGBGE@?$AAe?$AAs?$AA?9?$AAp?$AAe@ 00446fe0     libucrt:lcidtoname_downlevel.obj
 0002:00005fec       ??_C@_1M@IBMCAOEC@?$AAe?$AAs?$AA?9?$AAp?$AAr@ 00446fec     libucrt:lcidtoname_downlevel.obj
 0002:00005ff8       ??_C@_1M@FGMDIJED@?$AAe?$AAs?$AA?9?$AAp?$AAy@ 00446ff8     libucrt:lcidtoname_downlevel.obj
 0002:00006004       ??_C@_1M@IIDEOLLL@?$AAe?$AAs?$AA?9?$AAs?$AAv@ 00447004     libucrt:lcidtoname_downlevel.obj
 0002:00006010       ??_C@_1M@GAOBIPA@?$AAe?$AAs?$AA?9?$AAu?$AAy@ 00447010     libucrt:lcidtoname_downlevel.obj
 0002:0000601c       ??_C@_1M@JKFFICHJ@?$AAe?$AAs?$AA?9?$AAv?$AAe@ 0044701c     libucrt:lcidtoname_downlevel.obj
 0002:00006028       ??_C@_1M@PNMLOJDF@?$AAe?$AAt?$AA?9?$AAe?$AAe@ 00447028     libucrt:lcidtoname_downlevel.obj
 0002:00006034       ??_C@_1M@GHHLIKEI@?$AAe?$AAu?$AA?9?$AAe?$AAs@ 00447034     libucrt:lcidtoname_downlevel.obj
 0002:00006040       ??_C@_1M@PBNONODE@?$AAf?$AAa?$AA?9?$AAi?$AAr@ 00447040     libucrt:lcidtoname_downlevel.obj
 0002:0000604c       ??_C@_1M@JEEHPMIL@?$AAf?$AAi?$AA?9?$AAf?$AAi@ 0044704c     libucrt:lcidtoname_downlevel.obj
 0002:00006058       ??_C@_1M@LMDCNDBA@?$AAf?$AAo?$AA?9?$AAf?$AAo@ 00447058     libucrt:lcidtoname_downlevel.obj
 0002:00006064       ??_C@_1M@JKEOHLDK@?$AAf?$AAr?$AA?9?$AAb?$AAe@ 00447064     libucrt:lcidtoname_downlevel.obj
 0002:00006070       ??_C@_1M@NOHADPMI@?$AAf?$AAr?$AA?9?$AAc?$AAa@ 00447070     libucrt:lcidtoname_downlevel.obj
 0002:0000607c       ??_C@_1M@KDHIHAEC@?$AAf?$AAr?$AA?9?$AAc?$AAh@ 0044707c     libucrt:lcidtoname_downlevel.obj
 0002:00006088       ??_C@_1M@MMBBFGAK@?$AAf?$AAr?$AA?9?$AAf?$AAr@ 00447088     libucrt:lcidtoname_downlevel.obj
 0002:00006094       ??_C@_1M@PAFNENNF@?$AAf?$AAr?$AA?9?$AAl?$AAu@ 00447094     libucrt:lcidtoname_downlevel.obj
 0002:000060a0       ??_C@_1M@EOHDJGDD@?$AAf?$AAr?$AA?9?$AAm?$AAc@ 004470a0     libucrt:lcidtoname_downlevel.obj
 0002:000060ac       ??_C@_1M@FAPLLOPF@?$AAg?$AAl?$AA?9?$AAe?$AAs@ 004470ac     libucrt:lcidtoname_downlevel.obj
 0002:000060b8       ??_C@_1M@FOPBFLOO@?$AAg?$AAu?$AA?9?$AAi?$AAn@ 004470b8     libucrt:lcidtoname_downlevel.obj
 0002:000060c4       ??_C@_1M@KBMCINPM@?$AAh?$AAe?$AA?9?$AAi?$AAl@ 004470c4     libucrt:lcidtoname_downlevel.obj
 0002:000060d0       ??_C@_1M@BBPHKFPJ@?$AAh?$AAi?$AA?9?$AAi?$AAn@ 004470d0     libucrt:lcidtoname_downlevel.obj
 0002:000060dc       ??_C@_1M@PMBNDPHD@?$AAh?$AAr?$AA?9?$AAb?$AAa@ 004470dc     libucrt:lcidtoname_downlevel.obj
 0002:000060e8       ??_C@_1M@BPCKOEGE@?$AAh?$AAr?$AA?9?$AAh?$AAr@ 004470e8     libucrt:lcidtoname_downlevel.obj
 0002:000060f4       ??_C@_1M@GACBMHKE@?$AAh?$AAu?$AA?9?$AAh?$AAu@ 004470f4     libucrt:lcidtoname_downlevel.obj
 0002:00006100       ??_C@_1M@MILPAJJC@?$AAh?$AAy?$AA?9?$AAa?$AAm@ 00447100     libucrt:lcidtoname_downlevel.obj
 0002:0000610c       ??_C@_1M@BABBICEC@?$AAi?$AAd?$AA?9?$AAi?$AAd@ 0044710c     libucrt:lcidtoname_downlevel.obj
 0002:00006118       ??_C@_1M@BIKNHHPF@?$AAi?$AAs?$AA?9?$AAi?$AAs@ 00447118     libucrt:lcidtoname_downlevel.obj
 0002:00006124       ??_C@_1M@NMPCJPHE@?$AAi?$AAt?$AA?9?$AAc?$AAh@ 00447124     libucrt:lcidtoname_downlevel.obj
 0002:00006130       ??_C@_1M@GHKGFEDF@?$AAi?$AAt?$AA?9?$AAi?$AAt@ 00447130     libucrt:lcidtoname_downlevel.obj
 0002:0000613c       ??_C@_1M@NIEJCJJA@?$AAj?$AAa?$AA?9?$AAj?$AAp@ 0044713c     libucrt:lcidtoname_downlevel.obj
 0002:00006148       ??_C@_1M@JILFNBIM@?$AAk?$AAa?$AA?9?$AAg?$AAe@ 00447148     libucrt:lcidtoname_downlevel.obj
 0002:00006154       ??_C@_1M@PACPMGPH@?$AAk?$AAk?$AA?9?$AAk?$AAz@ 00447154     libucrt:lcidtoname_downlevel.obj
 0002:00006160       ??_C@_1M@IELFGMHA@?$AAk?$AAn?$AA?9?$AAi?$AAn@ 00447160     libucrt:lcidtoname_downlevel.obj
 0002:0000616c       ??_C@_1O@IBBJHCH@?$AAk?$AAo?$AAk?$AA?9?$AAi?$AAn@ 0044716c     libucrt:lcidtoname_downlevel.obj
 0002:0000617c       ??_C@_1M@DMHAEOGC@?$AAk?$AAo?$AA?9?$AAk?$AAr@ 0044717c     libucrt:lcidtoname_downlevel.obj
 0002:00006188       ??_C@_1M@HBAHBIGA@?$AAk?$AAy?$AA?9?$AAk?$AAg@ 00447188     libucrt:lcidtoname_downlevel.obj
 0002:00006194       ??_C@_1M@KPMILCJG@?$AAl?$AAt?$AA?9?$AAl?$AAt@ 00447194     libucrt:lcidtoname_downlevel.obj
 0002:000061a0       ??_C@_1M@BDEKKCA@?$AAl?$AAv?$AA?9?$AAl?$AAv@ 004471a0     libucrt:lcidtoname_downlevel.obj
 0002:000061ac       ??_C@_1M@ELCKCCJJ@?$AAm?$AAi?$AA?9?$AAn?$AAz@ 004471ac     libucrt:lcidtoname_downlevel.obj
 0002:000061b8       ??_C@_1M@CBOOLAPA@?$AAm?$AAk?$AA?9?$AAm?$AAk@ 004471b8     libucrt:lcidtoname_downlevel.obj
 0002:000061c4       ??_C@_1M@GPHNBJKN@?$AAm?$AAl?$AA?9?$AAi?$AAn@ 004471c4     libucrt:lcidtoname_downlevel.obj
 0002:000061d0       ??_C@_1M@PABJILIG@?$AAm?$AAn?$AA?9?$AAm?$AAn@ 004471d0     libucrt:lcidtoname_downlevel.obj
 0002:000061dc       ??_C@_1M@FGBKKIPG@?$AAm?$AAr?$AA?9?$AAi?$AAn@ 004471dc     libucrt:lcidtoname_downlevel.obj
 0002:000061e8       ??_C@_1M@NDBPDDAL@?$AAm?$AAs?$AA?9?$AAb?$AAn@ 004471e8     libucrt:lcidtoname_downlevel.obj
 0002:000061f4       ??_C@_1M@OPIHOOPI@?$AAm?$AAs?$AA?9?$AAm?$AAy@ 004471f4     libucrt:lcidtoname_downlevel.obj
 0002:00006200       ??_C@_1M@PPDBCNFM@?$AAm?$AAt?$AA?9?$AAm?$AAt@ 00447200     libucrt:lcidtoname_downlevel.obj
 0002:0000620c       ??_C@_1M@KDJDKMDD@?$AAn?$AAb?$AA?9?$AAn?$AAo@ 0044720c     libucrt:lcidtoname_downlevel.obj
 0002:00006218       ??_C@_1M@KFCFLMJP@?$AAn?$AAl?$AA?9?$AAb?$AAe@ 00447218     libucrt:lcidtoname_downlevel.obj
 0002:00006224       ??_C@_1M@KPOPDDGO@?$AAn?$AAl?$AA?9?$AAn?$AAl@ 00447224     libucrt:lcidtoname_downlevel.obj
 0002:00006230       ??_C@_1M@LJKPEMLN@?$AAn?$AAn?$AA?9?$AAn?$AAo@ 00447230     libucrt:lcidtoname_downlevel.obj
 0002:0000623c       ??_C@_1M@BDGHHBFL@?$AAn?$AAs?$AA?9?$AAz?$AAa@ 0044723c     libucrt:lcidtoname_downlevel.obj
 0002:00006248       ??_C@_1M@IDEHOAP@?$AAp?$AAa?$AA?9?$AAi?$AAn@ 00447248     libucrt:lcidtoname_downlevel.obj
 0002:00006254       ??_C@_1M@HDBKGOGH@?$AAp?$AAl?$AA?9?$AAp?$AAl@ 00447254     libucrt:lcidtoname_downlevel.obj
 0002:00006260       ??_C@_1M@LJLLCMEH@?$AAp?$AAt?$AA?9?$AAb?$AAr@ 00447260     libucrt:lcidtoname_downlevel.obj
 0002:0000626c       ??_C@_1M@NCMONAAL@?$AAp?$AAt?$AA?9?$AAp?$AAt@ 0044726c     libucrt:lcidtoname_downlevel.obj
 0002:00006278       ??_C@_1O@EAKMAJDN@?$AAq?$AAu?$AAz?$AA?9?$AAb?$AAo@ 00447278     libucrt:lcidtoname_downlevel.obj
 0002:00006288       ??_C@_1O@BHHPIGDN@?$AAq?$AAu?$AAz?$AA?9?$AAe?$AAc@ 00447288     libucrt:lcidtoname_downlevel.obj
 0002:00006298       ??_C@_1O@GBAPEKMJ@?$AAq?$AAu?$AAz?$AA?9?$AAp?$AAe@ 00447298     libucrt:lcidtoname_downlevel.obj
 0002:000062a8       ??_C@_1M@CLGLEFBO@?$AAr?$AAo?$AA?9?$AAr?$AAo@ 004472a8     libucrt:lcidtoname_downlevel.obj
 0002:000062b4       ??_C@_1M@CEEDODME@?$AAr?$AAu?$AA?9?$AAr?$AAu@ 004472b4     libucrt:lcidtoname_downlevel.obj
 0002:000062c0       ??_C@_1M@HPKKKMPP@?$AAs?$AAa?$AA?9?$AAi?$AAn@ 004472c0     libucrt:lcidtoname_downlevel.obj
 0002:000062cc       ??_C@_1M@BKMAIGOJ@?$AAs?$AAe?$AA?9?$AAf?$AAi@ 004472cc     libucrt:lcidtoname_downlevel.obj
 0002:000062d8       ??_C@_1M@NDPIFLFI@?$AAs?$AAe?$AA?9?$AAn?$AAo@ 004472d8     libucrt:lcidtoname_downlevel.obj
 0002:000062e4       ??_C@_1M@DANKKHJ@?$AAs?$AAe?$AA?9?$AAs?$AAe@ 004472e4     libucrt:lcidtoname_downlevel.obj
 0002:000062f0       ??_C@_1M@PNBLONPJ@?$AAs?$AAk?$AA?9?$AAs?$AAk@ 004472f0     libucrt:lcidtoname_downlevel.obj
 0002:000062fc       ??_C@_1M@LFMODOAL@?$AAs?$AAl?$AA?9?$AAs?$AAi@ 004472fc     libucrt:lcidtoname_downlevel.obj
 0002:00006308       ??_C@_1O@DFKOMPG@?$AAs?$AAm?$AAa?$AA?9?$AAn?$AAo@ 00447308     libucrt:lcidtoname_downlevel.obj
 0002:00006318       ??_C@_1O@NDKPBNNH@?$AAs?$AAm?$AAa?$AA?9?$AAs?$AAe@ 00447318     libucrt:lcidtoname_downlevel.obj
 0002:00006328       ??_C@_1O@PLLKBHAB@?$AAs?$AAm?$AAj?$AA?9?$AAn?$AAo@ 00447328     libucrt:lcidtoname_downlevel.obj
 0002:00006338       ??_C@_1O@CLEPOGCA@?$AAs?$AAm?$AAj?$AA?9?$AAs?$AAe@ 00447338     libucrt:lcidtoname_downlevel.obj
 0002:00006348       ??_C@_1O@DLGJGKMK@?$AAs?$AAm?$AAn?$AA?9?$AAf?$AAi@ 00447348     libucrt:lcidtoname_downlevel.obj
 0002:00006358       ??_C@_1O@OJDJGAJC@?$AAs?$AAm?$AAs?$AA?9?$AAf?$AAi@ 00447358     libucrt:lcidtoname_downlevel.obj
 0002:00006368       ??_C@_1M@BOFOGHPB@?$AAs?$AAq?$AA?9?$AAa?$AAl@ 00447368     libucrt:lcidtoname_downlevel.obj
 0002:00006374       ??_C@_1BG@LJBBIPGB@?$AAs?$AAr?$AA?9?$AAb?$AAa?$AA?9?$AAc?$AAy?$AAr?$AAl@ 00447374     libucrt:lcidtoname_downlevel.obj
 0002:0000638c       ??_C@_1BG@JLBENFOE@?$AAs?$AAr?$AA?9?$AAb?$AAa?$AA?9?$AAl?$AAa?$AAt?$AAn@ 0044738c     libucrt:lcidtoname_downlevel.obj
 0002:000063a4       ??_C@_1BG@KODPNHE@?$AAs?$AAr?$AA?9?$AAs?$AAp?$AA?9?$AAc?$AAy?$AAr?$AAl@ 004473a4     libucrt:lcidtoname_downlevel.obj
 0002:000063bc       ??_C@_1BG@CIOGKHPB@?$AAs?$AAr?$AA?9?$AAs?$AAp?$AA?9?$AAl?$AAa?$AAt?$AAn@ 004473bc     libucrt:lcidtoname_downlevel.obj
 0002:000063d4       ??_C@_1M@NGFJLMAC@?$AAs?$AAv?$AA?9?$AAf?$AAi@ 004473d4     libucrt:lcidtoname_downlevel.obj
 0002:000063e0       ??_C@_1M@MPJEJAJC@?$AAs?$AAv?$AA?9?$AAs?$AAe@ 004473e0     libucrt:lcidtoname_downlevel.obj
 0002:000063ec       ??_C@_1M@MPNDHLFK@?$AAs?$AAw?$AA?9?$AAk?$AAe@ 004473ec     libucrt:lcidtoname_downlevel.obj
 0002:000063f8       ??_C@_1O@KOHBJJI@?$AAs?$AAy?$AAr?$AA?9?$AAs?$AAy@ 004473f8     libucrt:lcidtoname_downlevel.obj
 0002:00006408       ??_C@_1M@LDCEFHA@?$AAt?$AAa?$AA?9?$AAi?$AAn@ 00447408     libucrt:lcidtoname_downlevel.obj
 0002:00006414       ??_C@_1M@CNJOFAK@?$AAt?$AAe?$AA?9?$AAi?$AAn@ 00447414     libucrt:lcidtoname_downlevel.obj
 0002:00006420       ??_C@_1M@GNAECACD@?$AAt?$AAh?$AA?9?$AAt?$AAh@ 00447420     libucrt:lcidtoname_downlevel.obj
 0002:0000642c       ??_C@_1M@CHBIHOJO@?$AAt?$AAn?$AA?9?$AAz?$AAa@ 0044742c     libucrt:lcidtoname_downlevel.obj
 0002:00006438       ??_C@_1M@GCCMIGPJ@?$AAt?$AAr?$AA?9?$AAt?$AAr@ 00447438     libucrt:lcidtoname_downlevel.obj
 0002:00006444       ??_C@_1M@CELMCNBK@?$AAt?$AAt?$AA?9?$AAr?$AAu@ 00447444     libucrt:lcidtoname_downlevel.obj
 0002:00006450       ??_C@_1M@KLMCELGA@?$AAu?$AAk?$AA?9?$AAu?$AAa@ 00447450     libucrt:lcidtoname_downlevel.obj
 0002:0000645c       ??_C@_1M@EPAJJAJF@?$AAu?$AAr?$AA?9?$AAp?$AAk@ 0044745c     libucrt:lcidtoname_downlevel.obj
 0002:00006468       ??_C@_1BG@GEGPMCDJ@?$AAu?$AAz?$AA?9?$AAu?$AAz?$AA?9?$AAc?$AAy?$AAr?$AAl@ 00447468     libucrt:lcidtoname_downlevel.obj
 0002:00006480       ??_C@_1BG@EGGKJILM@?$AAu?$AAz?$AA?9?$AAu?$AAz?$AA?9?$AAl?$AAa?$AAt?$AAn@ 00447480     libucrt:lcidtoname_downlevel.obj
 0002:00006498       ??_C@_1M@GFOCLFF@?$AAv?$AAi?$AA?9?$AAv?$AAn@ 00447498     libucrt:lcidtoname_downlevel.obj
 0002:000064a4       ??_C@_1M@CPAMEDFI@?$AAx?$AAh?$AA?9?$AAz?$AAa@ 004474a4     libucrt:lcidtoname_downlevel.obj
 0002:000064b0       ??_C@_1O@EBKIFIGN@?$AAz?$AAh?$AA?9?$AAc?$AAh?$AAs@ 004474b0     libucrt:lcidtoname_downlevel.obj
 0002:000064c0       ??_C@_1O@NMHPGANE@?$AAz?$AAh?$AA?9?$AAc?$AAh?$AAt@ 004474c0     libucrt:lcidtoname_downlevel.obj
 0002:000064d0       ??_C@_1M@LPINJOMC@?$AAz?$AAh?$AA?9?$AAc?$AAn@ 004474d0     libucrt:lcidtoname_downlevel.obj
 0002:000064dc       ??_C@_1M@OCJEJODD@?$AAz?$AAh?$AA?9?$AAh?$AAk@ 004474dc     libucrt:lcidtoname_downlevel.obj
 0002:000064e8       ??_C@_1M@DNDLJINH@?$AAz?$AAh?$AA?9?$AAm?$AAo@ 004474e8     libucrt:lcidtoname_downlevel.obj
 0002:000064f4       ??_C@_1M@MBFDNDND@?$AAz?$AAh?$AA?9?$AAs?$AAg@ 004474f4     libucrt:lcidtoname_downlevel.obj
 0002:00006500       ??_C@_1M@IMEPLEPE@?$AAz?$AAh?$AA?9?$AAt?$AAw@ 00447500     libucrt:lcidtoname_downlevel.obj
 0002:0000650c       ??_C@_1M@BBGHNHJP@?$AAz?$AAu?$AA?9?$AAz?$AAa@ 0044750c     libucrt:lcidtoname_downlevel.obj
 0002:00006518       ?large_power_data@?1??multiply_by_power_of_ten@__crt_strtox@@YA_NAAUbig_integer@2@I@Z@4QBIB 00447518     libucrt:cfout.obj
 0002:00006e20       ?large_power_indices@?1??multiply_by_power_of_ten@__crt_strtox@@YA_NAAUbig_integer@2@I@Z@4QBUunpack_index@?1??12@YA_N0I@Z@B 00447e20     libucrt:cfout.obj
 0002:00006eb8       ?small_powers_of_ten@?1??multiply_by_power_of_ten@__crt_strtox@@YA_NAAUbig_integer@2@I@Z@4QBIB 00447eb8     libucrt:cfout.obj
 0002:00006edc       ??_C@_01GBGANLPD@0@        00447edc     libucrt:cfout.obj
 0002:00006ee0       ??_C@_05DNEBIAHO@1?$CDINF@ 00447ee0     libucrt:cfout.obj
 0002:00006ee8       ??_C@_06IMKFLFPG@1?$CDQNAN@ 00447ee8     libucrt:cfout.obj
 0002:00006ef0       ??_C@_06PGGFOGJG@1?$CDSNAN@ 00447ef0     libucrt:cfout.obj
 0002:00006ef8       ??_C@_05PHHOCPM@1?$CDIND@  00447ef8     libucrt:cfout.obj
 0002:00006f18       ??_C@_1BA@BALFACEM@?$AAC?$AAO?$AAN?$AAO?$AAU?$AAT?$AA$@ 00447f18     libucrt:initcon.obj
 0002:00007090       __infinity                 00448090     libucrt:87tran.obj
 0002:0000709a       __minfinity                0044809a     libucrt:87tran.obj
 0002:000070a4       __logemax                  004480a4     libucrt:87tran.obj
 0002:000070ca       __OP_EXPjmptab             004480ca     libucrt:87tran.obj
 0002:000070f0       __indefinite               004480f0     libucrt:87disp.obj
 0002:000070fa       __piby2                    004480fa     libucrt:87disp.obj
 0002:00007104       __piby4                    00448104     libucrt:87disp.obj
 0002:00007138       __DEFAULT_CW_in_mem        00448138     libucrt:common.obj
 0002:0000713a       __pi_by_2_to_61            0044813a     libucrt:common.obj
 0002:000071e0       ??_C@_03MGHMBJCF@log@      004481e0     libucrt:libm_error.obj
 0002:000071e4       ??_C@_05HGHHAHAP@log10@    004481e4     libucrt:libm_error.obj
 0002:000071ec       ??_C@_03KHJOGHMM@exp@      004481ec     libucrt:libm_error.obj
 0002:000071f0       ??_C@_03JGHBODFD@pow@      004481f0     libucrt:libm_error.obj
 0002:000071f4       ??_C@_04FIHNOPOL@asin@     004481f4     libucrt:libm_error.obj
 0002:000071fc       ??_C@_04PDIFKINK@acos@     004481fc     libucrt:libm_error.obj
 0002:00007204       ??_C@_04EIAKFFMI@sqrt@     00448204     libucrt:libm_error.obj
 0002:00007210       __real@3ff0000000000000    00448210     libucrt:libm_error.obj
 0002:00007220       ___acrt_log10_table_t      00448220     libucrt:log10_tables.obj
 0002:00007630       ___acrt_log10_table_cb     00448630     libucrt:log10_tables.obj
 0002:00007a40       __real@0000000000000000    00448a40     libucrt:powhlp.obj
 0002:00007a48       __real@3fe0000000000000    00448a48     libucrt:powhlp.obj
 0002:00007b38       ??_C@_04COOMCNPB@sinh@     00448b38     libucrt:fpexcept.obj
 0002:00007b40       ??_C@_04HPJJNFIM@cosh@     00448b40     libucrt:fpexcept.obj
 0002:00007b48       ??_C@_04FJHINJAO@tanh@     00448b48     libucrt:fpexcept.obj
 0002:00007b50       ??_C@_04MLLJIGOK@atan@     00448b50     libucrt:fpexcept.obj
 0002:00007b58       ??_C@_05KNGEOGJB@atan2@    00448b58     libucrt:fpexcept.obj
 0002:00007b60       ??_C@_03BLEJJJBH@sin@      00448b60     libucrt:fpexcept.obj
 0002:00007b64       ??_C@_03LALBNOCG@cos@      00448b64     libucrt:fpexcept.obj
 0002:00007b68       ??_C@_03IIINPABG@tan@      00448b68     libucrt:fpexcept.obj
 0002:00007b6c       ??_C@_04GFPJNGEK@ceil@     00448b6c     libucrt:fpexcept.obj
 0002:00007b74       ??_C@_05PBJFFIGL@floor@    00448b74     libucrt:fpexcept.obj
 0002:00007b7c       ??_C@_04ODHECPBC@fabs@     00448b7c     libucrt:fpexcept.obj
 0002:00007b84       ??_C@_04EHEDPDJG@modf@     00448b84     libucrt:fpexcept.obj
 0002:00007b8c       ??_C@_05CEJMAHNP@ldexp@    00448b8c     libucrt:fpexcept.obj
 0002:00007b94       ??_C@_05KBKMEMPO@_cabs@    00448b94     libucrt:fpexcept.obj
 0002:00007b9c       ??_C@_06MEIMCGCF@_hypot@   00448b9c     libucrt:fpexcept.obj
 0002:00007ba4       ??_C@_04KEPJIHGP@fmod@     00448ba4     libucrt:fpexcept.obj
 0002:00007bac       ??_C@_05GKKHEGJL@frexp@    00448bac     libucrt:fpexcept.obj
 0002:00007bb4       ??_C@_03MJLDFKDL@_y0@      00448bb4     libucrt:fpexcept.obj
 0002:00007bb8       ??_C@_03NAKIGLHK@_y1@      00448bb8     libucrt:fpexcept.obj
 0002:00007bbc       ??_C@_03ONILCKOB@_yn@      00448bbc     libucrt:fpexcept.obj
 0002:00007bc0       ??_C@_05JGDBENOH@_logb@    00448bc0     libucrt:fpexcept.obj
 0002:00007bc8       ??_C@_0L@KDOEJCKC@_nextafter@ 00448bc8     libucrt:fpexcept.obj
 0002:00007bd8       __d_inf                    00448bd8     libucrt:util.obj
 0002:00007be0       __d_ind                    00448be0     libucrt:util.obj
 0002:00007be8       __d_max                    00448be8     libucrt:util.obj
 0002:00007bf0       __d_min                    00448bf0     libucrt:util.obj
 0002:00007bf8       __d_mzero                  00448bf8     libucrt:util.obj
 0002:00007c5c       ??_7type_info@@6B@         00448c5c     LIBCMT:std_type_info_static.obj
 0002:00007cc0       __load_config_used         00448cc0     LIBCMT:loadcfg.obj
 0002:00007d80       ___CastGuardVftablesStart  00448d80     LIBCMT:guard_support.obj
 0002:00007d84       ___CastGuardVftablesEnd    00448d84     LIBCMT:guard_support.obj
 0002:00007d88       ??_R4DNameNode@@6B@        00448d88     libvcruntime:undname.obj
 0002:00007d9c       ??_R3DNameNode@@8          00448d9c     libvcruntime:undname.obj
 0002:00007dac       ??_R2DNameNode@@8          00448dac     libvcruntime:undname.obj
 0002:00007db4       ??_R1A@?0A@EA@DNameNode@@8 00448db4     libvcruntime:undname.obj
 0002:00007dd0       ??_R4charNode@@6B@         00448dd0     libvcruntime:undname.obj
 0002:00007de4       ??_R3charNode@@8           00448de4     libvcruntime:undname.obj
 0002:00007df4       ??_R2charNode@@8           00448df4     libvcruntime:undname.obj
 0002:00007e00       ??_R1A@?0A@EA@charNode@@8  00448e00     libvcruntime:undname.obj
 0002:00007e1c       ??_R4pcharNode@@6B@        00448e1c     libvcruntime:undname.obj
 0002:00007e30       ??_R3pcharNode@@8          00448e30     libvcruntime:undname.obj
 0002:00007e40       ??_R2pcharNode@@8          00448e40     libvcruntime:undname.obj
 0002:00007e4c       ??_R1A@?0A@EA@pcharNode@@8 00448e4c     libvcruntime:undname.obj
 0002:00007e68       ??_R4pDNameNode@@6B@       00448e68     libvcruntime:undname.obj
 0002:00007e7c       ??_R3pDNameNode@@8         00448e7c     libvcruntime:undname.obj
 0002:00007e8c       ??_R2pDNameNode@@8         00448e8c     libvcruntime:undname.obj
 0002:00007e98       ??_R1A@?0A@EA@pDNameNode@@8 00448e98     libvcruntime:undname.obj
 0002:00007eb4       ??_R4DNameStatusNode@@6B@  00448eb4     libvcruntime:undname.obj
 0002:00007ec8       ??_R3DNameStatusNode@@8    00448ec8     libvcruntime:undname.obj
 0002:00007ed8       ??_R2DNameStatusNode@@8    00448ed8     libvcruntime:undname.obj
 0002:00007ee4       ??_R1A@?0A@EA@DNameStatusNode@@8 00448ee4     libvcruntime:undname.obj
 0002:00007f00       ??_R4pairNode@@6B@         00448f00     libvcruntime:undname.obj
 0002:00007f14       ??_R3pairNode@@8           00448f14     libvcruntime:undname.obj
 0002:00007f24       ??_R2pairNode@@8           00448f24     libvcruntime:undname.obj
 0002:00007f30       ??_R1A@?0A@EA@pairNode@@8  00448f30     libvcruntime:undname.obj
 0002:00007f4c       ??_R4exception@std@@6B@    00448f4c     libvcruntime:frame.obj
 0002:00007f60       ??_R3exception@std@@8      00448f60     libvcruntime:frame.obj
 0002:00007f70       ??_R2exception@std@@8      00448f70     libvcruntime:frame.obj
 0002:00007f78       ??_R1A@?0A@EA@exception@std@@8 00448f78     libvcruntime:frame.obj
 0002:00007f94       ??_R4bad_exception@std@@6B@ 00448f94     libvcruntime:frame.obj
 0002:00007fa8       ??_R3bad_exception@std@@8  00448fa8     libvcruntime:frame.obj
 0002:00007fb8       ??_R2bad_exception@std@@8  00448fb8     libvcruntime:frame.obj
 0002:00007fc4       ??_R1A@?0A@EA@bad_exception@std@@8 00448fc4     libvcruntime:frame.obj
 0002:00007fe0       ??_R4type_info@@6B@        00448fe0     LIBCMT:std_type_info_static.obj
 0002:00007ff4       ??_R3type_info@@8          00448ff4     LIBCMT:std_type_info_static.obj
 0002:00008004       ??_R2type_info@@8          00449004     LIBCMT:std_type_info_static.obj
 0002:0000800c       ??_R1A@?0A@EA@type_info@@8 0044900c     LIBCMT:std_type_info_static.obj
 0002:00008028       ___safe_se_handler_table   00449028     <linker-defined>
 0002:00008044       ___volatile_metadata       00449044     <linker-defined>
 0002:0000894c       ___rtc_iaa                 0044994c     LIBCMT:initsect.obj
 0002:00008950       ___rtc_izz                 00449950     LIBCMT:initsect.obj
 0002:00008954       ___rtc_taa                 00449954     LIBCMT:initsect.obj
 0002:00008958       ___rtc_tzz                 00449958     LIBCMT:initsect.obj
 0002:00008aec       __TI2?AVbad_exception@std@@ 00449aec     libvcruntime:frame.obj
 0002:00008afc       __CTA2?AVbad_exception@std@@ 00449afc     libvcruntime:frame.obj
 0002:00008b08       __CT??_R0?AVbad_exception@std@@@8??0bad_exception@std@@QAE@ABV01@@Z12 00449b08     libvcruntime:frame.obj
 0002:00008b24       __CT??_R0?AVexception@std@@@8??0exception@std@@QAE@ABV01@@Z12 00449b24     libvcruntime:frame.obj
 0002:00009204       __IMPORT_DESCRIPTOR_VISA32 0044a204     visa32:VISA32.dll
 0002:00009218       __IMPORT_DESCRIPTOR_KERNEL32 0044a218     kernel32:KERNEL32.dll
 0002:0000922c       __NULL_IMPORT_DESCRIPTOR   0044a22c     visa32:VISA32.dll
 0003:00000000       ___security_cookie_complement 0044b000     LIBCMT:gs_cookie.obj
 0003:00000004       ___security_cookie         0044b004     LIBCMT:gs_cookie.obj
 0003:00000008       ___scrt_native_dllmain_reason 0044b008     LIBCMT:utility.obj
 0003:0000000c       ___scrt_default_matherr    0044b00c     LIBCMT:matherr.obj
 0003:00000010       ___isa_enabled             0044b010     LIBCMT:cpu_disp.obj
 0003:00000030       __NLG_Destination          0044b030     libvcruntime:exsup.obj
 0003:00000040       __iob                      0044b040     libucrt:_file.obj
 0003:000000ec       ___abort_behavior          0044b0ec     libucrt:abort.obj
 0003:000000f8       ___badioinfo               0044b0f8     libucrt:ioinit.obj
 0003:00000138       ___acrt_initial_locale_data 0044b138     libucrt:nlsdata.obj
 0003:000001f0       ___acrt_initial_locale_pointers 0044b1f0     libucrt:nlsdata.obj
 0003:000001f8       ___acrt_wide_c_locale_string 0044b1f8     libucrt:nlsdata.obj
 0003:000001fc       ___mb_cur_max              0044b1fc     libucrt:nlsdata.obj
 0003:00000200       ___acrt_initial_multibyte_data 0044b200     libucrt:mbctype.obj
 0003:00000720       __pctype                   0044b720     libucrt:ctype.obj
 0003:00000724       __pwctype                  0044b724     libucrt:ctype.obj
 0003:00000728       ___acrt_lconv_c            0044b728     libucrt:localeconv.obj
 0003:00000778       ___acrt_lconv              0044b778     libucrt:localeconv.obj
 0003:0000077c       ___acrt_lconv_static_decimal 0044b77c     libucrt:localeconv.obj
 0003:00000780       ___acrt_lconv_static_W_decimal 0044b780     libucrt:localeconv.obj
 0003:00000784       ___globallocalestatus      0044b784     libucrt:glstatus.obj
 0003:00000788       __lookuptrailbytes         0044b788     libucrt:read.obj
 0003:000008a0       __fltused                  0044b8a0     LIBCMT:fltused.obj
 0003:000008b0       ??_R0?AVbad_alloc@std@@@8  0044b8b0     libvcruntime:ehhelpers.obj
 0003:000008cc       ??_R0?AVbad_exception@std@@@8 0044b8cc     libvcruntime:frame.obj
 0003:000008ec       ??_R0?AVexception@std@@@8  0044b8ec     libvcruntime:frame.obj
 0003:00000908       ??_R0?AVDNameNode@@@8      0044b908     libvcruntime:undname.obj
 0003:00000920       ??_R0?AVcharNode@@@8       0044b920     libvcruntime:undname.obj
 0003:00000938       ??_R0?AVpcharNode@@@8      0044b938     libvcruntime:undname.obj
 0003:00000950       ??_R0?AVpDNameNode@@@8     0044b950     libvcruntime:undname.obj
 0003:0000096c       ??_R0?AVDNameStatusNode@@@8 0044b96c     libvcruntime:undname.obj
 0003:0000098c       ??_R0?AVpairNode@@@8       0044b98c     libvcruntime:undname.obj
 0003:000009a4       ??_R0?AVtype_info@@@8      0044b9a4     LIBCMT:std_type_info_static.obj
 0003:00000f5c       ___scrt_current_native_startup_state 0044bf5c     LIBCMT:utility.obj
 0003:00000f60       ___scrt_native_startup_lock 0044bf60     LIBCMT:utility.obj
 0003:00000f80       ?__type_info_root_node@@3U__type_info_node@@A 0044bf80     LIBCMT:tncleanup.obj
 0003:00000f88       ?_OptionsStorage@?1??__local_stdio_printf_options@@9@4_KA 0044bf88     LIBCMT:default_local_stdio_options.obj
 0003:00000f90       ?_OptionsStorage@?1??__local_stdio_scanf_options@@9@4_KA 0044bf90     LIBCMT:default_local_stdio_options.obj
 0003:00000f98       ___scrt_debugger_hook_flag 0044bf98     LIBCMT:utility_desktop.obj
 0003:00000f9c       ___castguard_check_failure_os_handled_fptr 0044bf9c     LIBCMT:guard_support.obj
 0003:00000fa0       ___isa_available           0044bfa0     LIBCMT:cpu_disp.obj
 0003:00000fa4       ___favor                   0044bfa4     LIBCMT:cpu_disp.obj
 0003:00000fa8       ?__WinRTOutOfMemoryExceptionCallback@@3P6GPAXXZA 0044bfa8     libvcruntime:ehhelpers.obj
 0003:00000ff0       ?pArgList@UnDecorator@@0PAVReplicator@@A 0044bff0     libvcruntime:undname.obj
 0003:00000ff4       ?pZNameList@UnDecorator@@0PAVReplicator@@A 0044bff4     libvcruntime:undname.obj
 0003:00000ff8       ?pTemplateArgList@UnDecorator@@0PAVReplicator@@A 0044bff8     libvcruntime:undname.obj
 0003:00000ffc       ?gName@UnDecorator@@0PBDB  0044bffc     libvcruntime:undname.obj
 0003:00001000       ?name@UnDecorator@@0PBDB   0044c000     libvcruntime:undname.obj
 0003:00001004       ?disableFlags@UnDecorator@@0KA 0044c004     libvcruntime:undname.obj
 0003:00001008       ?fExplicitTemplateParams@UnDecorator@@0_NA 0044c008     libvcruntime:undname.obj
 0003:00001009       ?fGetTemplateArgumentList@UnDecorator@@0_NA 0044c009     libvcruntime:undname.obj
 0003:0000100c       ?m_pGetParameter@UnDecorator@@0P6APADJ@ZA 0044c00c     libvcruntime:undname.obj
 0003:00001010       ?m_CHPENameOffset@UnDecorator@@0KA 0044c010     libvcruntime:undname.obj
 0003:00001014       ?m_recursionLevel@UnDecorator@@0KA 0044c014     libvcruntime:undname.obj
 0003:0000104c       ___pPurecall               0044c04c     libvcruntime:purevirt_data.obj
 0003:00001058       ?c_exit_complete@?1???R<lambda_6e4b09c48022b2350581041d5f6b0c4c>@@QBE@XZ@4_NA 0044c058     libucrt:exit.obj
 0003:0000105c       __nstream                  0044c05c     libucrt:_file.obj
 0003:00001060       ___piob                    0044c060     libucrt:_file.obj
 0003:00001064       __cflush                   0044c064     libucrt:_file.obj
 0003:000019b4       __environ_table            0044c9b4     libucrt:environment_initialization.obj
 0003:000019b8       __wenviron_table           0044c9b8     libucrt:environment_initialization.obj
 0003:000019bc       ___dcrt_initial_wide_environment 0044c9bc     libucrt:environment_initialization.obj
 0003:000019c0       ___dcrt_initial_narrow_environment 0044c9c0     libucrt:environment_initialization.obj
 0003:000019c4       __pgmptr                   0044c9c4     libucrt:argv_data.obj
 0003:000019c8       __wpgmptr                  0044c9c8     libucrt:argv_data.obj
 0003:000019cc       ___argc                    0044c9cc     libucrt:argv_data.obj
 0003:000019d0       ___argv                    0044c9d0     libucrt:argv_data.obj
 0003:000019d4       ___wargv                   0044c9d4     libucrt:argv_data.obj
 0003:000019d8       __acmdln                   0044c9d8     libucrt:argv_data.obj
 0003:000019dc       __wcmdln                   0044c9dc     libucrt:argv_data.obj
 0003:000019e0       ___acrt_locale_changed_data 0044c9e0     libucrt:wsetlocale.obj
 0003:000019e8       __commode                  0044c9e8     libucrt:ncommode.obj
 0003:000019ec       ___acrt_atexit_table       0044c9ec     libucrt:onexit.obj
 0003:000019f8       ___acrt_at_quick_exit_table 0044c9f8     libucrt:onexit.obj
 0003:00001c50       ___pioinfo                 0044cc50     libucrt:ioinit.obj
 0003:00001e50       __nhandle                  0044ce50     libucrt:ioinit.obj
 0003:00001e60       ___acrt_stdout_buffer      0044ce60     libucrt:_sftbuf.obj
 0003:00001e64       ___acrt_stderr_buffer      0044ce64     libucrt:_sftbuf.obj
 0003:00001e68       ___acrt_current_locale_data 0044ce68     libucrt:nlsdata.obj
 0003:00001e70       __mbctype                  0044ce70     libucrt:mbctype.obj
 0003:00001e74       __mbcasemap                0044ce74     libucrt:mbctype.obj
 0003:00001e78       ___acrt_current_multibyte_data 0044ce78     libucrt:mbctype.obj
 0003:00001e84       __fmode                    0044ce84     libucrt:txtmode.obj
 0003:00001e88       ___acrt_lconv_static_null  0044ce88     libucrt:localeconv.obj
 0003:00001e8c       ___acrt_lconv_static_W_null 0044ce8c     libucrt:localeconv.obj
 0003:00001e90       ___acrt_heap               0044ce90     libucrt:heap_handle.obj
 0003:00001ecc       ___fastflag                0044cecc     libucrt:fp_flags.obj
 0003:00001ed8       ?_OptionsStorage@?1??__local_stdio_printf_options@@9@9 0044ced8     <common>
 0003:00001ee0       ___scrt_ucrt_dll_is_in_use 0044cee0     <common>
 0003:00001ee4       ___dyn_tls_dtor_callback   0044cee4     <common>
 0003:00001ee8       ___dyn_tls_init_callback   0044cee8     <common>
 0003:00001eec       __pmatherr                 0044ceec     <common>
 0003:00001ef0       ___use_sse2_mathfcns       0044cef0     <common>

 entry point at        0001:000007a7

 Static symbols

 0000:fffaf000       .debug$S                   00400000     visa32:VISA32.dll
 0000:fffaf000       .debug$S                   00400000     visa32:VISA32.dll
 0000:fffaf000       .debug$S                   00400000     visa32:VISA32.dll
 0000:fffaf000       .debug$S                   00400000     visa32:VISA32.dll
 0000:fffaf000       .debug$S                   00400000     visa32:VISA32.dll
 0000:fffaf000       .debug$S                   00400000     visa32:VISA32.dll
 0000:fffaf000       .debug$S                   00400000     visa32:VISA32.dll
 0002:fffbf000       __guard_fids_?pre_c_initialization@@YAHXZ 00400000     LIBCMT:exe_main.obj
 0002:fffbf000       __guard_fids__             00400000     LIBCMT:exe_main.obj
 0002:fffbf000       __guard_fids__             00400000     LIBCMT:guard_support.obj
 0002:fffbf000       __guard_fids__             00400000     LIBCMT:guard_support.obj
 0002:fffbf000       __guard_fids___guard_icall_checks_enforced 00400000     LIBCMT:guard_support.obj
